(lp0
(lp1
I0
aI22
aI5
aI11
aI15
aI23
aI10
aI3
aI16
aI19
aI1
aI9
aI7
aI14
aI24
aI8
aI21
aI20
aI12
aI6
aI2
aI13
aI4
aI18
aI17
aa(lp2
I1
aI15
aI21
aI4
aI20
aI3
aI22
aI2
aI16
aI5
aI19
aI23
aI8
aI11
aI6
aI14
aI10
aI7
aI12
aI17
aI0
aI9
aI18
aI24
aI13
aa(lp3
I11
aI6
aI20
aI5
aI10
aI23
aI24
aI13
aI21
aI0
aI19
aI2
aI7
aI4
aI12
aI8
aI9
aI14
aI17
aI22
aI15
aI18
aI16
aI3
aI1
aa(lp4
I5
aI12
aI9
aI1
aI14
aI3
aI21
aI20
aI18
aI6
aI13
aI19
aI7
aI0
aI4
aI23
aI16
aI15
aI2
aI10
aI11
aI17
aI8
aI22
aI24
aa(lp5
I16
aI3
aI22
aI5
aI1
aI2
aI7
aI6
aI21
aI15
aI10
aI11
aI8
aI24
aI14
aI20
aI17
aI0
aI9
aI23
aI19
aI12
aI18
aI4
aI13
aa(lp6
I7
aI4
aI11
aI21
aI16
aI24
aI13
aI9
aI18
aI8
aI15
aI22
aI1
aI2
aI23
aI6
aI17
aI12
aI19
aI14
aI3
aI10
aI0
aI5
aI20
aa(lp7
I20
aI0
aI3
aI1
aI22
aI17
aI19
aI15
aI23
aI24
aI6
aI5
aI10
aI2
aI4
aI21
aI13
aI14
aI12
aI8
aI11
aI16
aI18
aI7
aI9
aa(lp8
I3
aI0
aI12
aI19
aI24
aI8
aI6
aI13
aI7
aI16
aI10
aI23
aI18
aI17
aI4
aI2
aI22
aI15
aI11
aI14
aI5
aI9
aI21
aI1
aI20
aa(lp9
I21
aI4
aI7
aI1
aI3
aI22
aI24
aI16
aI9
aI17
aI13
aI5
aI18
aI6
aI14
aI23
aI20
aI12
aI15
aI11
aI2
aI10
aI8
aI19
aI0
aa(lp10
I2
aI23
aI21
aI16
aI18
aI0
aI9
aI22
aI4
aI24
aI8
aI11
aI10
aI5
aI20
aI3
aI17
aI7
aI1
aI15
aI13
aI12
aI19
aI14
aI6
aa(lp11
I16
aI11
aI2
aI7
aI18
aI8
aI13
aI17
aI23
aI6
aI14
aI3
aI9
aI24
aI20
aI12
aI10
aI19
aI21
aI5
aI15
aI4
aI1
aI0
aI22
aa(lp12
I14
aI9
aI16
aI8
aI18
aI5
aI4
aI1
aI22
aI17
aI24
aI3
aI0
aI7
aI15
aI2
aI12
aI21
aI6
aI20
aI10
aI11
aI19
aI23
aI13
aa(lp13
I14
aI3
aI9
aI10
aI1
aI4
aI2
aI8
aI19
aI11
aI13
aI20
aI22
aI6
aI12
aI0
aI24
aI7
aI21
aI18
aI15
aI5
aI17
aI23
aI16
aa(lp14
I9
aI5
aI19
aI1
aI4
aI16
aI14
aI7
aI15
aI6
aI21
aI8
aI2
aI11
aI22
aI17
aI13
aI20
aI12
aI18
aI23
aI10
aI0
aI3
aI24
aa(lp15
I0
aI23
aI24
aI14
aI8
aI1
aI13
aI11
aI3
aI12
aI16
aI6
aI4
aI20
aI15
aI22
aI18
aI21
aI10
aI7
aI9
aI17
aI19
aI2
aI5
aa(lp16
I13
aI19
aI1
aI24
aI7
aI10
aI5
aI18
aI20
aI23
aI12
aI6
aI16
aI15
aI22
aI4
aI14
aI21
aI2
aI9
aI17
aI3
aI11
aI0
aI8
aa(lp17
I11
aI22
aI15
aI17
aI20
aI3
aI5
aI7
aI10
aI1
aI9
aI12
aI23
aI13
aI2
aI24
aI16
aI6
aI4
aI19
aI21
aI18
aI0
aI8
aI14
aa(lp18
I24
aI17
aI2
aI5
aI0
aI23
aI16
aI11
aI21
aI15
aI7
aI1
aI19
aI14
aI12
aI10
aI8
aI13
aI18
aI22
aI9
aI3
aI20
aI6
aI4
aa(lp19
I24
aI9
aI22
aI7
aI17
aI15
aI4
aI23
aI3
aI1
aI20
aI0
aI12
aI5
aI16
aI13
aI19
aI10
aI6
aI14
aI21
aI11
aI2
aI8
aI18
aa(lp20
I22
aI10
aI18
aI7
aI1
aI2
aI21
aI9
aI13
aI6
aI4
aI19
aI8
aI23
aI24
aI20
aI15
aI14
aI0
aI11
aI3
aI12
aI17
aI5
aI16
aa.