(lp0
(lp1
I4
aI2
aI1
aI5
aI3
aI0
aa(lp2
I4
aI3
aI2
aI0
aI1
aI5
aa(lp3
I2
aI5
aI4
aI3
aI1
aI0
aa(lp4
I1
aI2
aI3
aI5
aI0
aI4
aa(lp5
I1
aI4
aI3
aI2
aI0
aI5
aa(lp6
I5
aI0
aI3
aI1
aI4
aI2
aa(lp7
I3
aI5
aI2
aI1
aI0
aI4
aa(lp8
I0
aI5
aI2
aI4
aI1
aI3
aa(lp9
I3
aI2
aI4
aI1
aI5
aI0
aa(lp10
I1
aI5
aI4
aI2
aI0
aI3
aa(lp11
I3
aI0
aI4
aI2
aI5
aI1
aa(lp12
I1
aI2
aI4
aI0
aI3
aI5
aa(lp13
I3
aI4
aI0
aI2
aI1
aI5
aa(lp14
I0
aI5
aI4
aI3
aI2
aI1
aa(lp15
I2
aI0
aI1
aI4
aI5
aI3
aa(lp16
I3
aI1
aI5
aI4
aI2
aI0
aa(lp17
I5
aI4
aI3
aI2
aI0
aI1
aa(lp18
I3
aI1
aI2
aI0
aI4
aI5
aa(lp19
I4
aI1
aI5
aI3
aI2
aI0
aa(lp20
I3
aI2
aI0
aI1
aI5
aI4
aa.