(lp0
(lp1
I1
aI23
aI13
aI12
aI24
aI8
aI7
aI20
aI5
aI6
aI0
aI19
aI10
aI26
aI2
aI22
aI4
aI3
aI21
aI28
aI27
aI17
aI14
aI15
aI25
aI16
aI11
aI18
aI9
aa(lp2
I0
aI6
aI11
aI9
aI28
aI19
aI3
aI2
aI22
aI25
aI16
aI14
aI20
aI10
aI26
aI13
aI27
aI24
aI5
aI18
aI12
aI4
aI23
aI7
aI8
aI21
aI15
aI1
aI17
aa(lp3
I20
aI6
aI19
aI4
aI9
aI28
aI22
aI23
aI12
aI15
aI18
aI2
aI8
aI27
aI16
aI7
aI14
aI13
aI11
aI25
aI10
aI26
aI0
aI17
aI3
aI1
aI24
aI5
aI21
aa(lp4
I28
aI8
aI5
aI24
aI1
aI2
aI14
aI18
aI21
aI22
aI3
aI16
aI20
aI0
aI19
aI23
aI6
aI7
aI15
aI26
aI4
aI10
aI9
aI13
aI25
aI27
aI12
aI17
aI11
aa(lp5
I18
aI7
aI0
aI13
aI24
aI22
aI2
aI19
aI27
aI17
aI6
aI12
aI28
aI16
aI21
aI25
aI11
aI15
aI4
aI26
aI23
aI10
aI8
aI9
aI5
aI3
aI1
aI14
aI20
aa(lp6
I16
aI2
aI7
aI17
aI5
aI19
aI9
aI14
aI20
aI22
aI28
aI24
aI12
aI21
aI10
aI4
aI18
aI23
aI26
aI25
aI3
aI11
aI27
aI13
aI0
aI1
aI8
aI6
aI15
aa(lp7
I2
aI24
aI27
aI22
aI23
aI13
aI10
aI7
aI15
aI8
aI25
aI17
aI28
aI0
aI9
aI5
aI3
aI4
aI16
aI14
aI21
aI19
aI1
aI18
aI20
aI6
aI12
aI26
aI11
aa(lp8
I3
aI7
aI9
aI23
aI13
aI4
aI15
aI19
aI5
aI12
aI11
aI26
aI14
aI28
aI21
aI24
aI8
aI6
aI0
aI22
aI18
aI2
aI27
aI17
aI1
aI25
aI10
aI20
aI16
aa(lp9
I8
aI11
aI18
aI2
aI3
aI21
aI6
aI13
aI5
aI0
aI22
aI17
aI15
aI10
aI9
aI14
aI23
aI24
aI4
aI28
aI26
aI1
aI16
aI19
aI7
aI12
aI20
aI25
aI27
aa(lp10
I23
aI2
aI0
aI13
aI24
aI15
aI1
aI5
aI22
aI27
aI25
aI17
aI7
aI18
aI26
aI3
aI19
aI12
aI16
aI20
aI6
aI10
aI28
aI9
aI21
aI4
aI14
aI8
aI11
aa(lp11
I14
aI26
aI17
aI19
aI8
aI16
aI3
aI25
aI13
aI12
aI4
aI28
aI10
aI7
aI2
aI18
aI21
aI27
aI6
aI24
aI0
aI20
aI9
aI15
aI1
aI5
aI11
aI22
aI23
aa(lp12
I12
aI20
aI3
aI17
aI26
aI4
aI28
aI23
aI2
aI8
aI6
aI21
aI16
aI7
aI13
aI27
aI22
aI24
aI9
aI5
aI25
aI1
aI10
aI15
aI11
aI0
aI19
aI18
aI14
aa(lp13
I18
aI2
aI13
aI12
aI6
aI28
aI20
aI10
aI0
aI1
aI23
aI4
aI26
aI17
aI19
aI21
aI16
aI15
aI9
aI11
aI24
aI3
aI22
aI8
aI14
aI5
aI25
aI27
aI7
aa(lp14
I11
aI25
aI20
aI28
aI16
aI17
aI23
aI5
aI14
aI0
aI8
aI19
aI3
aI10
aI6
aI26
aI15
aI12
aI2
aI13
aI9
aI24
aI4
aI27
aI18
aI21
aI22
aI1
aI7
aa(lp15
I21
aI28
aI14
aI27
aI17
aI26
aI20
aI5
aI11
aI23
aI4
aI6
aI15
aI8
aI9
aI19
aI10
aI7
aI16
aI12
aI22
aI13
aI18
aI3
aI1
aI24
aI0
aI2
aI25
aa(lp16
I7
aI20
aI17
aI3
aI1
aI12
aI24
aI15
aI0
aI26
aI6
aI23
aI2
aI16
aI21
aI18
aI8
aI10
aI5
aI28
aI11
aI13
aI14
aI25
aI22
aI19
aI9
aI27
aI4
aa(lp17
I16
aI1
aI25
aI6
aI18
aI23
aI21
aI0
aI12
aI22
aI20
aI4
aI2
aI28
aI17
aI11
aI9
aI14
aI24
aI13
aI10
aI19
aI7
aI5
aI8
aI27
aI26
aI3
aI15
aa(lp18
I23
aI8
aI25
aI27
aI12
aI16
aI5
aI4
aI9
aI17
aI13
aI22
aI28
aI6
aI1
aI3
aI26
aI7
aI15
aI14
aI11
aI21
aI10
aI18
aI2
aI20
aI19
aI24
aI0
aa(lp19
I2
aI17
aI3
aI24
aI10
aI22
aI23
aI28
aI25
aI20
aI26
aI8
aI15
aI11
aI4
aI13
aI27
aI7
aI19
aI1
aI18
aI6
aI21
aI9
aI14
aI16
aI12
aI5
aI0
aa(lp20
I13
aI24
aI3
aI5
aI12
aI27
aI9
aI22
aI14
aI10
aI6
aI7
aI19
aI17
aI20
aI26
aI1
aI18
aI23
aI8
aI11
aI15
aI25
aI28
aI0
aI21
aI16
aI4
aI2
aa.