(lp0
(lp1
I24
aI10
aI18
aI0
aI17
aI1
aI6
aI19
aI22
aI15
aI2
aI20
aI13
aI14
aI16
aI3
aI28
aI9
aI8
aI25
aI27
aI7
aI5
aI12
aI11
aI26
aI21
aI23
aI4
aa(lp2
I5
aI0
aI16
aI3
aI10
aI7
aI24
aI13
aI1
aI6
aI19
aI4
aI26
aI21
aI25
aI23
aI2
aI17
aI22
aI11
aI12
aI9
aI15
aI28
aI14
aI18
aI8
aI27
aI20
aa(lp3
I4
aI10
aI16
aI5
aI7
aI12
aI8
aI18
aI17
aI9
aI13
aI27
aI14
aI11
aI25
aI28
aI19
aI1
aI3
aI23
aI22
aI26
aI6
aI2
aI21
aI0
aI20
aI15
aI24
aa(lp4
I24
aI11
aI9
aI16
aI28
aI0
aI5
aI14
aI18
aI22
aI20
aI15
aI12
aI25
aI19
aI27
aI4
aI10
aI17
aI3
aI21
aI13
aI8
aI7
aI23
aI6
aI2
aI1
aI26
aa(lp5
I18
aI24
aI19
aI27
aI7
aI22
aI21
aI13
aI0
aI2
aI14
aI26
aI25
aI12
aI1
aI8
aI11
aI5
aI28
aI9
aI15
aI23
aI20
aI4
aI6
aI16
aI3
aI10
aI17
aa(lp6
I17
aI16
aI0
aI25
aI19
aI24
aI6
aI9
aI10
aI15
aI3
aI12
aI26
aI14
aI28
aI21
aI1
aI22
aI2
aI27
aI4
aI5
aI7
aI23
aI20
aI13
aI8
aI11
aI18
aa(lp7
I26
aI2
aI5
aI4
aI15
aI24
aI10
aI0
aI14
aI27
aI17
aI16
aI28
aI22
aI7
aI12
aI19
aI13
aI8
aI25
aI21
aI18
aI1
aI9
aI20
aI23
aI3
aI6
aI11
aa(lp8
I4
aI16
aI0
aI7
aI10
aI6
aI20
aI17
aI1
aI24
aI25
aI8
aI14
aI19
aI28
aI11
aI22
aI26
aI2
aI3
aI21
aI18
aI5
aI23
aI13
aI12
aI9
aI15
aI27
aa(lp9
I17
aI25
aI2
aI8
aI1
aI15
aI7
aI18
aI6
aI10
aI19
aI28
aI27
aI20
aI9
aI16
aI11
aI12
aI24
aI23
aI5
aI13
aI4
aI0
aI14
aI26
aI22
aI21
aI3
aa(lp10
I8
aI27
aI2
aI13
aI9
aI24
aI4
aI7
aI22
aI0
aI16
aI20
aI19
aI6
aI25
aI11
aI14
aI15
aI18
aI21
aI5
aI26
aI1
aI10
aI28
aI17
aI23
aI3
aI12
aa(lp11
I27
aI14
aI24
aI17
aI15
aI13
aI8
aI22
aI25
aI3
aI18
aI4
aI11
aI6
aI9
aI7
aI20
aI1
aI0
aI12
aI21
aI2
aI19
aI10
aI23
aI5
aI26
aI16
aI28
aa(lp12
I11
aI12
aI17
aI20
aI21
aI13
aI25
aI4
aI18
aI27
aI6
aI1
aI15
aI5
aI0
aI9
aI3
aI8
aI19
aI7
aI24
aI16
aI2
aI23
aI22
aI26
aI10
aI14
aI28
aa(lp13
I3
aI16
aI12
aI23
aI21
aI14
aI1
aI24
aI15
aI7
aI2
aI17
aI28
aI20
aI0
aI19
aI6
aI26
aI22
aI13
aI11
aI10
aI4
aI25
aI27
aI8
aI9
aI18
aI5
aa(lp14
I20
aI13
aI25
aI9
aI5
aI16
aI7
aI14
aI6
aI12
aI11
aI10
aI19
aI22
aI8
aI24
aI4
aI23
aI28
aI26
aI1
aI17
aI18
aI15
aI3
aI21
aI2
aI27
aI0
aa(lp15
I28
aI11
aI3
aI2
aI13
aI17
aI1
aI9
aI12
aI20
aI4
aI22
aI14
aI0
aI15
aI16
aI10
aI24
aI6
aI25
aI21
aI27
aI26
aI18
aI8
aI7
aI23
aI5
aI19
aa(lp16
I22
aI28
aI27
aI18
aI17
aI5
aI8
aI19
aI6
aI2
aI25
aI20
aI4
aI16
aI7
aI0
aI26
aI9
aI13
aI24
aI23
aI3
aI10
aI12
aI15
aI1
aI21
aI14
aI11
aa(lp17
I25
aI18
aI27
aI7
aI2
aI19
aI20
aI28
aI14
aI17
aI9
aI10
aI21
aI5
aI3
aI0
aI6
aI13
aI11
aI16
aI24
aI8
aI12
aI23
aI4
aI15
aI1
aI22
aI26
aa(lp18
I17
aI12
aI25
aI24
aI23
aI14
aI11
aI15
aI9
aI18
aI1
aI19
aI7
aI4
aI8
aI21
aI22
aI27
aI10
aI16
aI5
aI26
aI6
aI28
aI3
aI13
aI0
aI2
aI20
aa(lp19
I17
aI1
aI20
aI0
aI15
aI5
aI2
aI7
aI13
aI25
aI23
aI26
aI6
aI19
aI16
aI12
aI24
aI28
aI27
aI3
aI10
aI4
aI18
aI22
aI11
aI21
aI9
aI8
aI14
aa(lp20
I5
aI1
aI12
aI14
aI9
aI15
aI0
aI27
aI18
aI21
aI24
aI22
aI8
aI3
aI10
aI25
aI7
aI19
aI6
aI28
aI20
aI4
aI23
aI16
aI11
aI17
aI2
aI26
aI13
aa.