(lp0
(lp1
I28
aI8
aI17
aI25
aI1
aI20
aI13
aI16
aI5
aI10
aI26
aI21
aI24
aI0
aI7
aI6
aI4
aI11
aI12
aI14
aI9
aI19
aI3
aI2
aI22
aI27
aI18
aI23
aI15
aa(lp2
I9
aI19
aI7
aI22
aI21
aI20
aI23
aI1
aI4
aI0
aI26
aI17
aI8
aI5
aI12
aI15
aI16
aI6
aI27
aI11
aI28
aI18
aI25
aI10
aI3
aI24
aI2
aI14
aI13
aa(lp3
I10
aI13
aI12
aI27
aI9
aI3
aI19
aI11
aI5
aI20
aI21
aI0
aI1
aI4
aI16
aI23
aI6
aI26
aI8
aI14
aI17
aI28
aI7
aI2
aI24
aI22
aI25
aI15
aI18
aa(lp4
I12
aI21
aI13
aI11
aI14
aI15
aI20
aI2
aI23
aI8
aI0
aI5
aI17
aI28
aI7
aI6
aI19
aI27
aI4
aI18
aI24
aI1
aI16
aI25
aI10
aI3
aI26
aI9
aI22
aa(lp5
I2
aI12
aI25
aI26
aI13
aI15
aI0
aI27
aI7
aI9
aI20
aI11
aI23
aI6
aI21
aI10
aI3
aI18
aI5
aI28
aI22
aI1
aI17
aI4
aI8
aI24
aI16
aI14
aI19
aa(lp6
I0
aI26
aI15
aI2
aI6
aI5
aI16
aI18
aI22
aI20
aI10
aI28
aI12
aI13
aI9
aI25
aI3
aI19
aI8
aI27
aI24
aI1
aI23
aI14
aI4
aI17
aI7
aI21
aI11
aa(lp7
I1
aI2
aI9
aI18
aI7
aI16
aI10
aI8
aI22
aI21
aI12
aI27
aI24
aI6
aI15
aI26
aI19
aI23
aI14
aI28
aI17
aI0
aI5
aI25
aI13
aI4
aI20
aI3
aI11
aa(lp8
I13
aI28
aI1
aI22
aI15
aI10
aI9
aI24
aI26
aI20
aI5
aI17
aI23
aI16
aI7
aI19
aI25
aI18
aI12
aI14
aI2
aI11
aI3
aI8
aI4
aI21
aI0
aI27
aI6
aa(lp9
I2
aI24
aI12
aI16
aI9
aI20
aI23
aI7
aI13
aI4
aI17
aI10
aI21
aI28
aI15
aI22
aI1
aI25
aI6
aI26
aI11
aI8
aI27
aI0
aI3
aI5
aI19
aI14
aI18
aa(lp10
I3
aI27
aI14
aI6
aI8
aI19
aI28
aI22
aI5
aI16
aI17
aI15
aI7
aI20
aI23
aI21
aI12
aI4
aI25
aI11
aI2
aI9
aI18
aI13
aI26
aI24
aI0
aI10
aI1
aa(lp11
I5
aI16
aI22
aI12
aI6
aI11
aI15
aI1
aI7
aI3
aI28
aI13
aI10
aI20
aI27
aI25
aI4
aI26
aI23
aI2
aI14
aI8
aI9
aI21
aI19
aI17
aI18
aI0
aI24
aa(lp12
I4
aI3
aI11
aI9
aI25
aI16
aI13
aI8
aI2
aI12
aI27
aI10
aI6
aI20
aI5
aI14
aI24
aI21
aI1
aI15
aI7
aI18
aI22
aI28
aI23
aI26
aI17
aI19
aI0
aa(lp13
I3
aI14
aI28
aI0
aI7
aI4
aI22
aI24
aI25
aI23
aI5
aI9
aI17
aI16
aI11
aI26
aI15
aI13
aI21
aI10
aI12
aI20
aI18
aI1
aI2
aI8
aI27
aI6
aI19
aa(lp14
I13
aI15
aI1
aI0
aI24
aI18
aI20
aI12
aI8
aI27
aI17
aI5
aI16
aI19
aI9
aI28
aI14
aI21
aI22
aI7
aI2
aI6
aI4
aI10
aI26
aI25
aI3
aI11
aI23
aa(lp15
I9
aI15
aI20
aI1
aI24
aI14
aI22
aI2
aI23
aI21
aI28
aI13
aI19
aI4
aI17
aI18
aI26
aI27
aI5
aI16
aI0
aI10
aI25
aI11
aI7
aI12
aI8
aI6
aI3
aa(lp16
I21
aI17
aI19
aI9
aI3
aI0
aI22
aI7
aI15
aI5
aI27
aI25
aI28
aI18
aI23
aI6
aI14
aI24
aI2
aI1
aI12
aI4
aI10
aI13
aI26
aI16
aI20
aI8
aI11
aa(lp17
I12
aI3
aI17
aI28
aI6
aI11
aI5
aI14
aI9
aI1
aI16
aI19
aI20
aI25
aI21
aI7
aI18
aI24
aI15
aI23
aI2
aI22
aI13
aI26
aI27
aI8
aI4
aI0
aI10
aa(lp18
I20
aI12
aI2
aI0
aI16
aI6
aI24
aI19
aI13
aI10
aI18
aI3
aI17
aI9
aI4
aI27
aI7
aI5
aI22
aI26
aI25
aI11
aI15
aI1
aI23
aI14
aI21
aI28
aI8
aa(lp19
I9
aI23
aI7
aI16
aI25
aI18
aI11
aI3
aI4
aI28
aI20
aI14
aI19
aI22
aI27
aI24
aI12
aI10
aI15
aI5
aI2
aI21
aI13
aI17
aI6
aI8
aI26
aI0
aI1
aa(lp20
I3
aI13
aI17
aI8
aI15
aI6
aI2
aI0
aI25
aI28
aI7
aI20
aI1
aI16
aI12
aI27
aI26
aI10
aI4
aI14
aI11
aI24
aI5
aI22
aI18
aI19
aI23
aI9
aI21
aa.