(lp0
(lp1
I8
aI9
aI6
aI4
aI7
aI0
aI3
aI2
aI5
aI1
aa(lp2
I6
aI0
aI8
aI4
aI3
aI2
aI7
aI5
aI1
aI9
aa(lp3
I6
aI1
aI0
aI2
aI5
aI4
aI9
aI8
aI7
aI3
aa(lp4
I2
aI3
aI7
aI6
aI5
aI8
aI9
aI0
aI4
aI1
aa(lp5
I0
aI2
aI9
aI8
aI1
aI4
aI3
aI5
aI6
aI7
aa(lp6
I4
aI9
aI7
aI1
aI0
aI6
aI3
aI8
aI5
aI2
aa(lp7
I6
aI3
aI8
aI5
aI0
aI1
aI4
aI9
aI7
aI2
aa(lp8
I1
aI4
aI8
aI3
aI2
aI6
aI5
aI9
aI0
aI7
aa(lp9
I1
aI9
aI0
aI8
aI3
aI7
aI2
aI4
aI6
aI5
aa(lp10
I8
aI7
aI3
aI6
aI2
aI1
aI5
aI0
aI9
aI4
aa(lp11
I4
aI5
aI2
aI9
aI6
aI7
aI0
aI1
aI3
aI8
aa(lp12
I0
aI4
aI5
aI6
aI9
aI8
aI1
aI3
aI2
aI7
aa(lp13
I3
aI9
aI8
aI2
aI7
aI0
aI4
aI1
aI5
aI6
aa(lp14
I9
aI4
aI8
aI1
aI3
aI0
aI7
aI5
aI6
aI2
aa(lp15
I8
aI6
aI4
aI1
aI3
aI5
aI7
aI0
aI2
aI9
aa(lp16
I5
aI2
aI9
aI0
aI8
aI7
aI4
aI3
aI1
aI6
aa(lp17
I4
aI3
aI7
aI5
aI2
aI9
aI6
aI8
aI0
aI1
aa(lp18
I3
aI4
aI2
aI7
aI6
aI1
aI0
aI8
aI9
aI5
aa(lp19
I5
aI7
aI4
aI0
aI2
aI8
aI3
aI6
aI9
aI1
aa(lp20
I4
aI5
aI2
aI6
aI7
aI0
aI8
aI1
aI9
aI3
aa.