(lp0
(lp1
I17
aI22
aI4
aI23
aI1
aI5
aI6
aI15
aI14
aI16
aI21
aI13
aI10
aI18
aI11
aI20
aI3
aI7
aI8
aI0
aI12
aI19
aI2
aI9
aa(lp2
I16
aI15
aI18
aI9
aI8
aI3
aI14
aI20
aI2
aI21
aI7
aI23
aI0
aI11
aI19
aI12
aI10
aI1
aI13
aI17
aI22
aI4
aI5
aI6
aa(lp3
I5
aI21
aI14
aI10
aI19
aI4
aI13
aI7
aI17
aI15
aI8
aI1
aI12
aI9
aI6
aI16
aI22
aI3
aI11
aI0
aI20
aI23
aI2
aI18
aa(lp4
I12
aI19
aI11
aI8
aI4
aI1
aI13
aI18
aI9
aI22
aI5
aI0
aI3
aI10
aI7
aI15
aI17
aI6
aI20
aI23
aI21
aI16
aI2
aI14
aa(lp5
I17
aI4
aI12
aI0
aI20
aI15
aI8
aI3
aI23
aI9
aI1
aI2
aI5
aI19
aI13
aI11
aI22
aI14
aI10
aI7
aI21
aI6
aI16
aI18
aa(lp6
I5
aI16
aI18
aI4
aI15
aI10
aI1
aI19
aI22
aI23
aI21
aI2
aI9
aI12
aI13
aI17
aI0
aI3
aI11
aI7
aI14
aI6
aI20
aI8
aa(lp7
I1
aI8
aI6
aI7
aI16
aI18
aI23
aI13
aI12
aI4
aI15
aI19
aI10
aI17
aI0
aI9
aI20
aI21
aI22
aI2
aI11
aI5
aI3
aI14
aa(lp8
I5
aI11
aI15
aI7
aI2
aI21
aI3
aI17
aI0
aI6
aI23
aI14
aI12
aI1
aI19
aI13
aI16
aI8
aI18
aI22
aI4
aI10
aI9
aI20
aa(lp9
I21
aI0
aI10
aI5
aI16
aI14
aI7
aI4
aI1
aI13
aI3
aI20
aI2
aI15
aI23
aI8
aI19
aI12
aI9
aI11
aI22
aI6
aI17
aI18
aa(lp10
I22
aI10
aI23
aI8
aI19
aI18
aI14
aI7
aI17
aI1
aI3
aI0
aI5
aI11
aI13
aI6
aI9
aI12
aI2
aI16
aI21
aI4
aI15
aI20
aa(lp11
I22
aI4
aI6
aI10
aI20
aI19
aI18
aI14
aI13
aI12
aI7
aI5
aI23
aI17
aI1
aI3
aI16
aI0
aI9
aI8
aI21
aI11
aI15
aI2
aa(lp12
I5
aI7
aI0
aI23
aI20
aI21
aI10
aI15
aI9
aI19
aI6
aI13
aI8
aI17
aI11
aI16
aI18
aI2
aI4
aI1
aI12
aI14
aI3
aI22
aa(lp13
I22
aI23
aI20
aI8
aI7
aI10
aI9
aI5
aI14
aI1
aI16
aI11
aI2
aI12
aI3
aI17
aI21
aI13
aI6
aI4
aI0
aI15
aI19
aI18
aa(lp14
I11
aI1
aI3
aI2
aI17
aI6
aI5
aI0
aI20
aI18
aI14
aI21
aI4
aI12
aI13
aI16
aI9
aI19
aI7
aI8
aI15
aI23
aI22
aI10
aa(lp15
I0
aI1
aI8
aI2
aI18
aI15
aI3
aI20
aI11
aI16
aI5
aI12
aI21
aI13
aI9
aI14
aI22
aI19
aI10
aI23
aI17
aI7
aI6
aI4
aa(lp16
I19
aI4
aI12
aI18
aI10
aI9
aI7
aI6
aI11
aI16
aI17
aI21
aI23
aI3
aI5
aI2
aI22
aI0
aI1
aI13
aI14
aI20
aI15
aI8
aa(lp17
I16
aI11
aI3
aI17
aI1
aI0
aI20
aI15
aI12
aI7
aI22
aI21
aI13
aI23
aI2
aI6
aI19
aI5
aI18
aI8
aI14
aI4
aI9
aI10
aa(lp18
I13
aI18
aI14
aI3
aI9
aI23
aI22
aI4
aI2
aI21
aI6
aI17
aI19
aI1
aI20
aI5
aI16
aI8
aI12
aI7
aI0
aI10
aI11
aI15
aa(lp19
I22
aI16
aI19
aI10
aI2
aI9
aI15
aI23
aI17
aI6
aI3
aI12
aI20
aI18
aI11
aI1
aI5
aI14
aI21
aI4
aI7
aI13
aI8
aI0
aa(lp20
I6
aI21
aI9
aI3
aI14
aI5
aI4
aI15
aI16
aI8
aI17
aI23
aI18
aI12
aI19
aI7
aI13
aI2
aI22
aI10
aI0
aI1
aI20
aI11
aa.