(lp0
(lp1
I2
aI11
aI3
aI7
aI13
aI9
aI10
aI0
aI4
aI14
aI6
aI1
aI5
aI12
aI8
aa(lp2
I2
aI12
aI4
aI1
aI13
aI9
aI7
aI8
aI11
aI14
aI5
aI10
aI6
aI3
aI0
aa(lp3
I0
aI14
aI8
aI3
aI7
aI6
aI4
aI13
aI5
aI9
aI10
aI1
aI12
aI11
aI2
aa(lp4
I3
aI11
aI7
aI8
aI14
aI0
aI9
aI10
aI12
aI4
aI6
aI1
aI13
aI2
aI5
aa(lp5
I10
aI1
aI14
aI0
aI9
aI3
aI2
aI4
aI6
aI8
aI5
aI12
aI7
aI11
aI13
aa(lp6
I7
aI8
aI2
aI1
aI11
aI9
aI12
aI10
aI5
aI0
aI4
aI13
aI6
aI14
aI3
aa(lp7
I3
aI1
aI11
aI12
aI8
aI14
aI5
aI0
aI7
aI10
aI2
aI13
aI6
aI9
aI4
aa(lp8
I12
aI8
aI2
aI5
aI3
aI9
aI11
aI0
aI7
aI1
aI6
aI14
aI4
aI13
aI10
aa(lp9
I11
aI5
aI7
aI14
aI1
aI12
aI13
aI9
aI3
aI2
aI6
aI10
aI4
aI0
aI8
aa(lp10
I11
aI14
aI2
aI10
aI7
aI13
aI6
aI1
aI3
aI8
aI9
aI0
aI5
aI4
aI12
aa(lp11
I6
aI1
aI10
aI0
aI9
aI5
aI8
aI2
aI7
aI3
aI12
aI13
aI14
aI11
aI4
aa(lp12
I9
aI11
aI4
aI10
aI13
aI0
aI3
aI12
aI7
aI2
aI8
aI6
aI1
aI14
aI5
aa(lp13
I13
aI3
aI9
aI0
aI1
aI4
aI11
aI8
aI5
aI7
aI2
aI14
aI12
aI6
aI10
aa(lp14
I6
aI3
aI9
aI1
aI11
aI12
aI13
aI10
aI5
aI8
aI0
aI2
aI14
aI4
aI7
aa(lp15
I12
aI13
aI2
aI0
aI6
aI5
aI14
aI1
aI8
aI9
aI7
aI4
aI10
aI3
aI11
aa(lp16
I9
aI7
aI6
aI14
aI5
aI0
aI13
aI1
aI12
aI10
aI3
aI2
aI4
aI11
aI8
aa(lp17
I7
aI14
aI2
aI12
aI10
aI6
aI1
aI11
aI8
aI5
aI9
aI0
aI13
aI3
aI4
aa(lp18
I13
aI4
aI11
aI12
aI5
aI0
aI7
aI9
aI10
aI1
aI14
aI6
aI8
aI3
aI2
aa(lp19
I6
aI13
aI3
aI5
aI0
aI4
aI2
aI14
aI10
aI8
aI9
aI12
aI1
aI11
aI7
aa(lp20
I11
aI0
aI5
aI4
aI12
aI14
aI3
aI13
aI1
aI7
aI8
aI10
aI9
aI6
aI2
aa.