(lp0
(lp1
I6
aI14
aI20
aI13
aI12
aI16
aI19
aI22
aI21
aI17
aI2
aI11
aI4
aI8
aI9
aI7
aI10
aI23
aI24
aI0
aI3
aI15
aI18
aI1
aI5
aa(lp2
I23
aI5
aI21
aI14
aI10
aI7
aI1
aI20
aI8
aI13
aI0
aI6
aI11
aI19
aI18
aI24
aI15
aI16
aI17
aI22
aI12
aI2
aI3
aI4
aI9
aa(lp3
I23
aI10
aI11
aI9
aI4
aI7
aI17
aI8
aI12
aI19
aI22
aI2
aI13
aI18
aI21
aI16
aI24
aI14
aI15
aI3
aI0
aI5
aI6
aI1
aI20
aa(lp4
I22
aI11
aI6
aI0
aI15
aI21
aI24
aI13
aI10
aI20
aI14
aI5
aI19
aI8
aI9
aI7
aI2
aI4
aI17
aI1
aI3
aI16
aI18
aI23
aI12
aa(lp5
I8
aI16
aI5
aI6
aI23
aI0
aI10
aI2
aI17
aI18
aI14
aI7
aI22
aI13
aI11
aI12
aI9
aI19
aI3
aI4
aI15
aI20
aI24
aI1
aI21
aa(lp6
I6
aI13
aI16
aI15
aI10
aI21
aI23
aI1
aI5
aI20
aI18
aI24
aI7
aI11
aI9
aI8
aI14
aI22
aI3
aI17
aI2
aI19
aI0
aI4
aI12
aa(lp7
I15
aI13
aI2
aI16
aI22
aI6
aI9
aI11
aI20
aI3
aI7
aI5
aI17
aI24
aI18
aI23
aI19
aI1
aI8
aI4
aI21
aI12
aI0
aI14
aI10
aa(lp8
I22
aI11
aI15
aI2
aI23
aI16
aI13
aI7
aI1
aI19
aI21
aI9
aI0
aI4
aI14
aI24
aI6
aI8
aI10
aI5
aI17
aI12
aI3
aI20
aI18
aa(lp9
I7
aI2
aI17
aI15
aI12
aI21
aI23
aI4
aI22
aI20
aI8
aI6
aI14
aI18
aI3
aI19
aI13
aI1
aI16
aI10
aI11
aI0
aI9
aI24
aI5
aa(lp10
I8
aI16
aI20
aI5
aI6
aI7
aI4
aI9
aI19
aI3
aI12
aI13
aI23
aI1
aI17
aI21
aI18
aI11
aI10
aI22
aI24
aI15
aI2
aI0
aI14
aa(lp11
I8
aI16
aI1
aI12
aI22
aI4
aI21
aI20
aI14
aI10
aI2
aI19
aI5
aI13
aI15
aI11
aI3
aI17
aI6
aI9
aI18
aI24
aI23
aI0
aI7
aa(lp12
I3
aI22
aI1
aI13
aI17
aI19
aI18
aI5
aI0
aI10
aI9
aI24
aI21
aI6
aI12
aI16
aI14
aI2
aI23
aI8
aI20
aI4
aI11
aI15
aI7
aa(lp13
I18
aI22
aI12
aI7
aI0
aI17
aI20
aI11
aI5
aI13
aI2
aI19
aI3
aI10
aI1
aI15
aI16
aI24
aI6
aI21
aI4
aI23
aI9
aI8
aI14
aa(lp14
I2
aI9
aI16
aI24
aI7
aI17
aI4
aI15
aI6
aI14
aI20
aI3
aI12
aI10
aI1
aI19
aI5
aI8
aI18
aI11
aI23
aI21
aI0
aI13
aI22
aa(lp15
I17
aI7
aI20
aI11
aI12
aI22
aI21
aI15
aI23
aI14
aI13
aI10
aI5
aI16
aI2
aI8
aI24
aI4
aI6
aI18
aI19
aI9
aI3
aI0
aI1
aa(lp16
I13
aI5
aI6
aI19
aI22
aI11
aI24
aI8
aI14
aI10
aI9
aI15
aI17
aI7
aI0
aI3
aI4
aI23
aI12
aI1
aI16
aI20
aI2
aI21
aI18
aa(lp17
I24
aI8
aI20
aI6
aI0
aI16
aI7
aI22
aI15
aI17
aI3
aI1
aI9
aI4
aI11
aI19
aI10
aI5
aI13
aI21
aI12
aI2
aI18
aI23
aI14
aa(lp18
I13
aI17
aI3
aI11
aI18
aI4
aI10
aI15
aI6
aI1
aI12
aI21
aI14
aI0
aI22
aI16
aI19
aI20
aI24
aI2
aI23
aI8
aI9
aI5
aI7
aa(lp19
I14
aI4
aI7
aI5
aI16
aI11
aI2
aI13
aI23
aI10
aI21
aI3
aI12
aI15
aI18
aI0
aI19
aI6
aI24
aI20
aI8
aI22
aI17
aI1
aI9
aa(lp20
I8
aI14
aI12
aI16
aI2
aI5
aI17
aI15
aI22
aI23
aI18
aI0
aI7
aI24
aI21
aI4
aI13
aI19
aI1
aI10
aI9
aI20
aI3
aI6
aI11
aa.