(lp0
(lp1
I5
aI9
aI12
aI8
aI6
aI23
aI11
aI13
aI17
aI7
aI4
aI18
aI14
aI22
aI20
aI10
aI25
aI0
aI16
aI3
aI24
aI26
aI1
aI2
aI15
aI21
aI19
aa(lp2
I0
aI1
aI24
aI19
aI11
aI6
aI20
aI26
aI16
aI17
aI21
aI25
aI23
aI15
aI22
aI14
aI12
aI7
aI10
aI9
aI13
aI8
aI4
aI18
aI5
aI2
aI3
aa(lp3
I23
aI8
aI11
aI7
aI10
aI6
aI15
aI3
aI22
aI1
aI19
aI9
aI4
aI26
aI17
aI18
aI20
aI25
aI12
aI0
aI24
aI13
aI16
aI14
aI2
aI21
aI5
aa(lp4
I3
aI5
aI15
aI0
aI22
aI13
aI1
aI12
aI16
aI20
aI11
aI23
aI25
aI8
aI2
aI10
aI18
aI14
aI6
aI7
aI9
aI21
aI4
aI17
aI26
aI24
aI19
aa(lp5
I3
aI22
aI8
aI1
aI11
aI25
aI13
aI15
aI0
aI16
aI26
aI17
aI10
aI9
aI24
aI5
aI6
aI14
aI2
aI21
aI18
aI12
aI4
aI20
aI7
aI23
aI19
aa(lp6
I15
aI11
aI25
aI5
aI4
aI18
aI19
aI24
aI16
aI9
aI23
aI1
aI17
aI2
aI13
aI0
aI20
aI8
aI21
aI3
aI12
aI6
aI10
aI7
aI22
aI26
aI14
aa(lp7
I12
aI25
aI5
aI3
aI9
aI22
aI2
aI17
aI7
aI4
aI8
aI0
aI15
aI23
aI19
aI18
aI21
aI6
aI1
aI13
aI16
aI14
aI24
aI11
aI10
aI26
aI20
aa(lp8
I1
aI5
aI17
aI12
aI20
aI18
aI22
aI13
aI2
aI16
aI3
aI14
aI8
aI26
aI15
aI24
aI21
aI0
aI6
aI11
aI25
aI10
aI9
aI19
aI23
aI4
aI7
aa(lp9
I23
aI17
aI25
aI3
aI22
aI2
aI10
aI19
aI18
aI12
aI6
aI14
aI15
aI5
aI24
aI26
aI11
aI0
aI8
aI1
aI4
aI9
aI16
aI13
aI7
aI20
aI21
aa(lp10
I6
aI22
aI17
aI0
aI1
aI26
aI2
aI18
aI15
aI10
aI12
aI20
aI19
aI9
aI14
aI4
aI7
aI3
aI5
aI11
aI25
aI16
aI24
aI23
aI8
aI21
aI13
aa(lp11
I11
aI25
aI6
aI24
aI7
aI21
aI0
aI14
aI23
aI3
aI1
aI22
aI18
aI15
aI26
aI17
aI16
aI4
aI20
aI19
aI9
aI2
aI10
aI5
aI12
aI8
aI13
aa(lp12
I19
aI10
aI22
aI7
aI2
aI1
aI20
aI12
aI6
aI14
aI3
aI5
aI11
aI17
aI16
aI13
aI15
aI26
aI21
aI9
aI8
aI0
aI24
aI23
aI18
aI25
aI4
aa(lp13
I0
aI2
aI24
aI15
aI19
aI11
aI21
aI16
aI4
aI6
aI13
aI8
aI10
aI17
aI18
aI14
aI26
aI7
aI5
aI25
aI9
aI1
aI20
aI3
aI22
aI23
aI12
aa(lp14
I6
aI20
aI12
aI11
aI3
aI4
aI13
aI7
aI10
aI18
aI15
aI22
aI16
aI8
aI21
aI26
aI1
aI17
aI24
aI0
aI14
aI9
aI2
aI23
aI19
aI25
aI5
aa(lp15
I13
aI17
aI6
aI24
aI0
aI5
aI4
aI23
aI15
aI19
aI18
aI14
aI3
aI12
aI8
aI1
aI26
aI25
aI9
aI20
aI10
aI7
aI2
aI11
aI22
aI21
aI16
aa(lp16
I23
aI24
aI15
aI1
aI16
aI3
aI17
aI0
aI2
aI13
aI19
aI26
aI10
aI22
aI14
aI25
aI4
aI7
aI9
aI18
aI8
aI6
aI11
aI5
aI20
aI21
aI12
aa(lp17
I5
aI6
aI15
aI4
aI23
aI7
aI11
aI19
aI2
aI14
aI8
aI21
aI26
aI25
aI20
aI12
aI18
aI0
aI24
aI16
aI9
aI22
aI17
aI3
aI13
aI10
aI1
aa(lp18
I19
aI12
aI11
aI0
aI22
aI9
aI23
aI6
aI3
aI20
aI2
aI17
aI7
aI26
aI25
aI18
aI15
aI21
aI24
aI4
aI16
aI10
aI1
aI14
aI8
aI13
aI5
aa(lp19
I17
aI23
aI19
aI2
aI22
aI11
aI10
aI14
aI1
aI7
aI0
aI5
aI24
aI8
aI20
aI25
aI4
aI16
aI15
aI18
aI3
aI21
aI12
aI26
aI13
aI9
aI6
aa(lp20
I2
aI25
aI13
aI10
aI24
aI26
aI21
aI3
aI9
aI12
aI16
aI6
aI20
aI15
aI0
aI1
aI4
aI7
aI22
aI18
aI17
aI23
aI14
aI5
aI8
aI11
aI19
aa.