(lp0
(lp1
I20
aI24
aI14
aI21
aI9
aI16
aI19
aI1
aI0
aI2
aI7
aI15
aI8
aI18
aI22
aI11
aI4
aI26
aI5
aI27
aI6
aI23
aI10
aI3
aI25
aI13
aI17
aI12
aa(lp2
I2
aI17
aI15
aI6
aI14
aI7
aI12
aI25
aI22
aI18
aI24
aI4
aI8
aI23
aI11
aI3
aI5
aI20
aI13
aI21
aI9
aI10
aI16
aI1
aI26
aI0
aI27
aI19
aa(lp3
I8
aI0
aI16
aI18
aI24
aI10
aI20
aI21
aI11
aI5
aI13
aI1
aI14
aI15
aI17
aI22
aI9
aI23
aI19
aI7
aI25
aI4
aI3
aI6
aI2
aI27
aI26
aI12
aa(lp4
I18
aI12
aI3
aI4
aI14
aI13
aI21
aI9
aI17
aI22
aI1
aI23
aI25
aI10
aI6
aI0
aI11
aI16
aI27
aI8
aI2
aI19
aI24
aI20
aI15
aI7
aI5
aI26
aa(lp5
I21
aI9
aI10
aI11
aI13
aI20
aI26
aI16
aI0
aI17
aI22
aI24
aI8
aI5
aI7
aI6
aI27
aI15
aI19
aI23
aI25
aI18
aI4
aI1
aI14
aI3
aI12
aI2
aa(lp6
I20
aI13
aI26
aI21
aI19
aI16
aI1
aI7
aI11
aI23
aI3
aI5
aI9
aI24
aI12
aI25
aI27
aI10
aI15
aI14
aI8
aI0
aI18
aI6
aI4
aI2
aI22
aI17
aa(lp7
I7
aI14
aI10
aI18
aI23
aI6
aI2
aI4
aI3
aI26
aI8
aI25
aI9
aI22
aI21
aI12
aI5
aI0
aI1
aI13
aI16
aI19
aI24
aI11
aI17
aI20
aI27
aI15
aa(lp8
I0
aI14
aI12
aI16
aI17
aI20
aI6
aI10
aI9
aI7
aI2
aI22
aI25
aI13
aI3
aI27
aI23
aI18
aI8
aI15
aI21
aI1
aI4
aI11
aI19
aI26
aI5
aI24
aa(lp9
I13
aI4
aI10
aI8
aI22
aI14
aI16
aI27
aI7
aI21
aI2
aI26
aI1
aI0
aI18
aI19
aI17
aI25
aI12
aI3
aI15
aI24
aI6
aI5
aI11
aI23
aI20
aI9
aa(lp10
I20
aI1
aI4
aI26
aI23
aI19
aI13
aI0
aI24
aI22
aI16
aI21
aI12
aI15
aI5
aI7
aI3
aI17
aI18
aI6
aI2
aI8
aI10
aI9
aI25
aI11
aI14
aI27
aa(lp11
I26
aI4
aI16
aI5
aI24
aI6
aI7
aI10
aI22
aI9
aI3
aI17
aI21
aI23
aI11
aI12
aI19
aI20
aI8
aI2
aI18
aI13
aI25
aI15
aI1
aI14
aI0
aI27
aa(lp12
I13
aI15
aI17
aI8
aI10
aI9
aI12
aI19
aI6
aI23
aI20
aI25
aI24
aI22
aI11
aI4
aI21
aI26
aI3
aI16
aI2
aI14
aI0
aI18
aI5
aI1
aI7
aI27
aa(lp13
I13
aI6
aI9
aI17
aI27
aI26
aI15
aI14
aI5
aI1
aI22
aI11
aI10
aI4
aI18
aI7
aI0
aI12
aI19
aI21
aI23
aI2
aI25
aI24
aI8
aI20
aI3
aI16
aa(lp14
I6
aI22
aI2
aI25
aI5
aI1
aI20
aI8
aI11
aI16
aI7
aI4
aI12
aI19
aI18
aI24
aI9
aI13
aI0
aI3
aI26
aI10
aI21
aI23
aI14
aI27
aI17
aI15
aa(lp15
I26
aI19
aI4
aI0
aI5
aI17
aI25
aI11
aI22
aI14
aI27
aI21
aI1
aI9
aI13
aI18
aI2
aI23
aI6
aI12
aI24
aI20
aI8
aI15
aI10
aI3
aI7
aI16
aa(lp16
I1
aI18
aI3
aI24
aI23
aI26
aI5
aI11
aI15
aI4
aI9
aI7
aI27
aI22
aI6
aI16
aI2
aI17
aI10
aI19
aI14
aI20
aI21
aI12
aI13
aI8
aI25
aI0
aa(lp17
I17
aI21
aI0
aI6
aI22
aI14
aI9
aI13
aI23
aI10
aI25
aI18
aI24
aI12
aI26
aI2
aI16
aI15
aI1
aI3
aI19
aI11
aI20
aI5
aI7
aI4
aI8
aI27
aa(lp18
I6
aI19
aI13
aI17
aI21
aI16
aI0
aI20
aI10
aI7
aI14
aI1
aI15
aI8
aI11
aI22
aI5
aI4
aI12
aI3
aI9
aI23
aI24
aI2
aI25
aI27
aI26
aI18
aa(lp19
I5
aI20
aI11
aI26
aI9
aI27
aI18
aI15
aI13
aI21
aI0
aI3
aI4
aI22
aI14
aI16
aI6
aI7
aI1
aI25
aI19
aI12
aI10
aI8
aI24
aI23
aI17
aI2
aa(lp20
I17
aI11
aI9
aI21
aI8
aI3
aI6
aI0
aI15
aI7
aI12
aI14
aI10
aI19
aI16
aI26
aI22
aI25
aI13
aI20
aI1
aI2
aI27
aI18
aI24
aI5
aI4
aI23
aa.