(lp0
(lp1
I15
aI23
aI12
aI10
aI22
aI3
aI6
aI18
aI20
aI24
aI21
aI8
aI7
aI11
aI16
aI25
aI2
aI14
aI13
aI19
aI9
aI1
aI17
aI5
aI4
aI0
aa(lp2
I18
aI7
aI3
aI12
aI6
aI11
aI16
aI1
aI22
aI23
aI14
aI25
aI4
aI15
aI21
aI24
aI5
aI8
aI2
aI17
aI20
aI0
aI13
aI19
aI10
aI9
aa(lp3
I22
aI19
aI18
aI20
aI7
aI14
aI1
aI13
aI25
aI11
aI24
aI0
aI8
aI15
aI3
aI12
aI2
aI21
aI6
aI17
aI5
aI23
aI16
aI9
aI10
aI4
aa(lp4
I5
aI7
aI0
aI8
aI16
aI25
aI9
aI24
aI3
aI10
aI20
aI15
aI18
aI2
aI19
aI1
aI13
aI21
aI11
aI12
aI22
aI17
aI6
aI23
aI14
aI4
aa(lp5
I22
aI4
aI0
aI10
aI1
aI13
aI20
aI25
aI9
aI23
aI15
aI6
aI14
aI8
aI2
aI16
aI21
aI24
aI17
aI19
aI3
aI5
aI12
aI18
aI7
aI11
aa(lp6
I17
aI6
aI7
aI2
aI25
aI1
aI0
aI5
aI11
aI10
aI4
aI15
aI20
aI8
aI3
aI19
aI18
aI21
aI16
aI12
aI9
aI23
aI22
aI13
aI14
aI24
aa(lp7
I8
aI7
aI21
aI5
aI24
aI16
aI20
aI10
aI19
aI2
aI11
aI15
aI3
aI22
aI9
aI1
aI12
aI18
aI6
aI0
aI23
aI14
aI25
aI13
aI4
aI17
aa(lp8
I12
aI23
aI1
aI7
aI3
aI22
aI11
aI17
aI21
aI19
aI14
aI8
aI2
aI16
aI18
aI6
aI13
aI24
aI20
aI25
aI15
aI5
aI9
aI4
aI0
aI10
aa(lp9
I8
aI20
aI13
aI18
aI4
aI15
aI14
aI10
aI17
aI12
aI7
aI22
aI24
aI2
aI3
aI5
aI0
aI19
aI11
aI25
aI16
aI1
aI23
aI21
aI6
aI9
aa(lp10
I20
aI5
aI0
aI23
aI14
aI12
aI7
aI15
aI25
aI21
aI19
aI8
aI13
aI9
aI1
aI16
aI24
aI11
aI10
aI6
aI2
aI22
aI18
aI4
aI17
aI3
aa(lp11
I23
aI21
aI2
aI1
aI8
aI3
aI6
aI10
aI9
aI18
aI14
aI17
aI11
aI25
aI5
aI7
aI0
aI19
aI20
aI13
aI15
aI24
aI16
aI4
aI12
aI22
aa(lp12
I10
aI0
aI21
aI25
aI23
aI22
aI16
aI17
aI8
aI14
aI5
aI7
aI2
aI24
aI4
aI19
aI20
aI1
aI18
aI12
aI11
aI3
aI6
aI15
aI13
aI9
aa(lp13
I16
aI13
aI6
aI22
aI9
aI20
aI19
aI23
aI10
aI15
aI25
aI17
aI2
aI1
aI3
aI21
aI0
aI14
aI24
aI18
aI7
aI11
aI12
aI8
aI5
aI4
aa(lp14
I13
aI24
aI17
aI4
aI3
aI21
aI5
aI6
aI18
aI9
aI16
aI20
aI2
aI19
aI0
aI12
aI10
aI23
aI14
aI8
aI11
aI7
aI22
aI1
aI15
aI25
aa(lp15
I6
aI3
aI18
aI13
aI8
aI24
aI9
aI20
aI14
aI16
aI15
aI1
aI4
aI2
aI5
aI10
aI11
aI23
aI22
aI19
aI12
aI21
aI7
aI25
aI0
aI17
aa(lp16
I0
aI8
aI23
aI13
aI12
aI21
aI15
aI1
aI22
aI6
aI19
aI17
aI4
aI16
aI14
aI18
aI2
aI20
aI7
aI24
aI11
aI5
aI10
aI25
aI3
aI9
aa(lp17
I13
aI7
aI8
aI5
aI11
aI18
aI3
aI16
aI21
aI10
aI2
aI17
aI12
aI19
aI1
aI6
aI15
aI14
aI25
aI0
aI20
aI22
aI23
aI4
aI24
aI9
aa(lp18
I4
aI6
aI14
aI21
aI22
aI8
aI24
aI2
aI19
aI11
aI17
aI13
aI9
aI20
aI0
aI16
aI10
aI12
aI1
aI7
aI23
aI5
aI15
aI25
aI18
aI3
aa(lp19
I15
aI10
aI5
aI9
aI7
aI18
aI19
aI23
aI0
aI2
aI16
aI17
aI12
aI20
aI3
aI25
aI21
aI11
aI24
aI14
aI6
aI13
aI1
aI4
aI8
aI22
aa(lp20
I10
aI22
aI6
aI7
aI2
aI12
aI8
aI14
aI16
aI24
aI20
aI3
aI4
aI5
aI21
aI13
aI0
aI15
aI1
aI9
aI19
aI25
aI18
aI23
aI11
aI17
aa.