(lp0
(lp1
I21
aI5
aI15
aI13
aI7
aI2
aI19
aI3
aI11
aI4
aI10
aI1
aI14
aI8
aI22
aI0
aI16
aI20
aI12
aI9
aI6
aI18
aI17
aa(lp2
I22
aI16
aI20
aI8
aI10
aI6
aI3
aI1
aI5
aI13
aI18
aI15
aI19
aI2
aI9
aI4
aI17
aI21
aI14
aI11
aI0
aI7
aI12
aa(lp3
I14
aI10
aI19
aI15
aI0
aI6
aI3
aI21
aI12
aI11
aI9
aI22
aI8
aI4
aI18
aI7
aI17
aI16
aI1
aI5
aI2
aI20
aI13
aa(lp4
I11
aI4
aI17
aI15
aI19
aI0
aI18
aI20
aI22
aI9
aI8
aI21
aI2
aI12
aI3
aI1
aI16
aI13
aI5
aI7
aI6
aI14
aI10
aa(lp5
I5
aI10
aI11
aI21
aI15
aI4
aI8
aI7
aI17
aI14
aI9
aI0
aI20
aI13
aI3
aI22
aI2
aI19
aI18
aI1
aI6
aI16
aI12
aa(lp6
I21
aI22
aI7
aI5
aI17
aI2
aI9
aI3
aI8
aI18
aI19
aI20
aI10
aI6
aI12
aI14
aI16
aI4
aI15
aI0
aI1
aI13
aI11
aa(lp7
I17
aI2
aI11
aI10
aI3
aI14
aI18
aI7
aI15
aI20
aI13
aI6
aI22
aI16
aI8
aI4
aI0
aI21
aI19
aI9
aI1
aI5
aI12
aa(lp8
I8
aI4
aI10
aI16
aI0
aI17
aI19
aI15
aI9
aI21
aI12
aI1
aI11
aI2
aI13
aI22
aI5
aI3
aI20
aI7
aI6
aI18
aI14
aa(lp9
I0
aI21
aI14
aI18
aI1
aI3
aI7
aI9
aI13
aI16
aI8
aI6
aI22
aI19
aI17
aI20
aI15
aI12
aI5
aI2
aI4
aI10
aI11
aa(lp10
I2
aI18
aI15
aI11
aI17
aI16
aI4
aI12
aI14
aI10
aI13
aI22
aI8
aI6
aI1
aI21
aI3
aI9
aI0
aI5
aI19
aI7
aI20
aa(lp11
I21
aI12
aI3
aI16
aI15
aI7
aI6
aI17
aI18
aI1
aI19
aI5
aI0
aI13
aI11
aI22
aI20
aI10
aI14
aI8
aI9
aI4
aI2
aa(lp12
I2
aI18
aI16
aI12
aI10
aI9
aI4
aI14
aI5
aI19
aI3
aI0
aI20
aI11
aI8
aI13
aI21
aI22
aI7
aI17
aI6
aI1
aI15
aa(lp13
I11
aI4
aI19
aI13
aI22
aI20
aI3
aI10
aI16
aI6
aI14
aI1
aI0
aI17
aI18
aI9
aI5
aI12
aI8
aI15
aI21
aI7
aI2
aa(lp14
I16
aI1
aI3
aI13
aI12
aI8
aI20
aI5
aI14
aI0
aI22
aI21
aI17
aI4
aI10
aI19
aI2
aI11
aI7
aI9
aI15
aI6
aI18
aa(lp15
I8
aI13
aI21
aI1
aI20
aI2
aI5
aI11
aI22
aI3
aI15
aI14
aI16
aI10
aI7
aI18
aI6
aI4
aI17
aI12
aI9
aI0
aI19
aa(lp16
I13
aI2
aI17
aI22
aI1
aI12
aI15
aI5
aI11
aI6
aI7
aI9
aI18
aI8
aI3
aI14
aI21
aI19
aI10
aI0
aI20
aI16
aI4
aa(lp17
I8
aI7
aI9
aI1
aI4
aI19
aI6
aI18
aI17
aI21
aI11
aI5
aI15
aI0
aI16
aI2
aI12
aI14
aI22
aI10
aI3
aI13
aI20
aa(lp18
I11
aI10
aI5
aI15
aI12
aI19
aI20
aI9
aI18
aI13
aI0
aI22
aI4
aI8
aI2
aI3
aI17
aI14
aI7
aI21
aI6
aI16
aI1
aa(lp19
I10
aI3
aI16
aI2
aI22
aI18
aI9
aI13
aI19
aI5
aI6
aI7
aI12
aI4
aI14
aI17
aI11
aI0
aI1
aI15
aI8
aI21
aI20
aa(lp20
I19
aI13
aI4
aI3
aI17
aI7
aI8
aI16
aI0
aI18
aI15
aI14
aI10
aI22
aI20
aI21
aI1
aI11
aI2
aI6
aI5
aI9
aI12
aa.