(lp0
(lp1
I15
aI4
aI20
aI7
aI11
aI2
aI0
aI18
aI14
aI9
aI16
aI13
aI17
aI10
aI5
aI21
aI12
aI1
aI6
aI19
aI3
aI8
aa(lp2
I18
aI12
aI2
aI16
aI6
aI20
aI11
aI4
aI17
aI3
aI13
aI1
aI14
aI19
aI0
aI15
aI10
aI5
aI21
aI9
aI8
aI7
aa(lp3
I5
aI15
aI17
aI6
aI14
aI16
aI3
aI21
aI11
aI0
aI1
aI12
aI18
aI7
aI8
aI19
aI2
aI20
aI4
aI10
aI13
aI9
aa(lp4
I9
aI2
aI1
aI4
aI6
aI21
aI0
aI8
aI5
aI3
aI10
aI14
aI16
aI20
aI15
aI12
aI7
aI19
aI17
aI11
aI13
aI18
aa(lp5
I8
aI14
aI11
aI21
aI15
aI3
aI17
aI20
aI4
aI6
aI5
aI12
aI9
aI7
aI19
aI18
aI13
aI2
aI16
aI10
aI0
aI1
aa(lp6
I12
aI8
aI17
aI7
aI4
aI20
aI16
aI11
aI3
aI9
aI1
aI5
aI13
aI21
aI0
aI18
aI14
aI10
aI19
aI6
aI15
aI2
aa(lp7
I11
aI0
aI5
aI20
aI10
aI1
aI8
aI17
aI21
aI7
aI13
aI19
aI4
aI2
aI16
aI3
aI15
aI6
aI14
aI12
aI18
aI9
aa(lp8
I1
aI16
aI2
aI19
aI21
aI20
aI0
aI13
aI12
aI14
aI11
aI3
aI9
aI4
aI10
aI18
aI6
aI15
aI8
aI17
aI5
aI7
aa(lp9
I17
aI21
aI20
aI11
aI2
aI7
aI10
aI13
aI14
aI16
aI8
aI6
aI0
aI15
aI3
aI19
aI12
aI9
aI18
aI1
aI4
aI5
aa(lp10
I12
aI20
aI11
aI3
aI6
aI0
aI9
aI16
aI4
aI8
aI1
aI21
aI7
aI14
aI10
aI5
aI13
aI15
aI17
aI2
aI19
aI18
aa(lp11
I4
aI3
aI5
aI6
aI7
aI1
aI21
aI2
aI8
aI9
aI15
aI16
aI20
aI17
aI12
aI13
aI18
aI10
aI0
aI11
aI19
aI14
aa(lp12
I11
aI21
aI3
aI19
aI4
aI8
aI17
aI18
aI0
aI6
aI5
aI15
aI12
aI10
aI14
aI1
aI20
aI7
aI9
aI13
aI16
aI2
aa(lp13
I0
aI13
aI10
aI15
aI19
aI17
aI9
aI4
aI18
aI7
aI11
aI21
aI16
aI14
aI5
aI12
aI2
aI6
aI8
aI3
aI1
aI20
aa(lp14
I16
aI11
aI17
aI3
aI14
aI21
aI7
aI13
aI1
aI4
aI2
aI20
aI10
aI19
aI8
aI9
aI6
aI5
aI12
aI18
aI15
aI0
aa(lp15
I10
aI18
aI6
aI0
aI19
aI2
aI1
aI20
aI16
aI5
aI7
aI13
aI17
aI14
aI9
aI15
aI11
aI12
aI4
aI21
aI8
aI3
aa(lp16
I10
aI13
aI15
aI20
aI0
aI4
aI8
aI19
aI6
aI5
aI3
aI2
aI16
aI14
aI1
aI9
aI18
aI17
aI21
aI7
aI11
aI12
aa(lp17
I8
aI4
aI21
aI12
aI7
aI17
aI19
aI0
aI11
aI6
aI16
aI18
aI3
aI10
aI20
aI1
aI15
aI9
aI13
aI14
aI5
aI2
aa(lp18
I1
aI15
aI3
aI12
aI7
aI21
aI2
aI8
aI5
aI14
aI4
aI10
aI9
aI18
aI19
aI0
aI11
aI6
aI16
aI20
aI13
aI17
aa(lp19
I0
aI17
aI10
aI2
aI11
aI21
aI5
aI1
aI3
aI6
aI15
aI8
aI14
aI19
aI20
aI4
aI7
aI12
aI18
aI16
aI9
aI13
aa(lp20
I19
aI12
aI0
aI13
aI8
aI5
aI1
aI17
aI16
aI10
aI9
aI3
aI14
aI4
aI15
aI7
aI2
aI6
aI20
aI18
aI11
aI21
aa.