(lp0
(lp1
I16
aI5
aI0
aI11
aI9
aI15
aI19
aI13
aI10
aI22
aI7
aI20
aI21
aI1
aI12
aI17
aI14
aI6
aI8
aI4
aI2
aI3
aI18
aa(lp2
I3
aI21
aI6
aI22
aI15
aI19
aI5
aI12
aI10
aI13
aI4
aI16
aI14
aI18
aI20
aI17
aI7
aI0
aI8
aI2
aI11
aI1
aI9
aa(lp3
I2
aI0
aI20
aI3
aI8
aI4
aI19
aI7
aI1
aI21
aI11
aI9
aI17
aI22
aI15
aI13
aI6
aI5
aI10
aI14
aI16
aI18
aI12
aa(lp4
I6
aI5
aI3
aI11
aI9
aI7
aI12
aI13
aI20
aI10
aI19
aI22
aI8
aI4
aI15
aI16
aI18
aI0
aI2
aI17
aI21
aI1
aI14
aa(lp5
I8
aI2
aI12
aI18
aI6
aI19
aI16
aI5
aI11
aI7
aI9
aI13
aI17
aI21
aI3
aI14
aI0
aI10
aI15
aI20
aI22
aI4
aI1
aa(lp6
I11
aI0
aI3
aI10
aI7
aI15
aI1
aI4
aI19
aI13
aI2
aI22
aI12
aI5
aI21
aI18
aI20
aI6
aI17
aI9
aI14
aI16
aI8
aa(lp7
I3
aI18
aI12
aI7
aI1
aI6
aI19
aI2
aI4
aI11
aI21
aI10
aI8
aI15
aI17
aI13
aI14
aI5
aI16
aI20
aI22
aI9
aI0
aa(lp8
I21
aI19
aI8
aI10
aI5
aI18
aI3
aI0
aI17
aI9
aI6
aI14
aI12
aI20
aI16
aI4
aI11
aI13
aI2
aI22
aI7
aI1
aI15
aa(lp9
I1
aI12
aI16
aI21
aI7
aI18
aI14
aI10
aI0
aI5
aI8
aI22
aI6
aI2
aI13
aI4
aI19
aI9
aI17
aI11
aI3
aI20
aI15
aa(lp10
I1
aI21
aI0
aI14
aI17
aI12
aI20
aI4
aI6
aI3
aI2
aI5
aI18
aI13
aI22
aI16
aI8
aI19
aI7
aI9
aI15
aI11
aI10
aa(lp11
I22
aI20
aI14
aI2
aI13
aI4
aI3
aI11
aI9
aI12
aI8
aI16
aI5
aI15
aI18
aI6
aI1
aI7
aI19
aI17
aI21
aI10
aI0
aa(lp12
I1
aI21
aI7
aI14
aI6
aI20
aI15
aI10
aI17
aI5
aI2
aI12
aI19
aI11
aI8
aI0
aI18
aI16
aI22
aI9
aI4
aI3
aI13
aa(lp13
I0
aI22
aI15
aI19
aI17
aI1
aI18
aI21
aI4
aI12
aI14
aI20
aI2
aI6
aI3
aI7
aI16
aI9
aI10
aI13
aI11
aI8
aI5
aa(lp14
I10
aI8
aI22
aI6
aI15
aI20
aI11
aI3
aI17
aI4
aI13
aI0
aI7
aI1
aI12
aI14
aI18
aI21
aI19
aI16
aI9
aI2
aI5
aa(lp15
I21
aI22
aI13
aI17
aI14
aI3
aI5
aI1
aI16
aI2
aI11
aI18
aI20
aI6
aI15
aI19
aI0
aI8
aI12
aI10
aI7
aI9
aI4
aa(lp16
I15
aI10
aI13
aI1
aI14
aI19
aI7
aI6
aI2
aI12
aI20
aI21
aI22
aI9
aI4
aI8
aI5
aI11
aI17
aI0
aI3
aI18
aI16
aa(lp17
I18
aI14
aI8
aI15
aI11
aI17
aI1
aI20
aI12
aI3
aI10
aI21
aI0
aI9
aI6
aI4
aI2
aI13
aI5
aI22
aI19
aI7
aI16
aa(lp18
I10
aI4
aI13
aI19
aI11
aI20
aI7
aI5
aI17
aI6
aI14
aI22
aI21
aI2
aI3
aI12
aI16
aI15
aI8
aI18
aI0
aI9
aI1
aa(lp19
I13
aI12
aI8
aI0
aI15
aI4
aI5
aI6
aI9
aI10
aI2
aI22
aI19
aI21
aI18
aI11
aI1
aI14
aI17
aI20
aI16
aI3
aI7
aa(lp20
I0
aI11
aI20
aI9
aI12
aI8
aI13
aI15
aI16
aI3
aI7
aI2
aI19
aI5
aI10
aI17
aI14
aI4
aI18
aI21
aI1
aI6
aI22
aa.