(lp0
(lp1
I4
aI0
aI10
aI1
aI9
aI5
aI6
aI8
aI2
aI3
aI7
aa(lp2
I7
aI6
aI9
aI2
aI1
aI10
aI8
aI4
aI3
aI5
aI0
aa(lp3
I2
aI8
aI3
aI9
aI5
aI6
aI1
aI7
aI10
aI0
aI4
aa(lp4
I8
aI10
aI9
aI7
aI5
aI1
aI3
aI0
aI4
aI6
aI2
aa(lp5
I10
aI9
aI7
aI2
aI8
aI0
aI3
aI1
aI6
aI5
aI4
aa(lp6
I9
aI10
aI3
aI1
aI8
aI0
aI2
aI7
aI5
aI4
aI6
aa(lp7
I3
aI1
aI10
aI2
aI5
aI8
aI4
aI7
aI9
aI6
aI0
aa(lp8
I4
aI10
aI5
aI3
aI0
aI9
aI6
aI8
aI7
aI2
aI1
aa(lp9
I6
aI1
aI9
aI3
aI8
aI4
aI10
aI0
aI5
aI2
aI7
aa(lp10
I2
aI1
aI5
aI8
aI7
aI4
aI6
aI3
aI0
aI9
aI10
aa(lp11
I9
aI1
aI8
aI5
aI2
aI7
aI4
aI10
aI0
aI6
aI3
aa(lp12
I3
aI9
aI0
aI7
aI5
aI2
aI10
aI4
aI8
aI1
aI6
aa(lp13
I8
aI7
aI0
aI2
aI9
aI6
aI3
aI10
aI4
aI1
aI5
aa(lp14
I7
aI10
aI1
aI9
aI5
aI4
aI3
aI0
aI6
aI8
aI2
aa(lp15
I0
aI9
aI5
aI6
aI1
aI7
aI10
aI3
aI8
aI4
aI2
aa(lp16
I0
aI6
aI10
aI7
aI8
aI4
aI5
aI1
aI3
aI2
aI9
aa(lp17
I2
aI3
aI8
aI10
aI0
aI7
aI6
aI9
aI1
aI4
aI5
aa(lp18
I4
aI1
aI2
aI5
aI6
aI0
aI8
aI9
aI3
aI7
aI10
aa(lp19
I4
aI5
aI10
aI6
aI2
aI8
aI7
aI1
aI3
aI9
aI0
aa(lp20
I5
aI8
aI2
aI10
aI6
aI1
aI7
aI0
aI4
aI9
aI3
aa.