(lp0
(lp1
I17
aI7
aI14
aI2
aI13
aI11
aI8
aI1
aI10
aI5
aI3
aI15
aI0
aI6
aI9
aI16
aI12
aI4
aa(lp2
I8
aI9
aI0
aI12
aI16
aI3
aI2
aI4
aI1
aI5
aI15
aI10
aI6
aI17
aI11
aI14
aI7
aI13
aa(lp3
I4
aI12
aI11
aI3
aI2
aI5
aI17
aI0
aI9
aI13
aI15
aI14
aI8
aI6
aI7
aI1
aI10
aI16
aa(lp4
I8
aI10
aI15
aI0
aI14
aI12
aI4
aI11
aI6
aI17
aI9
aI3
aI5
aI2
aI7
aI13
aI1
aI16
aa(lp5
I14
aI4
aI16
aI3
aI15
aI12
aI0
aI1
aI17
aI13
aI2
aI9
aI5
aI8
aI6
aI10
aI7
aI11
aa(lp6
I3
aI13
aI10
aI6
aI16
aI5
aI8
aI11
aI14
aI1
aI15
aI2
aI4
aI17
aI12
aI9
aI0
aI7
aa(lp7
I3
aI16
aI2
aI9
aI10
aI8
aI4
aI12
aI11
aI14
aI0
aI15
aI1
aI13
aI7
aI17
aI5
aI6
aa(lp8
I15
aI8
aI0
aI11
aI10
aI2
aI1
aI13
aI6
aI5
aI9
aI3
aI7
aI16
aI4
aI14
aI12
aI17
aa(lp9
I11
aI6
aI1
aI16
aI2
aI0
aI4
aI5
aI14
aI12
aI3
aI8
aI15
aI9
aI7
aI13
aI17
aI10
aa(lp10
I11
aI16
aI7
aI1
aI13
aI14
aI3
aI5
aI9
aI6
aI12
aI0
aI8
aI15
aI10
aI17
aI2
aI4
aa(lp11
I0
aI17
aI7
aI16
aI15
aI4
aI1
aI12
aI6
aI9
aI11
aI2
aI13
aI3
aI8
aI10
aI5
aI14
aa(lp12
I2
aI3
aI11
aI5
aI9
aI10
aI1
aI12
aI17
aI16
aI6
aI8
aI14
aI4
aI15
aI7
aI0
aI13
aa(lp13
I17
aI1
aI3
aI6
aI0
aI13
aI9
aI16
aI10
aI12
aI5
aI15
aI4
aI2
aI14
aI7
aI11
aI8
aa(lp14
I3
aI7
aI16
aI11
aI9
aI15
aI6
aI17
aI1
aI2
aI4
aI10
aI12
aI14
aI13
aI5
aI8
aI0
aa(lp15
I9
aI10
aI3
aI14
aI8
aI5
aI13
aI4
aI17
aI11
aI16
aI1
aI2
aI12
aI7
aI15
aI0
aI6
aa(lp16
I7
aI3
aI13
aI11
aI6
aI14
aI0
aI10
aI12
aI8
aI15
aI4
aI1
aI17
aI9
aI2
aI16
aI5
aa(lp17
I8
aI11
aI1
aI17
aI5
aI15
aI0
aI3
aI14
aI16
aI10
aI7
aI13
aI9
aI12
aI6
aI4
aI2
aa(lp18
I3
aI8
aI11
aI10
aI4
aI12
aI15
aI16
aI9
aI17
aI2
aI5
aI7
aI14
aI13
aI0
aI1
aI6
aa(lp19
I15
aI13
aI3
aI17
aI2
aI1
aI5
aI4
aI14
aI8
aI9
aI0
aI7
aI12
aI11
aI10
aI6
aI16
aa(lp20
I6
aI17
aI3
aI0
aI9
aI10
aI16
aI11
aI4
aI14
aI13
aI15
aI12
aI8
aI2
aI5
aI1
aI7
aa.