(lp0
(lp1
I19
aI16
aI21
aI17
aI3
aI12
aI13
aI10
aI9
aI22
aI11
aI18
aI23
aI5
aI20
aI15
aI1
aI6
aI8
aI4
aI0
aI2
aI14
aI7
aa(lp2
I10
aI11
aI18
aI8
aI22
aI1
aI21
aI2
aI0
aI3
aI13
aI20
aI5
aI12
aI7
aI14
aI9
aI23
aI19
aI15
aI16
aI17
aI6
aI4
aa(lp3
I7
aI11
aI20
aI0
aI19
aI17
aI3
aI12
aI2
aI23
aI5
aI18
aI4
aI6
aI22
aI14
aI21
aI8
aI10
aI1
aI15
aI13
aI9
aI16
aa(lp4
I16
aI3
aI18
aI14
aI5
aI22
aI13
aI23
aI19
aI7
aI0
aI9
aI1
aI10
aI20
aI17
aI15
aI4
aI21
aI6
aI2
aI11
aI8
aI12
aa(lp5
I12
aI13
aI17
aI10
aI14
aI16
aI18
aI15
aI21
aI6
aI11
aI5
aI23
aI3
aI7
aI1
aI2
aI19
aI20
aI4
aI9
aI22
aI0
aI8
aa(lp6
I3
aI8
aI19
aI4
aI6
aI13
aI5
aI22
aI1
aI0
aI12
aI7
aI20
aI2
aI18
aI15
aI14
aI16
aI10
aI21
aI23
aI17
aI9
aI11
aa(lp7
I2
aI20
aI4
aI13
aI1
aI14
aI21
aI11
aI15
aI22
aI6
aI19
aI3
aI9
aI17
aI8
aI7
aI5
aI18
aI12
aI10
aI0
aI16
aI23
aa(lp8
I8
aI21
aI0
aI16
aI12
aI23
aI20
aI3
aI15
aI17
aI19
aI9
aI5
aI4
aI13
aI11
aI6
aI14
aI7
aI2
aI10
aI22
aI1
aI18
aa(lp9
I13
aI11
aI4
aI20
aI15
aI19
aI22
aI1
aI9
aI12
aI18
aI6
aI2
aI21
aI14
aI10
aI17
aI5
aI23
aI3
aI8
aI7
aI16
aI0
aa(lp10
I0
aI21
aI12
aI16
aI20
aI7
aI11
aI15
aI22
aI4
aI18
aI1
aI13
aI23
aI9
aI3
aI6
aI8
aI17
aI2
aI5
aI19
aI14
aI10
aa(lp11
I22
aI0
aI16
aI18
aI6
aI7
aI8
aI9
aI12
aI10
aI15
aI3
aI19
aI21
aI17
aI1
aI5
aI11
aI20
aI23
aI2
aI13
aI4
aI14
aa(lp12
I13
aI17
aI6
aI9
aI19
aI18
aI10
aI1
aI5
aI20
aI3
aI4
aI11
aI21
aI23
aI2
aI8
aI22
aI12
aI16
aI0
aI15
aI7
aI14
aa(lp13
I6
aI8
aI11
aI1
aI10
aI9
aI3
aI22
aI5
aI17
aI15
aI2
aI13
aI14
aI18
aI23
aI0
aI12
aI21
aI7
aI20
aI4
aI16
aI19
aa(lp14
I20
aI16
aI11
aI0
aI8
aI10
aI7
aI23
aI21
aI3
aI15
aI9
aI5
aI14
aI22
aI13
aI18
aI4
aI12
aI1
aI19
aI2
aI17
aI6
aa(lp15
I18
aI22
aI10
aI15
aI5
aI23
aI3
aI17
aI8
aI21
aI9
aI2
aI19
aI14
aI13
aI16
aI4
aI7
aI11
aI20
aI1
aI6
aI0
aI12
aa(lp16
I20
aI14
aI12
aI16
aI1
aI21
aI9
aI8
aI17
aI4
aI11
aI15
aI22
aI7
aI2
aI23
aI3
aI13
aI0
aI18
aI6
aI5
aI10
aI19
aa(lp17
I13
aI23
aI7
aI3
aI8
aI17
aI6
aI0
aI11
aI9
aI19
aI10
aI15
aI16
aI20
aI22
aI14
aI5
aI4
aI1
aI12
aI2
aI21
aI18
aa(lp18
I22
aI13
aI21
aI11
aI8
aI5
aI0
aI16
aI1
aI7
aI2
aI9
aI20
aI19
aI4
aI18
aI23
aI6
aI17
aI3
aI14
aI12
aI10
aI15
aa(lp19
I14
aI17
aI7
aI13
aI16
aI15
aI8
aI11
aI1
aI18
aI2
aI0
aI4
aI20
aI21
aI5
aI6
aI9
aI19
aI3
aI22
aI10
aI12
aI23
aa(lp20
I23
aI18
aI1
aI14
aI4
aI20
aI6
aI21
aI22
aI9
aI10
aI5
aI17
aI0
aI19
aI3
aI16
aI11
aI13
aI2
aI15
aI8
aI12
aI7
aa.