(lp0
(lp1
I22
aI14
aI3
aI7
aI13
aI17
aI21
aI25
aI18
aI5
aI12
aI11
aI15
aI19
aI24
aI27
aI8
aI10
aI20
aI28
aI9
aI26
aI4
aI23
aI1
aI16
aI0
aI6
aI2
aa(lp2
I18
aI20
aI27
aI24
aI5
aI4
aI9
aI19
aI10
aI0
aI21
aI3
aI1
aI26
aI11
aI25
aI12
aI17
aI7
aI23
aI6
aI15
aI22
aI16
aI28
aI14
aI13
aI2
aI8
aa(lp3
I11
aI22
aI6
aI12
aI8
aI10
aI0
aI25
aI18
aI1
aI15
aI27
aI3
aI13
aI17
aI7
aI21
aI9
aI19
aI23
aI4
aI20
aI28
aI2
aI24
aI16
aI26
aI14
aI5
aa(lp4
I16
aI17
aI18
aI19
aI13
aI8
aI23
aI9
aI25
aI1
aI24
aI22
aI4
aI14
aI10
aI21
aI28
aI27
aI15
aI12
aI2
aI6
aI0
aI20
aI7
aI5
aI3
aI26
aI11
aa(lp5
I28
aI20
aI7
aI4
aI23
aI17
aI9
aI2
aI11
aI8
aI13
aI6
aI22
aI18
aI16
aI1
aI24
aI15
aI21
aI14
aI26
aI3
aI0
aI10
aI25
aI19
aI12
aI5
aI27
aa(lp6
I15
aI17
aI8
aI26
aI11
aI22
aI1
aI5
aI28
aI9
aI6
aI2
aI27
aI7
aI25
aI19
aI21
aI23
aI24
aI10
aI0
aI12
aI16
aI3
aI14
aI20
aI18
aI4
aI13
aa(lp7
I20
aI10
aI9
aI18
aI24
aI7
aI16
aI21
aI5
aI3
aI12
aI13
aI28
aI14
aI4
aI0
aI27
aI22
aI6
aI8
aI26
aI23
aI15
aI19
aI17
aI25
aI1
aI11
aI2
aa(lp8
I14
aI26
aI18
aI24
aI8
aI0
aI25
aI9
aI16
aI3
aI7
aI22
aI1
aI27
aI12
aI5
aI11
aI28
aI13
aI19
aI2
aI4
aI23
aI6
aI20
aI17
aI15
aI10
aI21
aa(lp9
I16
aI8
aI15
aI5
aI9
aI27
aI24
aI19
aI26
aI21
aI28
aI2
aI0
aI12
aI23
aI13
aI4
aI25
aI14
aI11
aI17
aI22
aI1
aI3
aI18
aI6
aI7
aI10
aI20
aa(lp10
I8
aI22
aI0
aI5
aI28
aI7
aI15
aI13
aI21
aI2
aI3
aI4
aI9
aI24
aI1
aI23
aI26
aI6
aI11
aI17
aI27
aI14
aI16
aI10
aI18
aI12
aI19
aI25
aI20
aa(lp11
I8
aI14
aI18
aI3
aI16
aI1
aI25
aI17
aI15
aI21
aI26
aI10
aI23
aI28
aI6
aI13
aI0
aI4
aI5
aI24
aI20
aI22
aI12
aI9
aI27
aI7
aI11
aI19
aI2
aa(lp12
I25
aI6
aI5
aI20
aI23
aI24
aI22
aI9
aI14
aI1
aI26
aI0
aI27
aI4
aI19
aI12
aI7
aI18
aI3
aI11
aI16
aI21
aI10
aI15
aI13
aI8
aI2
aI28
aI17
aa(lp13
I6
aI18
aI7
aI21
aI15
aI2
aI10
aI19
aI5
aI27
aI22
aI14
aI0
aI28
aI26
aI3
aI24
aI25
aI23
aI12
aI9
aI20
aI16
aI1
aI4
aI8
aI13
aI17
aI11
aa(lp14
I16
aI27
aI19
aI26
aI22
aI25
aI3
aI20
aI13
aI9
aI2
aI7
aI23
aI1
aI5
aI15
aI10
aI0
aI11
aI24
aI21
aI18
aI28
aI14
aI4
aI17
aI8
aI6
aI12
aa(lp15
I4
aI5
aI0
aI24
aI20
aI22
aI28
aI3
aI16
aI21
aI14
aI18
aI6
aI17
aI8
aI1
aI13
aI12
aI11
aI19
aI15
aI25
aI27
aI23
aI26
aI7
aI10
aI9
aI2
aa(lp16
I12
aI11
aI28
aI9
aI21
aI16
aI7
aI15
aI6
aI24
aI18
aI10
aI25
aI13
aI8
aI23
aI4
aI26
aI17
aI19
aI3
aI20
aI27
aI22
aI1
aI5
aI2
aI0
aI14
aa(lp17
I25
aI3
aI28
aI1
aI24
aI15
aI21
aI18
aI4
aI17
aI8
aI2
aI10
aI0
aI6
aI9
aI20
aI26
aI23
aI16
aI7
aI11
aI13
aI5
aI27
aI12
aI14
aI19
aI22
aa(lp18
I7
aI22
aI0
aI4
aI18
aI23
aI14
aI28
aI10
aI8
aI3
aI24
aI25
aI26
aI17
aI15
aI20
aI9
aI1
aI2
aI13
aI19
aI16
aI11
aI12
aI6
aI21
aI27
aI5
aa(lp19
I17
aI6
aI28
aI20
aI4
aI0
aI25
aI18
aI16
aI7
aI15
aI26
aI23
aI27
aI19
aI13
aI22
aI9
aI3
aI1
aI24
aI10
aI11
aI14
aI21
aI12
aI8
aI2
aI5
aa(lp20
I22
aI2
aI14
aI24
aI1
aI6
aI26
aI5
aI23
aI0
aI16
aI12
aI7
aI21
aI19
aI25
aI8
aI17
aI4
aI13
aI20
aI15
aI27
aI10
aI9
aI18
aI11
aI3
aI28
aa.