(lp0
(lp1
I1
aI9
aI5
aI7
aI6
aI15
aI0
aI17
aI14
aI3
aI10
aI8
aI12
aI13
aI4
aI11
aI19
aI2
aI18
aI16
aa(lp2
I4
aI6
aI19
aI1
aI7
aI10
aI2
aI15
aI8
aI18
aI3
aI11
aI16
aI13
aI9
aI14
aI12
aI17
aI5
aI0
aa(lp3
I17
aI18
aI9
aI7
aI16
aI4
aI0
aI8
aI5
aI6
aI13
aI10
aI1
aI15
aI3
aI11
aI19
aI2
aI14
aI12
aa(lp4
I5
aI8
aI13
aI16
aI12
aI4
aI15
aI3
aI11
aI9
aI0
aI1
aI7
aI17
aI14
aI19
aI2
aI10
aI6
aI18
aa(lp5
I10
aI6
aI19
aI9
aI4
aI13
aI3
aI15
aI0
aI11
aI5
aI7
aI14
aI12
aI17
aI16
aI1
aI2
aI8
aI18
aa(lp6
I13
aI1
aI6
aI14
aI12
aI9
aI7
aI3
aI11
aI5
aI4
aI16
aI0
aI17
aI19
aI2
aI10
aI18
aI15
aI8
aa(lp7
I4
aI11
aI7
aI16
aI18
aI0
aI13
aI5
aI8
aI1
aI12
aI17
aI9
aI15
aI10
aI3
aI2
aI14
aI19
aI6
aa(lp8
I9
aI1
aI18
aI11
aI19
aI17
aI4
aI8
aI6
aI5
aI12
aI10
aI0
aI14
aI16
aI2
aI7
aI15
aI3
aI13
aa(lp9
I0
aI16
aI9
aI15
aI3
aI4
aI12
aI13
aI19
aI11
aI10
aI7
aI17
aI2
aI14
aI5
aI6
aI18
aI8
aI1
aa(lp10
I18
aI2
aI9
aI5
aI12
aI0
aI8
aI10
aI1
aI14
aI15
aI11
aI16
aI19
aI4
aI6
aI3
aI17
aI7
aI13
aa(lp11
I3
aI17
aI11
aI6
aI5
aI9
aI2
aI1
aI16
aI19
aI15
aI13
aI0
aI7
aI10
aI12
aI14
aI8
aI18
aI4
aa(lp12
I8
aI16
aI14
aI19
aI3
aI13
aI17
aI18
aI6
aI10
aI7
aI0
aI9
aI2
aI15
aI5
aI11
aI12
aI1
aI4
aa(lp13
I13
aI14
aI7
aI3
aI17
aI15
aI16
aI12
aI1
aI6
aI5
aI19
aI11
aI4
aI0
aI10
aI18
aI2
aI8
aI9
aa(lp14
I17
aI9
aI12
aI2
aI6
aI4
aI7
aI15
aI11
aI13
aI18
aI19
aI14
aI1
aI3
aI10
aI8
aI0
aI5
aI16
aa(lp15
I18
aI10
aI12
aI13
aI15
aI11
aI14
aI19
aI8
aI3
aI0
aI5
aI16
aI1
aI2
aI9
aI6
aI4
aI17
aI7
aa(lp16
I1
aI4
aI0
aI11
aI5
aI9
aI6
aI18
aI3
aI8
aI19
aI13
aI16
aI2
aI10
aI12
aI7
aI15
aI14
aI17
aa(lp17
I15
aI0
aI10
aI5
aI17
aI14
aI19
aI2
aI7
aI11
aI8
aI3
aI9
aI6
aI16
aI18
aI1
aI13
aI12
aI4
aa(lp18
I10
aI8
aI6
aI5
aI2
aI14
aI13
aI4
aI19
aI17
aI0
aI16
aI3
aI11
aI15
aI9
aI7
aI1
aI12
aI18
aa(lp19
I14
aI6
aI8
aI12
aI15
aI13
aI3
aI10
aI7
aI0
aI19
aI2
aI5
aI18
aI9
aI1
aI11
aI4
aI16
aI17
aa(lp20
I16
aI1
aI0
aI17
aI19
aI4
aI13
aI15
aI2
aI7
aI9
aI12
aI3
aI14
aI10
aI8
aI6
aI18
aI5
aI11
aa.