(lp0
(lp1
I21
aI20
aI11
aI2
aI9
aI6
aI19
aI15
aI8
aI22
aI1
aI4
aI14
aI0
aI18
aI5
aI17
aI12
aI3
aI16
aI7
aI10
aI13
aa(lp2
I16
aI0
aI12
aI4
aI11
aI15
aI19
aI14
aI1
aI2
aI10
aI13
aI20
aI21
aI6
aI7
aI17
aI5
aI3
aI18
aI8
aI9
aI22
aa(lp3
I9
aI15
aI2
aI18
aI20
aI17
aI6
aI12
aI8
aI1
aI16
aI11
aI21
aI10
aI22
aI0
aI19
aI7
aI3
aI13
aI5
aI4
aI14
aa(lp4
I20
aI17
aI16
aI18
aI1
aI15
aI10
aI2
aI21
aI22
aI8
aI5
aI9
aI4
aI7
aI6
aI13
aI3
aI19
aI12
aI14
aI11
aI0
aa(lp5
I6
aI0
aI10
aI2
aI13
aI7
aI16
aI21
aI15
aI17
aI12
aI19
aI3
aI1
aI20
aI5
aI18
aI8
aI9
aI4
aI14
aI22
aI11
aa(lp6
I6
aI0
aI20
aI15
aI21
aI3
aI19
aI10
aI12
aI4
aI5
aI18
aI9
aI16
aI8
aI17
aI7
aI1
aI11
aI13
aI14
aI2
aI22
aa(lp7
I13
aI11
aI8
aI3
aI6
aI9
aI20
aI0
aI19
aI2
aI12
aI17
aI10
aI4
aI21
aI16
aI18
aI14
aI22
aI15
aI5
aI1
aI7
aa(lp8
I19
aI2
aI20
aI0
aI13
aI9
aI17
aI7
aI6
aI10
aI16
aI4
aI3
aI18
aI14
aI5
aI12
aI21
aI8
aI22
aI11
aI1
aI15
aa(lp9
I15
aI20
aI12
aI14
aI18
aI3
aI9
aI0
aI2
aI22
aI8
aI7
aI21
aI11
aI10
aI16
aI1
aI19
aI6
aI17
aI5
aI4
aI13
aa(lp10
I14
aI5
aI12
aI7
aI10
aI8
aI3
aI20
aI19
aI17
aI21
aI11
aI13
aI9
aI0
aI4
aI6
aI1
aI22
aI18
aI2
aI16
aI15
aa(lp11
I20
aI17
aI12
aI15
aI18
aI4
aI19
aI2
aI9
aI16
aI10
aI22
aI0
aI5
aI11
aI3
aI6
aI14
aI13
aI7
aI1
aI8
aI21
aa(lp12
I16
aI14
aI18
aI6
aI17
aI12
aI7
aI22
aI19
aI10
aI4
aI8
aI5
aI13
aI3
aI21
aI0
aI20
aI2
aI11
aI15
aI9
aI1
aa(lp13
I19
aI17
aI16
aI8
aI21
aI0
aI3
aI2
aI5
aI6
aI7
aI4
aI22
aI13
aI18
aI10
aI20
aI11
aI15
aI14
aI9
aI1
aI12
aa(lp14
I8
aI14
aI12
aI3
aI21
aI20
aI11
aI19
aI16
aI17
aI13
aI5
aI18
aI10
aI9
aI7
aI15
aI4
aI1
aI6
aI22
aI0
aI2
aa(lp15
I10
aI2
aI19
aI8
aI3
aI16
aI6
aI14
aI13
aI15
aI12
aI11
aI18
aI1
aI21
aI0
aI22
aI5
aI17
aI20
aI7
aI4
aI9
aa(lp16
I8
aI13
aI10
aI15
aI2
aI22
aI12
aI3
aI16
aI17
aI9
aI0
aI11
aI1
aI4
aI6
aI21
aI14
aI19
aI7
aI18
aI5
aI20
aa(lp17
I7
aI18
aI3
aI16
aI9
aI1
aI8
aI21
aI6
aI11
aI14
aI15
aI20
aI10
aI2
aI0
aI17
aI5
aI13
aI19
aI12
aI4
aI22
aa(lp18
I14
aI5
aI3
aI22
aI10
aI2
aI15
aI8
aI9
aI0
aI4
aI20
aI1
aI19
aI17
aI7
aI11
aI21
aI6
aI13
aI18
aI16
aI12
aa(lp19
I5
aI4
aI10
aI8
aI14
aI6
aI18
aI11
aI9
aI12
aI1
aI7
aI17
aI2
aI3
aI0
aI13
aI22
aI16
aI20
aI15
aI19
aI21
aa(lp20
I18
aI8
aI17
aI7
aI0
aI12
aI2
aI14
aI5
aI19
aI16
aI3
aI6
aI15
aI11
aI13
aI1
aI22
aI20
aI4
aI21
aI9
aI10
aa.