(lp0
(lp1
I6
aI1
aI3
aI20
aI7
aI18
aI15
aI19
aI4
aI8
aI12
aI17
aI9
aI0
aI10
aI14
aI13
aI5
aI16
aI2
aI11
aa(lp2
I3
aI10
aI7
aI0
aI19
aI4
aI2
aI5
aI9
aI16
aI1
aI14
aI12
aI11
aI6
aI15
aI13
aI20
aI8
aI17
aI18
aa(lp3
I11
aI18
aI12
aI9
aI4
aI5
aI2
aI17
aI0
aI15
aI7
aI13
aI20
aI1
aI16
aI14
aI6
aI10
aI19
aI3
aI8
aa(lp4
I12
aI15
aI3
aI0
aI18
aI17
aI6
aI16
aI11
aI20
aI9
aI19
aI14
aI2
aI1
aI8
aI4
aI13
aI7
aI5
aI10
aa(lp5
I19
aI7
aI4
aI8
aI0
aI17
aI13
aI9
aI11
aI5
aI6
aI1
aI16
aI15
aI12
aI18
aI2
aI10
aI20
aI3
aI14
aa(lp6
I11
aI15
aI19
aI4
aI14
aI10
aI16
aI5
aI0
aI7
aI9
aI8
aI2
aI12
aI18
aI17
aI6
aI1
aI13
aI20
aI3
aa(lp7
I17
aI8
aI2
aI5
aI6
aI9
aI3
aI18
aI4
aI16
aI0
aI10
aI13
aI20
aI19
aI7
aI12
aI15
aI11
aI14
aI1
aa(lp8
I18
aI2
aI0
aI9
aI19
aI7
aI15
aI13
aI8
aI5
aI14
aI16
aI3
aI17
aI1
aI12
aI20
aI6
aI4
aI11
aI10
aa(lp9
I6
aI15
aI5
aI7
aI3
aI12
aI11
aI9
aI4
aI14
aI13
aI0
aI2
aI20
aI10
aI1
aI19
aI16
aI18
aI8
aI17
aa(lp10
I2
aI12
aI3
aI15
aI11
aI6
aI5
aI1
aI0
aI4
aI8
aI14
aI18
aI19
aI7
aI17
aI9
aI13
aI16
aI10
aI20
aa(lp11
I4
aI13
aI7
aI20
aI5
aI14
aI18
aI3
aI1
aI11
aI17
aI2
aI15
aI9
aI10
aI8
aI6
aI16
aI19
aI0
aI12
aa(lp12
I13
aI6
aI0
aI4
aI5
aI1
aI8
aI17
aI9
aI14
aI7
aI2
aI15
aI18
aI16
aI19
aI11
aI10
aI20
aI3
aI12
aa(lp13
I10
aI12
aI17
aI6
aI5
aI19
aI1
aI20
aI18
aI2
aI8
aI14
aI11
aI3
aI16
aI0
aI4
aI15
aI7
aI9
aI13
aa(lp14
I17
aI2
aI16
aI0
aI12
aI19
aI5
aI8
aI7
aI1
aI18
aI4
aI10
aI15
aI3
aI6
aI20
aI14
aI11
aI9
aI13
aa(lp15
I1
aI10
aI13
aI5
aI0
aI8
aI18
aI12
aI11
aI17
aI14
aI15
aI16
aI2
aI20
aI19
aI4
aI9
aI6
aI3
aI7
aa(lp16
I10
aI11
aI20
aI2
aI13
aI18
aI0
aI4
aI1
aI19
aI6
aI15
aI17
aI7
aI14
aI12
aI8
aI5
aI3
aI9
aI16
aa(lp17
I19
aI20
aI15
aI18
aI3
aI8
aI1
aI16
aI17
aI0
aI12
aI4
aI9
aI7
aI2
aI10
aI5
aI6
aI11
aI14
aI13
aa(lp18
I6
aI9
aI20
aI16
aI5
aI7
aI18
aI0
aI8
aI13
aI12
aI17
aI11
aI3
aI15
aI19
aI2
aI1
aI14
aI4
aI10
aa(lp19
I0
aI8
aI14
aI7
aI18
aI11
aI4
aI3
aI13
aI9
aI5
aI12
aI2
aI17
aI10
aI19
aI20
aI6
aI16
aI1
aI15
aa(lp20
I16
aI6
aI3
aI2
aI20
aI15
aI5
aI14
aI4
aI19
aI12
aI1
aI0
aI13
aI7
aI18
aI10
aI9
aI17
aI11
aI8
aa.