(lp0
(lp1
I18
aI21
aI15
aI9
aI7
aI17
aI20
aI11
aI12
aI16
aI4
aI22
aI6
aI14
aI1
aI13
aI3
aI19
aI5
aI8
aI2
aI10
aI0
aa(lp2
I6
aI10
aI14
aI20
aI15
aI4
aI2
aI8
aI7
aI1
aI12
aI3
aI0
aI22
aI11
aI5
aI13
aI19
aI21
aI17
aI18
aI16
aI9
aa(lp3
I2
aI7
aI13
aI6
aI8
aI10
aI11
aI0
aI22
aI12
aI17
aI21
aI19
aI15
aI9
aI18
aI1
aI16
aI20
aI3
aI5
aI4
aI14
aa(lp4
I20
aI0
aI4
aI13
aI10
aI6
aI1
aI12
aI22
aI21
aI7
aI15
aI11
aI8
aI14
aI18
aI9
aI3
aI16
aI5
aI19
aI17
aI2
aa(lp5
I7
aI19
aI1
aI5
aI21
aI16
aI13
aI6
aI17
aI18
aI8
aI2
aI0
aI9
aI10
aI20
aI14
aI11
aI3
aI12
aI4
aI15
aI22
aa(lp6
I16
aI17
aI15
aI21
aI11
aI4
aI9
aI7
aI20
aI5
aI19
aI0
aI22
aI3
aI12
aI2
aI10
aI8
aI6
aI18
aI13
aI14
aI1
aa(lp7
I16
aI13
aI9
aI5
aI17
aI4
aI18
aI22
aI6
aI14
aI11
aI1
aI3
aI15
aI19
aI12
aI21
aI8
aI20
aI2
aI0
aI10
aI7
aa(lp8
I5
aI0
aI9
aI15
aI11
aI2
aI18
aI12
aI17
aI3
aI14
aI20
aI7
aI13
aI8
aI19
aI1
aI16
aI6
aI10
aI21
aI4
aI22
aa(lp9
I13
aI12
aI21
aI2
aI9
aI0
aI14
aI22
aI20
aI3
aI11
aI16
aI15
aI6
aI8
aI10
aI19
aI4
aI1
aI5
aI17
aI7
aI18
aa(lp10
I18
aI19
aI9
aI20
aI3
aI7
aI21
aI1
aI6
aI16
aI14
aI12
aI17
aI11
aI2
aI10
aI22
aI0
aI15
aI8
aI5
aI13
aI4
aa(lp11
I16
aI22
aI4
aI6
aI18
aI8
aI9
aI2
aI20
aI1
aI5
aI0
aI17
aI14
aI12
aI15
aI10
aI21
aI7
aI19
aI13
aI3
aI11
aa(lp12
I13
aI18
aI21
aI17
aI9
aI19
aI8
aI0
aI3
aI10
aI6
aI16
aI11
aI22
aI12
aI4
aI14
aI2
aI15
aI1
aI20
aI7
aI5
aa(lp13
I3
aI7
aI20
aI8
aI15
aI10
aI9
aI14
aI12
aI5
aI4
aI17
aI0
aI18
aI16
aI6
aI1
aI21
aI11
aI13
aI2
aI22
aI19
aa(lp14
I2
aI9
aI18
aI8
aI22
aI14
aI5
aI12
aI17
aI19
aI6
aI1
aI20
aI0
aI16
aI10
aI11
aI7
aI21
aI3
aI4
aI13
aI15
aa(lp15
I14
aI15
aI22
aI2
aI13
aI16
aI20
aI11
aI1
aI9
aI17
aI21
aI7
aI3
aI5
aI4
aI12
aI8
aI18
aI0
aI10
aI19
aI6
aa(lp16
I12
aI22
aI21
aI17
aI7
aI4
aI0
aI3
aI16
aI1
aI18
aI11
aI19
aI6
aI10
aI20
aI14
aI9
aI2
aI8
aI5
aI15
aI13
aa(lp17
I8
aI0
aI22
aI19
aI5
aI2
aI7
aI12
aI4
aI15
aI13
aI18
aI9
aI17
aI14
aI10
aI1
aI20
aI3
aI16
aI6
aI21
aI11
aa(lp18
I13
aI0
aI3
aI17
aI19
aI20
aI11
aI15
aI2
aI21
aI10
aI16
aI22
aI14
aI8
aI12
aI5
aI4
aI6
aI7
aI9
aI1
aI18
aa(lp19
I11
aI7
aI18
aI21
aI19
aI8
aI12
aI5
aI14
aI6
aI4
aI10
aI16
aI0
aI22
aI13
aI17
aI20
aI15
aI1
aI9
aI2
aI3
aa(lp20
I19
aI12
aI10
aI3
aI15
aI11
aI2
aI22
aI17
aI5
aI16
aI8
aI13
aI21
aI9
aI1
aI4
aI6
aI0
aI18
aI7
aI14
aI20
aa.