(lp0
(lp1
I2
aI14
aI42
aI4
aI35
aI12
aI30
aI10
aI36
aI34
aI44
aI22
aI8
aI38
aI18
aI41
aI9
aI5
aI13
aI1
aI40
aI39
aI16
aI3
aI33
aI27
aI25
aI24
aI23
aI43
aI6
aI11
aI19
aI0
aI21
aI37
aI15
aI20
aI17
aI26
aI32
aI28
aI31
aI29
aI7
aa(lp2
I16
aI14
aI40
aI11
aI38
aI32
aI10
aI13
aI17
aI27
aI2
aI36
aI6
aI43
aI15
aI26
aI42
aI23
aI20
aI7
aI4
aI41
aI3
aI30
aI39
aI0
aI12
aI21
aI18
aI19
aI8
aI34
aI25
aI37
aI29
aI5
aI28
aI22
aI33
aI31
aI24
aI44
aI1
aI35
aI9
aa(lp3
I10
aI28
aI8
aI30
aI33
aI44
aI27
aI19
aI14
aI6
aI21
aI37
aI29
aI43
aI22
aI2
aI5
aI31
aI41
aI42
aI16
aI36
aI4
aI38
aI11
aI9
aI26
aI1
aI23
aI15
aI20
aI18
aI39
aI35
aI0
aI40
aI32
aI12
aI3
aI13
aI7
aI25
aI17
aI34
aI24
aa(lp4
I44
aI38
aI37
aI17
aI4
aI29
aI33
aI42
aI28
aI35
aI20
aI2
aI0
aI16
aI13
aI19
aI27
aI39
aI31
aI7
aI11
aI21
aI23
aI12
aI34
aI43
aI32
aI25
aI30
aI40
aI8
aI14
aI3
aI5
aI41
aI6
aI1
aI24
aI36
aI10
aI26
aI22
aI9
aI18
aI15
aa(lp5
I11
aI8
aI14
aI30
aI41
aI0
aI33
aI7
aI9
aI1
aI37
aI38
aI28
aI43
aI25
aI34
aI15
aI44
aI20
aI35
aI4
aI26
aI31
aI17
aI23
aI13
aI16
aI19
aI18
aI6
aI27
aI12
aI42
aI2
aI39
aI40
aI10
aI32
aI29
aI36
aI24
aI21
aI5
aI22
aI3
aa(lp6
I29
aI44
aI32
aI0
aI22
aI36
aI18
aI19
aI39
aI1
aI16
aI30
aI13
aI43
aI31
aI4
aI3
aI34
aI40
aI41
aI38
aI23
aI42
aI15
aI33
aI17
aI20
aI37
aI5
aI27
aI25
aI24
aI8
aI12
aI6
aI28
aI35
aI2
aI7
aI26
aI21
aI11
aI14
aI10
aI9
aa(lp7
I24
aI23
aI34
aI36
aI27
aI6
aI3
aI42
aI40
aI8
aI17
aI37
aI10
aI20
aI11
aI9
aI15
aI12
aI33
aI41
aI18
aI7
aI1
aI39
aI32
aI2
aI29
aI26
aI28
aI31
aI5
aI38
aI30
aI14
aI21
aI4
aI13
aI25
aI43
aI16
aI35
aI0
aI44
aI19
aI22
aa(lp8
I33
aI36
aI44
aI1
aI9
aI30
aI5
aI32
aI21
aI22
aI41
aI17
aI29
aI19
aI15
aI23
aI39
aI43
aI16
aI24
aI18
aI28
aI12
aI38
aI7
aI20
aI14
aI4
aI2
aI35
aI26
aI8
aI25
aI10
aI34
aI6
aI27
aI0
aI31
aI11
aI40
aI42
aI37
aI3
aI13
aa(lp9
I41
aI28
aI42
aI1
aI26
aI0
aI36
aI24
aI15
aI5
aI19
aI13
aI35
aI4
aI44
aI12
aI29
aI38
aI17
aI25
aI30
aI14
aI18
aI21
aI11
aI39
aI43
aI40
aI33
aI34
aI16
aI22
aI37
aI32
aI10
aI2
aI7
aI27
aI3
aI31
aI23
aI6
aI9
aI8
aI20
aa(lp10
I21
aI24
aI5
aI9
aI18
aI4
aI16
aI40
aI42
aI14
aI32
aI10
aI43
aI12
aI22
aI39
aI27
aI36
aI7
aI11
aI28
aI8
aI26
aI30
aI20
aI35
aI34
aI44
aI41
aI17
aI33
aI0
aI2
aI38
aI3
aI19
aI31
aI13
aI25
aI15
aI37
aI29
aI23
aI1
aI6
aa(lp11
I21
aI25
aI27
aI2
aI1
aI11
aI15
aI24
aI38
aI30
aI13
aI17
aI41
aI39
aI42
aI32
aI40
aI35
aI10
aI43
aI9
aI14
aI6
aI28
aI37
aI23
aI0
aI3
aI26
aI7
aI44
aI34
aI8
aI5
aI18
aI19
aI20
aI12
aI22
aI33
aI36
aI4
aI29
aI31
aI16
aa(lp12
I25
aI38
aI37
aI35
aI36
aI30
aI32
aI34
aI7
aI43
aI42
aI12
aI10
aI3
aI29
aI41
aI28
aI40
aI44
aI1
aI17
aI15
aI14
aI22
aI5
aI2
aI8
aI20
aI23
aI16
aI19
aI13
aI0
aI31
aI6
aI26
aI4
aI33
aI27
aI24
aI9
aI18
aI11
aI39
aI21
aa(lp13
I1
aI30
aI44
aI37
aI8
aI22
aI3
aI43
aI13
aI18
aI27
aI12
aI4
aI31
aI15
aI11
aI38
aI35
aI32
aI14
aI26
aI7
aI21
aI40
aI25
aI9
aI29
aI19
aI36
aI5
aI6
aI28
aI42
aI39
aI10
aI0
aI2
aI17
aI41
aI33
aI20
aI23
aI16
aI34
aI24
aa(lp14
I5
aI1
aI16
aI22
aI6
aI34
aI36
aI24
aI38
aI41
aI8
aI39
aI17
aI30
aI11
aI29
aI0
aI2
aI19
aI21
aI33
aI9
aI25
aI40
aI28
aI18
aI31
aI12
aI20
aI42
aI32
aI35
aI26
aI23
aI14
aI15
aI43
aI37
aI10
aI13
aI7
aI4
aI44
aI27
aI3
aa(lp15
I40
aI28
aI35
aI8
aI11
aI4
aI24
aI36
aI34
aI41
aI9
aI39
aI3
aI14
aI32
aI15
aI29
aI37
aI44
aI20
aI38
aI25
aI31
aI2
aI22
aI27
aI21
aI0
aI26
aI1
aI6
aI10
aI43
aI18
aI7
aI30
aI42
aI13
aI23
aI12
aI17
aI5
aI33
aI19
aI16
aa(lp16
I40
aI7
aI18
aI3
aI1
aI35
aI25
aI16
aI2
aI21
aI23
aI34
aI29
aI6
aI15
aI42
aI12
aI37
aI28
aI31
aI27
aI17
aI20
aI39
aI24
aI22
aI9
aI19
aI36
aI43
aI32
aI5
aI41
aI10
aI33
aI38
aI30
aI44
aI0
aI11
aI4
aI26
aI14
aI8
aI13
aa(lp17
I5
aI36
aI9
aI28
aI19
aI18
aI32
aI43
aI38
aI40
aI16
aI20
aI29
aI33
aI12
aI3
aI25
aI2
aI44
aI41
aI24
aI42
aI37
aI27
aI8
aI34
aI7
aI4
aI21
aI15
aI17
aI13
aI35
aI23
aI30
aI10
aI26
aI0
aI14
aI1
aI39
aI6
aI11
aI31
aI22
aa(lp18
I13
aI26
aI9
aI1
aI23
aI33
aI41
aI39
aI2
aI14
aI11
aI19
aI10
aI44
aI21
aI37
aI7
aI8
aI38
aI35
aI6
aI34
aI5
aI25
aI16
aI12
aI36
aI30
aI15
aI17
aI24
aI43
aI32
aI0
aI20
aI28
aI22
aI31
aI3
aI4
aI18
aI42
aI29
aI40
aI27
aa(lp19
I20
aI16
aI6
aI24
aI9
aI44
aI25
aI8
aI3
aI40
aI4
aI27
aI42
aI29
aI5
aI13
aI33
aI41
aI22
aI11
aI39
aI1
aI38
aI12
aI2
aI15
aI32
aI36
aI37
aI28
aI31
aI0
aI17
aI43
aI14
aI26
aI23
aI30
aI10
aI34
aI19
aI35
aI18
aI7
aI21
aa(lp20
I13
aI2
aI21
aI31
aI6
aI39
aI8
aI42
aI3
aI30
aI35
aI20
aI1
aI16
aI33
aI19
aI28
aI41
aI23
aI38
aI11
aI14
aI12
aI29
aI15
aI17
aI0
aI5
aI40
aI34
aI7
aI9
aI4
aI18
aI32
aI27
aI37
aI10
aI26
aI22
aI24
aI25
aI44
aI36
aI43
aa.