(lp0
(lp1
I8
aI24
aI21
aI27
aI47
aI18
aI2
aI54
aI46
aI32
aI19
aI55
aI6
aI56
aI23
aI38
aI3
aI1
aI20
aI52
aI50
aI25
aI16
aI51
aI43
aI39
aI0
aI60
aI33
aI28
aI5
aI31
aI12
aI35
aI7
aI44
aI40
aI45
aI29
aI61
aI53
aI69
aI49
aI66
aI30
aI4
aI15
aI41
aI48
aI63
aI64
aI26
aI11
aI34
aI67
aI10
aI57
aI37
aI17
aI9
aI42
aI68
aI58
aI22
aI36
aI59
aI65
aI62
aI14
aI13
aa(lp2
I34
aI14
aI16
aI43
aI10
aI24
aI12
aI13
aI29
aI15
aI11
aI21
aI38
aI50
aI36
aI64
aI49
aI62
aI68
aI48
aI8
aI47
aI69
aI41
aI17
aI2
aI23
aI20
aI30
aI39
aI3
aI53
aI9
aI57
aI51
aI42
aI1
aI56
aI55
aI32
aI6
aI0
aI59
aI26
aI33
aI46
aI18
aI35
aI22
aI40
aI28
aI63
aI45
aI52
aI37
aI54
aI31
aI60
aI44
aI67
aI25
aI65
aI4
aI19
aI61
aI66
aI58
aI5
aI7
aI27
aa(lp3
I60
aI25
aI44
aI14
aI36
aI47
aI39
aI15
aI5
aI59
aI55
aI49
aI66
aI7
aI45
aI31
aI1
aI67
aI63
aI13
aI46
aI41
aI2
aI10
aI48
aI24
aI29
aI68
aI58
aI26
aI53
aI18
aI22
aI23
aI6
aI38
aI20
aI12
aI65
aI34
aI42
aI57
aI35
aI43
aI9
aI4
aI8
aI28
aI17
aI69
aI3
aI50
aI32
aI64
aI51
aI0
aI56
aI52
aI16
aI27
aI30
aI11
aI62
aI40
aI54
aI61
aI21
aI19
aI33
aI37
aa(lp4
I25
aI64
aI41
aI17
aI60
aI28
aI37
aI22
aI61
aI40
aI44
aI39
aI36
aI42
aI48
aI12
aI14
aI7
aI23
aI10
aI21
aI68
aI30
aI31
aI49
aI35
aI9
aI66
aI26
aI57
aI46
aI16
aI11
aI52
aI62
aI24
aI55
aI6
aI38
aI15
aI8
aI13
aI63
aI54
aI56
aI43
aI51
aI50
aI32
aI19
aI58
aI67
aI2
aI18
aI3
aI4
aI45
aI20
aI0
aI69
aI47
aI5
aI34
aI53
aI59
aI29
aI33
aI1
aI65
aI27
aa(lp5
I21
aI17
aI16
aI48
aI30
aI22
aI37
aI66
aI64
aI67
aI6
aI18
aI39
aI50
aI65
aI45
aI38
aI41
aI52
aI55
aI1
aI59
aI49
aI47
aI34
aI8
aI24
aI33
aI25
aI69
aI57
aI42
aI13
aI7
aI0
aI32
aI15
aI60
aI44
aI36
aI20
aI5
aI43
aI53
aI10
aI29
aI28
aI35
aI68
aI40
aI4
aI63
aI62
aI61
aI46
aI31
aI23
aI9
aI58
aI12
aI27
aI51
aI19
aI26
aI2
aI54
aI3
aI56
aI14
aI11
aa(lp6
I43
aI59
aI46
aI0
aI19
aI23
aI24
aI60
aI32
aI54
aI52
aI6
aI12
aI18
aI28
aI48
aI13
aI10
aI7
aI56
aI29
aI25
aI11
aI66
aI53
aI33
aI22
aI58
aI16
aI26
aI5
aI27
aI50
aI57
aI36
aI15
aI69
aI62
aI47
aI14
aI21
aI3
aI35
aI67
aI34
aI8
aI55
aI31
aI49
aI41
aI61
aI20
aI68
aI37
aI63
aI42
aI45
aI1
aI38
aI39
aI65
aI9
aI17
aI4
aI64
aI30
aI2
aI51
aI44
aI40
aa(lp7
I62
aI55
aI26
aI27
aI22
aI49
aI37
aI25
aI38
aI65
aI48
aI24
aI67
aI45
aI28
aI54
aI51
aI42
aI50
aI4
aI12
aI52
aI30
aI8
aI17
aI39
aI40
aI41
aI31
aI6
aI0
aI46
aI34
aI18
aI60
aI11
aI13
aI15
aI9
aI57
aI5
aI1
aI56
aI20
aI7
aI59
aI2
aI68
aI63
aI23
aI53
aI32
aI19
aI58
aI36
aI47
aI35
aI66
aI10
aI33
aI14
aI21
aI29
aI69
aI64
aI61
aI3
aI16
aI44
aI43
aa(lp8
I37
aI41
aI11
aI15
aI67
aI32
aI48
aI5
aI1
aI13
aI58
aI20
aI3
aI29
aI38
aI39
aI69
aI8
aI26
aI2
aI53
aI12
aI35
aI64
aI9
aI44
aI59
aI27
aI45
aI22
aI34
aI60
aI10
aI43
aI33
aI23
aI57
aI24
aI52
aI47
aI42
aI30
aI51
aI19
aI61
aI16
aI4
aI7
aI28
aI17
aI25
aI14
aI21
aI65
aI50
aI0
aI6
aI62
aI46
aI54
aI40
aI36
aI66
aI56
aI55
aI63
aI31
aI49
aI18
aI68
aa(lp9
I46
aI55
aI41
aI42
aI7
aI29
aI56
aI47
aI39
aI3
aI51
aI0
aI57
aI38
aI63
aI40
aI14
aI53
aI48
aI25
aI52
aI35
aI28
aI60
aI44
aI10
aI23
aI12
aI66
aI30
aI37
aI36
aI19
aI62
aI26
aI11
aI67
aI22
aI17
aI20
aI16
aI8
aI27
aI45
aI24
aI49
aI59
aI33
aI32
aI54
aI69
aI34
aI5
aI21
aI13
aI43
aI18
aI31
aI65
aI61
aI58
aI15
aI1
aI6
aI68
aI50
aI9
aI2
aI4
aI64
aa(lp10
I6
aI56
aI18
aI32
aI8
aI46
aI65
aI57
aI13
aI0
aI20
aI16
aI25
aI36
aI27
aI19
aI51
aI39
aI17
aI67
aI1
aI42
aI7
aI53
aI28
aI11
aI61
aI66
aI37
aI10
aI26
aI2
aI4
aI45
aI62
aI47
aI52
aI44
aI14
aI22
aI40
aI34
aI63
aI24
aI9
aI35
aI12
aI59
aI68
aI49
aI60
aI30
aI64
aI41
aI21
aI54
aI48
aI55
aI58
aI5
aI69
aI29
aI15
aI38
aI23
aI31
aI3
aI50
aI33
aI43
aa(lp11
I13
aI21
aI29
aI49
aI6
aI60
aI53
aI47
aI0
aI8
aI19
aI4
aI56
aI22
aI57
aI2
aI45
aI32
aI30
aI3
aI55
aI26
aI34
aI9
aI48
aI68
aI38
aI15
aI18
aI16
aI51
aI24
aI46
aI31
aI11
aI62
aI37
aI33
aI43
aI52
aI36
aI20
aI5
aI27
aI42
aI50
aI12
aI54
aI40
aI23
aI44
aI17
aI69
aI7
aI59
aI35
aI25
aI1
aI63
aI28
aI39
aI64
aI41
aI65
aI58
aI67
aI10
aI61
aI14
aI66
aa(lp12
I28
aI14
aI67
aI7
aI50
aI29
aI8
aI36
aI31
aI47
aI38
aI22
aI66
aI30
aI12
aI24
aI0
aI18
aI43
aI42
aI10
aI69
aI54
aI19
aI32
aI20
aI37
aI39
aI44
aI61
aI4
aI58
aI64
aI34
aI65
aI52
aI35
aI21
aI13
aI33
aI62
aI27
aI63
aI41
aI40
aI26
aI68
aI23
aI55
aI53
aI51
aI11
aI9
aI59
aI2
aI57
aI3
aI25
aI6
aI49
aI56
aI45
aI60
aI5
aI1
aI46
aI16
aI15
aI48
aI17
aa(lp13
I0
aI28
aI25
aI60
aI58
aI7
aI41
aI12
aI23
aI54
aI16
aI43
aI27
aI69
aI15
aI55
aI6
aI51
aI3
aI68
aI56
aI42
aI63
aI65
aI62
aI14
aI8
aI32
aI36
aI4
aI40
aI52
aI50
aI47
aI17
aI22
aI34
aI18
aI45
aI1
aI2
aI21
aI26
aI29
aI33
aI19
aI59
aI37
aI44
aI57
aI61
aI35
aI39
aI48
aI53
aI46
aI64
aI9
aI11
aI30
aI66
aI5
aI24
aI20
aI67
aI10
aI38
aI49
aI31
aI13
aa(lp14
I42
aI31
aI65
aI10
aI23
aI48
aI63
aI52
aI41
aI3
aI5
aI4
aI45
aI18
aI50
aI16
aI14
aI59
aI29
aI38
aI49
aI15
aI56
aI19
aI68
aI1
aI22
aI40
aI13
aI60
aI17
aI0
aI36
aI12
aI67
aI69
aI8
aI28
aI55
aI11
aI57
aI47
aI44
aI66
aI46
aI26
aI7
aI32
aI64
aI62
aI9
aI51
aI35
aI27
aI39
aI20
aI43
aI34
aI21
aI25
aI54
aI24
aI6
aI61
aI2
aI58
aI30
aI37
aI33
aI53
aa(lp15
I39
aI57
aI25
aI63
aI29
aI28
aI6
aI62
aI51
aI60
aI7
aI11
aI61
aI32
aI37
aI10
aI31
aI46
aI69
aI16
aI1
aI40
aI19
aI14
aI38
aI36
aI50
aI67
aI5
aI4
aI3
aI66
aI52
aI43
aI65
aI44
aI2
aI30
aI8
aI68
aI64
aI54
aI23
aI33
aI58
aI0
aI17
aI12
aI45
aI18
aI13
aI47
aI53
aI55
aI56
aI49
aI26
aI35
aI21
aI48
aI20
aI59
aI27
aI41
aI15
aI34
aI22
aI24
aI42
aI9
aa(lp16
I61
aI62
aI3
aI47
aI41
aI39
aI18
aI53
aI60
aI6
aI19
aI57
aI4
aI14
aI27
aI37
aI30
aI65
aI32
aI56
aI15
aI50
aI34
aI36
aI12
aI31
aI10
aI63
aI13
aI23
aI58
aI8
aI24
aI44
aI38
aI2
aI16
aI54
aI64
aI5
aI28
aI48
aI0
aI51
aI21
aI25
aI59
aI66
aI26
aI11
aI22
aI45
aI9
aI1
aI55
aI40
aI20
aI33
aI46
aI42
aI29
aI67
aI43
aI35
aI52
aI7
aI68
aI49
aI17
aI69
aa(lp17
I68
aI48
aI37
aI47
aI9
aI67
aI60
aI1
aI19
aI6
aI66
aI54
aI12
aI20
aI28
aI40
aI8
aI10
aI4
aI25
aI17
aI61
aI45
aI53
aI43
aI30
aI21
aI64
aI7
aI32
aI15
aI27
aI14
aI31
aI46
aI0
aI13
aI18
aI41
aI65
aI56
aI35
aI58
aI69
aI52
aI57
aI63
aI62
aI23
aI11
aI24
aI36
aI2
aI26
aI29
aI22
aI59
aI3
aI55
aI44
aI42
aI38
aI34
aI50
aI49
aI39
aI33
aI51
aI16
aI5
aa(lp18
I7
aI49
aI47
aI46
aI17
aI48
aI25
aI22
aI14
aI16
aI0
aI57
aI31
aI60
aI5
aI18
aI68
aI64
aI1
aI44
aI37
aI41
aI32
aI58
aI51
aI39
aI35
aI26
aI3
aI55
aI30
aI11
aI27
aI59
aI40
aI4
aI34
aI8
aI45
aI12
aI67
aI15
aI20
aI24
aI13
aI36
aI23
aI43
aI63
aI52
aI2
aI61
aI33
aI66
aI6
aI29
aI42
aI38
aI28
aI54
aI69
aI21
aI10
aI65
aI53
aI62
aI50
aI56
aI9
aI19
aa(lp19
I7
aI31
aI19
aI37
aI27
aI39
aI36
aI25
aI51
aI32
aI34
aI56
aI26
aI40
aI69
aI50
aI15
aI48
aI62
aI42
aI5
aI44
aI49
aI58
aI30
aI0
aI33
aI6
aI61
aI55
aI22
aI66
aI1
aI29
aI9
aI23
aI8
aI17
aI38
aI47
aI4
aI52
aI24
aI12
aI3
aI68
aI35
aI16
aI14
aI10
aI67
aI60
aI46
aI59
aI57
aI28
aI64
aI18
aI20
aI63
aI53
aI2
aI54
aI13
aI45
aI41
aI21
aI11
aI65
aI43
aa(lp20
I31
aI22
aI44
aI54
aI19
aI6
aI64
aI25
aI68
aI63
aI46
aI69
aI36
aI41
aI67
aI12
aI34
aI8
aI40
aI1
aI51
aI58
aI16
aI4
aI32
aI66
aI11
aI15
aI39
aI45
aI28
aI30
aI62
aI13
aI10
aI49
aI65
aI27
aI57
aI59
aI18
aI48
aI43
aI2
aI50
aI21
aI52
aI47
aI29
aI38
aI61
aI23
aI20
aI3
aI60
aI37
aI55
aI53
aI56
aI5
aI24
aI42
aI7
aI14
aI0
aI26
aI33
aI17
aI35
aI9
aa.