(lp0
(lp1
I228
aI206
aI11
aI209
aI175
aI183
aI40
aI199
aI28
aI63
aI88
aI164
aI26
aI189
aI22
aI194
aI126
aI229
aI129
aI203
aI153
aI130
aI212
aI191
aI34
aI165
aI20
aI84
aI198
aI144
aI200
aI49
aI66
aI100
aI181
aI131
aI147
aI17
aI122
aI117
aI216
aI135
aI121
aI151
aI25
aI157
aI52
aI44
aI197
aI167
aI114
aI16
aI230
aI160
aI38
aI73
aI64
aI176
aI169
aI222
aI78
aI193
aI225
aI50
aI205
aI59
aI60
aI109
aI77
aI180
aI162
aI143
aI62
aI218
aI36
aI53
aI21
aI177
aI217
aI43
aI72
aI42
aI124
aI97
aI211
aI125
aI107
aI54
aI182
aI185
aI138
aI188
aI24
aI79
aI55
aI227
aI133
aI190
aI98
aI67
aI192
aI14
aI92
aI103
aI74
aI172
aI154
aI226
aI89
aI108
aI158
aI81
aI221
aI102
aI27
aI159
aI31
aI87
aI224
aI96
aI170
aI196
aI65
aI136
aI202
aI93
aI32
aI12
aI23
aI33
aI137
aI231
aI3
aI70
aI127
aI58
aI119
aI112
aI195
aI115
aI95
aI35
aI204
aI75
aI215
aI101
aI48
aI210
aI186
aI139
aI156
aI150
aI104
aI99
aI47
aI173
aI90
aI45
aI168
aI161
aI110
aI134
aI106
aI82
aI113
aI10
aI171
aI37
aI208
aI76
aI1
aI80
aI179
aI132
aI201
aI94
aI8
aI178
aI152
aI116
aI213
aI142
aI149
aI7
aI83
aI46
aI71
aI5
aI9
aI118
aI120
aI105
aI0
aI141
aI111
aI4
aI184
aI155
aI145
aI140
aI13
aI39
aI85
aI146
aI207
aI29
aI56
aI148
aI163
aI187
aI128
aI18
aI30
aI2
aI123
aI220
aI86
aI174
aI69
aI166
aI223
aI51
aI68
aI19
aI15
aI91
aI41
aI219
aI61
aI57
aI214
aI6
aa(lp2
I135
aI36
aI188
aI58
aI122
aI166
aI28
aI104
aI120
aI128
aI72
aI46
aI33
aI9
aI137
aI140
aI138
aI52
aI116
aI112
aI202
aI201
aI196
aI176
aI190
aI83
aI173
aI34
aI87
aI213
aI220
aI225
aI154
aI168
aI25
aI17
aI107
aI172
aI200
aI11
aI197
aI142
aI16
aI85
aI139
aI63
aI231
aI208
aI160
aI32
aI13
aI14
aI26
aI171
aI82
aI150
aI103
aI70
aI229
aI39
aI146
aI210
aI132
aI141
aI47
aI94
aI151
aI79
aI123
aI2
aI174
aI149
aI44
aI22
aI101
aI148
aI48
aI212
aI23
aI224
aI67
aI162
aI192
aI64
aI29
aI144
aI223
aI175
aI147
aI38
aI81
aI204
aI90
aI53
aI161
aI121
aI95
aI158
aI193
aI191
aI222
aI1
aI78
aI76
aI77
aI109
aI165
aI57
aI205
aI97
aI40
aI37
aI155
aI68
aI157
aI60
aI228
aI105
aI88
aI199
aI226
aI118
aI93
aI152
aI80
aI54
aI184
aI51
aI117
aI194
aI180
aI30
aI218
aI84
aI5
aI207
aI61
aI198
aI163
aI31
aI159
aI4
aI178
aI179
aI42
aI126
aI20
aI75
aI115
aI143
aI169
aI66
aI65
aI206
aI74
aI3
aI100
aI43
aI114
aI0
aI15
aI209
aI110
aI177
aI214
aI27
aI124
aI181
aI182
aI18
aI183
aI187
aI91
aI164
aI35
aI21
aI41
aI131
aI113
aI108
aI156
aI170
aI45
aI230
aI7
aI189
aI89
aI129
aI10
aI211
aI50
aI98
aI12
aI96
aI195
aI203
aI217
aI8
aI59
aI119
aI136
aI71
aI130
aI133
aI215
aI221
aI125
aI49
aI127
aI111
aI153
aI219
aI145
aI167
aI134
aI55
aI24
aI227
aI19
aI92
aI56
aI106
aI69
aI186
aI216
aI99
aI62
aI6
aI86
aI73
aI185
aI102
aa(lp3
I128
aI18
aI112
aI71
aI133
aI169
aI197
aI209
aI131
aI172
aI217
aI198
aI10
aI120
aI125
aI188
aI194
aI154
aI130
aI106
aI12
aI86
aI171
aI50
aI153
aI84
aI147
aI190
aI160
aI202
aI28
aI56
aI230
aI2
aI9
aI186
aI226
aI107
aI195
aI152
aI1
aI146
aI72
aI85
aI177
aI203
aI25
aI42
aI168
aI193
aI167
aI88
aI223
aI61
aI100
aI115
aI73
aI36
aI178
aI174
aI114
aI143
aI144
aI222
aI17
aI175
aI27
aI65
aI200
aI60
aI7
aI24
aI189
aI30
aI13
aI66
aI192
aI187
aI158
aI231
aI52
aI212
aI227
aI122
aI180
aI176
aI127
aI55
aI4
aI140
aI165
aI14
aI163
aI89
aI74
aI199
aI57
aI137
aI11
aI22
aI124
aI148
aI90
aI93
aI224
aI54
aI126
aI103
aI43
aI205
aI5
aI196
aI69
aI179
aI134
aI41
aI206
aI151
aI0
aI38
aI117
aI32
aI51
aI145
aI77
aI102
aI132
aI225
aI213
aI96
aI53
aI138
aI45
aI8
aI142
aI76
aI49
aI229
aI108
aI159
aI170
aI104
aI16
aI204
aI139
aI155
aI216
aI116
aI220
aI40
aI109
aI207
aI31
aI82
aI37
aI101
aI156
aI191
aI185
aI44
aI150
aI111
aI35
aI29
aI214
aI48
aI19
aI182
aI87
aI62
aI68
aI141
aI123
aI21
aI67
aI26
aI34
aI135
aI210
aI157
aI218
aI201
aI80
aI63
aI47
aI98
aI121
aI162
aI97
aI129
aI166
aI64
aI161
aI58
aI99
aI20
aI75
aI6
aI110
aI149
aI95
aI208
aI219
aI136
aI181
aI3
aI164
aI59
aI92
aI78
aI173
aI228
aI221
aI118
aI113
aI79
aI119
aI91
aI33
aI211
aI94
aI215
aI184
aI46
aI105
aI70
aI83
aI183
aI23
aI81
aI15
aI39
aa(lp4
I174
aI163
aI117
aI147
aI184
aI88
aI50
aI179
aI230
aI149
aI124
aI119
aI67
aI136
aI190
aI202
aI108
aI102
aI189
aI121
aI135
aI205
aI110
aI99
aI93
aI10
aI194
aI7
aI73
aI171
aI101
aI165
aI134
aI51
aI141
aI87
aI60
aI55
aI89
aI19
aI195
aI177
aI42
aI223
aI151
aI167
aI32
aI188
aI2
aI166
aI18
aI41
aI213
aI15
aI196
aI116
aI123
aI164
aI201
aI86
aI206
aI161
aI118
aI168
aI216
aI62
aI36
aI169
aI133
aI100
aI140
aI85
aI59
aI185
aI104
aI5
aI23
aI70
aI48
aI84
aI38
aI96
aI126
aI52
aI172
aI57
aI180
aI155
aI76
aI34
aI187
aI176
aI222
aI22
aI199
aI25
aI229
aI46
aI192
aI92
aI17
aI16
aI183
aI13
aI139
aI39
aI66
aI150
aI191
aI154
aI103
aI79
aI9
aI58
aI170
aI227
aI142
aI162
aI113
aI3
aI130
aI214
aI128
aI208
aI204
aI221
aI90
aI186
aI35
aI47
aI203
aI112
aI182
aI137
aI215
aI49
aI175
aI228
aI231
aI207
aI64
aI144
aI131
aI212
aI30
aI210
aI211
aI209
aI120
aI31
aI83
aI71
aI105
aI27
aI225
aI82
aI33
aI53
aI159
aI158
aI98
aI4
aI220
aI181
aI132
aI40
aI56
aI198
aI145
aI160
aI75
aI26
aI152
aI157
aI97
aI20
aI68
aI219
aI153
aI81
aI200
aI193
aI148
aI107
aI11
aI217
aI218
aI156
aI44
aI226
aI173
aI114
aI91
aI8
aI63
aI95
aI80
aI37
aI6
aI61
aI29
aI74
aI21
aI178
aI72
aI138
aI45
aI143
aI125
aI146
aI24
aI94
aI54
aI77
aI1
aI122
aI14
aI78
aI109
aI224
aI0
aI197
aI106
aI111
aI43
aI69
aI12
aI115
aI65
aI28
aI127
aI129
aa(lp5
I121
aI13
aI120
aI149
aI88
aI176
aI112
aI1
aI64
aI49
aI116
aI27
aI39
aI160
aI72
aI167
aI187
aI92
aI207
aI217
aI33
aI29
aI141
aI197
aI86
aI100
aI4
aI230
aI30
aI164
aI85
aI144
aI229
aI150
aI16
aI10
aI161
aI78
aI223
aI107
aI59
aI113
aI0
aI115
aI18
aI147
aI219
aI129
aI32
aI188
aI158
aI211
aI210
aI159
aI192
aI45
aI200
aI152
aI23
aI60
aI153
aI70
aI122
aI169
aI204
aI114
aI74
aI46
aI65
aI127
aI106
aI132
aI15
aI123
aI101
aI146
aI181
aI66
aI130
aI21
aI20
aI87
aI9
aI214
aI151
aI174
aI80
aI133
aI157
aI184
aI165
aI58
aI111
aI63
aI19
aI42
aI136
aI50
aI177
aI97
aI82
aI48
aI224
aI231
aI124
aI154
aI5
aI83
aI108
aI222
aI194
aI24
aI6
aI26
aI17
aI166
aI212
aI47
aI225
aI145
aI178
aI93
aI191
aI175
aI71
aI62
aI131
aI142
aI168
aI53
aI209
aI91
aI117
aI2
aI162
aI95
aI43
aI35
aI22
aI109
aI170
aI90
aI213
aI138
aI98
aI193
aI126
aI12
aI81
aI220
aI105
aI75
aI172
aI79
aI155
aI148
aI38
aI61
aI102
aI96
aI143
aI195
aI173
aI125
aI190
aI183
aI104
aI31
aI28
aI199
aI206
aI77
aI36
aI103
aI137
aI76
aI196
aI205
aI140
aI198
aI14
aI179
aI57
aI118
aI226
aI7
aI68
aI40
aI37
aI218
aI228
aI8
aI84
aI128
aI52
aI51
aI201
aI186
aI227
aI180
aI34
aI44
aI156
aI94
aI202
aI119
aI135
aI55
aI163
aI56
aI73
aI41
aI67
aI89
aI25
aI189
aI203
aI221
aI99
aI215
aI54
aI110
aI185
aI216
aI3
aI208
aI171
aI182
aI11
aI134
aI69
aI139
aa(lp6
I5
aI4
aI116
aI53
aI99
aI173
aI155
aI28
aI3
aI83
aI111
aI160
aI118
aI201
aI112
aI70
aI195
aI197
aI119
aI15
aI61
aI212
aI58
aI144
aI145
aI93
aI72
aI152
aI218
aI79
aI102
aI42
aI230
aI135
aI56
aI193
aI141
aI134
aI89
aI85
aI98
aI207
aI103
aI64
aI213
aI63
aI39
aI75
aI115
aI157
aI161
aI129
aI24
aI179
aI154
aI74
aI59
aI82
aI45
aI167
aI192
aI16
aI41
aI136
aI31
aI122
aI229
aI177
aI221
aI38
aI51
aI68
aI117
aI185
aI1
aI164
aI132
aI114
aI150
aI178
aI183
aI222
aI137
aI107
aI204
aI14
aI48
aI169
aI216
aI6
aI95
aI205
aI110
aI20
aI40
aI171
aI211
aI140
aI17
aI182
aI49
aI143
aI225
aI13
aI50
aI106
aI174
aI170
aI55
aI43
aI186
aI215
aI23
aI101
aI67
aI73
aI120
aI80
aI77
aI187
aI96
aI148
aI8
aI146
aI18
aI203
aI54
aI113
aI165
aI2
aI26
aI60
aI0
aI210
aI9
aI158
aI220
aI65
aI76
aI138
aI196
aI34
aI191
aI105
aI128
aI36
aI124
aI35
aI149
aI151
aI11
aI156
aI214
aI81
aI62
aI217
aI125
aI90
aI71
aI30
aI172
aI159
aI180
aI7
aI184
aI27
aI181
aI147
aI208
aI109
aI163
aI168
aI37
aI10
aI108
aI44
aI78
aI29
aI228
aI69
aI21
aI22
aI52
aI189
aI200
aI88
aI86
aI176
aI46
aI199
aI226
aI166
aI223
aI123
aI194
aI206
aI219
aI190
aI198
aI104
aI97
aI47
aI33
aI32
aI202
aI92
aI142
aI153
aI57
aI130
aI227
aI224
aI66
aI121
aI100
aI127
aI94
aI139
aI25
aI19
aI175
aI209
aI87
aI84
aI12
aI131
aI91
aI126
aI162
aI231
aI188
aI133
aa(lp7
I27
aI62
aI211
aI219
aI38
aI55
aI177
aI77
aI150
aI120
aI78
aI111
aI87
aI138
aI183
aI204
aI140
aI153
aI92
aI188
aI225
aI160
aI37
aI210
aI199
aI17
aI73
aI144
aI124
aI12
aI76
aI187
aI123
aI168
aI96
aI133
aI205
aI220
aI28
aI129
aI36
aI146
aI182
aI193
aI112
aI149
aI86
aI201
aI176
aI82
aI139
aI22
aI223
aI115
aI175
aI218
aI31
aI9
aI131
aI116
aI197
aI126
aI25
aI227
aI121
aI208
aI108
aI84
aI65
aI63
aI130
aI159
aI196
aI167
aI128
aI2
aI158
aI170
aI200
aI6
aI186
aI60
aI151
aI102
aI103
aI202
aI52
aI117
aI67
aI135
aI148
aI118
aI33
aI109
aI68
aI10
aI53
aI136
aI5
aI48
aI95
aI113
aI169
aI14
aI229
aI110
aI165
aI75
aI181
aI166
aI83
aI24
aI7
aI71
aI156
aI58
aI155
aI0
aI29
aI179
aI74
aI119
aI214
aI99
aI147
aI20
aI34
aI16
aI21
aI152
aI44
aI69
aI172
aI157
aI132
aI47
aI162
aI180
aI230
aI143
aI88
aI4
aI231
aI221
aI23
aI57
aI228
aI56
aI189
aI178
aI15
aI97
aI51
aI70
aI80
aI107
aI127
aI134
aI26
aI81
aI46
aI122
aI39
aI105
aI192
aI222
aI217
aI30
aI125
aI195
aI32
aI35
aI94
aI90
aI91
aI18
aI59
aI98
aI141
aI209
aI3
aI13
aI206
aI79
aI161
aI174
aI41
aI163
aI142
aI66
aI203
aI85
aI61
aI216
aI1
aI89
aI114
aI19
aI64
aI185
aI11
aI72
aI106
aI212
aI8
aI145
aI184
aI54
aI104
aI43
aI226
aI50
aI213
aI101
aI49
aI42
aI45
aI100
aI215
aI154
aI191
aI137
aI190
aI171
aI40
aI198
aI224
aI173
aI207
aI93
aI164
aI194
aa(lp8
I15
aI87
aI126
aI6
aI89
aI22
aI23
aI217
aI191
aI114
aI101
aI82
aI166
aI81
aI88
aI103
aI143
aI196
aI177
aI86
aI161
aI63
aI108
aI102
aI181
aI226
aI142
aI150
aI105
aI95
aI97
aI92
aI94
aI76
aI223
aI151
aI193
aI138
aI219
aI149
aI46
aI180
aI203
aI141
aI159
aI153
aI77
aI195
aI110
aI173
aI36
aI70
aI170
aI213
aI135
aI112
aI209
aI12
aI16
aI0
aI231
aI210
aI111
aI24
aI198
aI225
aI172
aI206
aI98
aI139
aI131
aI72
aI178
aI201
aI155
aI154
aI117
aI113
aI74
aI18
aI214
aI80
aI35
aI211
aI64
aI37
aI156
aI197
aI157
aI162
aI73
aI26
aI137
aI91
aI218
aI48
aI129
aI109
aI17
aI7
aI45
aI158
aI192
aI147
aI222
aI227
aI207
aI39
aI186
aI145
aI57
aI123
aI115
aI29
aI208
aI47
aI185
aI52
aI116
aI78
aI224
aI189
aI187
aI230
aI19
aI60
aI54
aI136
aI174
aI199
aI165
aI169
aI104
aI132
aI90
aI55
aI179
aI188
aI106
aI33
aI14
aI40
aI65
aI228
aI67
aI93
aI34
aI69
aI28
aI38
aI13
aI66
aI215
aI182
aI148
aI50
aI133
aI146
aI9
aI30
aI10
aI32
aI200
aI212
aI221
aI51
aI56
aI190
aI144
aI68
aI42
aI53
aI71
aI21
aI118
aI183
aI11
aI202
aI152
aI127
aI220
aI41
aI125
aI160
aI1
aI62
aI124
aI176
aI5
aI3
aI44
aI49
aI140
aI130
aI27
aI163
aI128
aI2
aI61
aI205
aI175
aI4
aI83
aI100
aI168
aI79
aI84
aI204
aI184
aI107
aI229
aI171
aI25
aI99
aI119
aI31
aI194
aI134
aI75
aI167
aI85
aI58
aI121
aI120
aI164
aI96
aI43
aI20
aI59
aI122
aI216
aI8
aa(lp9
I183
aI10
aI156
aI38
aI172
aI119
aI50
aI128
aI179
aI116
aI40
aI182
aI165
aI0
aI46
aI21
aI144
aI195
aI208
aI33
aI176
aI65
aI111
aI1
aI20
aI190
aI28
aI2
aI110
aI137
aI150
aI185
aI32
aI131
aI94
aI127
aI68
aI55
aI209
aI93
aI18
aI102
aI159
aI69
aI164
aI6
aI175
aI196
aI212
aI19
aI222
aI121
aI34
aI146
aI87
aI154
aI73
aI152
aI211
aI92
aI210
aI167
aI180
aI91
aI76
aI125
aI191
aI88
aI198
aI103
aI216
aI71
aI14
aI49
aI37
aI83
aI207
aI22
aI192
aI145
aI231
aI122
aI215
aI123
aI229
aI45
aI5
aI218
aI70
aI35
aI15
aI80
aI47
aI25
aI99
aI213
aI130
aI109
aI9
aI189
aI58
aI158
aI95
aI153
aI30
aI133
aI86
aI230
aI142
aI126
aI197
aI160
aI138
aI214
aI27
aI4
aI151
aI84
aI62
aI136
aI201
aI72
aI97
aI17
aI39
aI220
aI53
aI31
aI54
aI96
aI114
aI223
aI217
aI90
aI141
aI67
aI225
aI149
aI134
aI206
aI44
aI11
aI52
aI107
aI227
aI118
aI163
aI205
aI98
aI64
aI100
aI79
aI226
aI26
aI74
aI106
aI203
aI178
aI129
aI166
aI199
aI155
aI170
aI7
aI157
aI75
aI181
aI135
aI115
aI43
aI147
aI57
aI3
aI41
aI228
aI112
aI77
aI8
aI66
aI132
aI12
aI221
aI48
aI193
aI139
aI101
aI204
aI187
aI23
aI171
aI36
aI184
aI60
aI174
aI24
aI16
aI224
aI108
aI173
aI177
aI61
aI59
aI113
aI89
aI63
aI29
aI200
aI140
aI162
aI186
aI56
aI194
aI13
aI81
aI168
aI148
aI85
aI120
aI117
aI169
aI219
aI82
aI188
aI51
aI124
aI161
aI42
aI104
aI78
aI105
aI202
aI143
aa(lp10
I221
aI117
aI154
aI75
aI164
aI220
aI168
aI13
aI141
aI216
aI90
aI16
aI10
aI112
aI105
aI66
aI84
aI183
aI113
aI124
aI135
aI166
aI65
aI119
aI43
aI131
aI227
aI146
aI206
aI161
aI209
aI98
aI187
aI211
aI27
aI149
aI228
aI224
aI8
aI71
aI136
aI126
aI118
aI72
aI33
aI214
aI225
aI92
aI25
aI44
aI14
aI142
aI182
aI2
aI6
aI158
aI208
aI57
aI223
aI188
aI94
aI138
aI91
aI189
aI184
aI114
aI226
aI54
aI7
aI29
aI106
aI229
aI230
aI155
aI97
aI202
aI199
aI181
aI36
aI89
aI50
aI197
aI174
aI170
aI152
aI121
aI69
aI21
aI111
aI45
aI60
aI64
aI53
aI165
aI34
aI122
aI212
aI139
aI59
aI49
aI127
aI37
aI82
aI162
aI18
aI0
aI194
aI68
aI52
aI35
aI110
aI83
aI56
aI79
aI11
aI192
aI150
aI58
aI47
aI24
aI157
aI151
aI198
aI88
aI70
aI201
aI99
aI163
aI55
aI42
aI41
aI219
aI167
aI109
aI218
aI215
aI61
aI9
aI128
aI213
aI62
aI169
aI19
aI46
aI153
aI38
aI67
aI134
aI63
aI137
aI101
aI144
aI15
aI73
aI4
aI200
aI129
aI205
aI85
aI175
aI171
aI130
aI222
aI207
aI76
aI123
aI190
aI193
aI178
aI133
aI86
aI78
aI39
aI172
aI93
aI107
aI108
aI95
aI177
aI26
aI191
aI48
aI104
aI102
aI87
aI186
aI31
aI159
aI156
aI148
aI173
aI204
aI17
aI51
aI77
aI210
aI203
aI217
aI30
aI1
aI143
aI103
aI32
aI40
aI3
aI145
aI195
aI185
aI116
aI180
aI74
aI140
aI100
aI160
aI120
aI125
aI12
aI23
aI81
aI196
aI28
aI22
aI5
aI80
aI96
aI179
aI132
aI176
aI115
aI231
aI20
aI147
aa(lp11
I67
aI155
aI28
aI40
aI107
aI85
aI44
aI212
aI87
aI108
aI100
aI196
aI143
aI102
aI36
aI195
aI30
aI53
aI124
aI161
aI205
aI14
aI117
aI52
aI110
aI202
aI104
aI70
aI178
aI19
aI20
aI175
aI90
aI63
aI3
aI0
aI116
aI57
aI54
aI164
aI137
aI16
aI208
aI31
aI23
aI131
aI136
aI149
aI17
aI103
aI64
aI121
aI113
aI13
aI97
aI184
aI216
aI226
aI193
aI21
aI126
aI46
aI60
aI9
aI207
aI230
aI158
aI88
aI150
aI145
aI66
aI132
aI169
aI93
aI76
aI224
aI130
aI127
aI29
aI18
aI7
aI32
aI213
aI61
aI227
aI12
aI229
aI166
aI201
aI210
aI81
aI24
aI225
aI5
aI89
aI8
aI120
aI140
aI187
aI129
aI170
aI27
aI168
aI112
aI72
aI231
aI109
aI77
aI180
aI206
aI4
aI190
aI2
aI75
aI183
aI78
aI94
aI179
aI111
aI177
aI194
aI86
aI39
aI188
aI141
aI84
aI22
aI228
aI115
aI10
aI153
aI199
aI47
aI185
aI159
aI198
aI163
aI160
aI218
aI106
aI221
aI73
aI176
aI209
aI41
aI152
aI162
aI119
aI211
aI45
aI58
aI35
aI172
aI51
aI99
aI122
aI101
aI50
aI128
aI214
aI11
aI68
aI48
aI134
aI105
aI69
aI139
aI147
aI165
aI82
aI203
aI34
aI223
aI62
aI191
aI55
aI38
aI123
aI42
aI79
aI114
aI26
aI182
aI1
aI6
aI83
aI25
aI156
aI192
aI154
aI144
aI215
aI49
aI59
aI220
aI219
aI74
aI125
aI96
aI151
aI173
aI142
aI33
aI37
aI91
aI148
aI65
aI135
aI200
aI171
aI80
aI133
aI71
aI92
aI186
aI197
aI181
aI15
aI157
aI56
aI167
aI118
aI43
aI189
aI98
aI217
aI138
aI174
aI95
aI204
aI222
aI146
aa(lp12
I13
aI182
aI12
aI223
aI154
aI209
aI201
aI124
aI225
aI135
aI202
aI9
aI143
aI34
aI179
aI19
aI177
aI26
aI58
aI29
aI118
aI222
aI56
aI158
aI106
aI32
aI230
aI204
aI50
aI108
aI184
aI81
aI52
aI220
aI140
aI229
aI75
aI165
aI49
aI168
aI69
aI74
aI228
aI48
aI227
aI191
aI82
aI10
aI117
aI78
aI30
aI31
aI166
aI35
aI226
aI68
aI141
aI187
aI51
aI16
aI18
aI180
aI112
aI6
aI77
aI145
aI21
aI170
aI199
aI70
aI216
aI15
aI121
aI208
aI73
aI8
aI39
aI3
aI93
aI163
aI132
aI91
aI139
aI103
aI133
aI101
aI152
aI114
aI190
aI172
aI23
aI89
aI186
aI200
aI57
aI159
aI169
aI44
aI5
aI193
aI92
aI219
aI146
aI84
aI72
aI97
aI206
aI88
aI71
aI1
aI178
aI212
aI148
aI142
aI83
aI96
aI33
aI207
aI231
aI116
aI20
aI137
aI213
aI11
aI131
aI85
aI105
aI2
aI59
aI98
aI60
aI109
aI100
aI203
aI151
aI36
aI53
aI64
aI147
aI22
aI122
aI215
aI160
aI119
aI196
aI66
aI7
aI210
aI67
aI42
aI95
aI138
aI188
aI111
aI46
aI189
aI144
aI110
aI174
aI150
aI173
aI94
aI25
aI37
aI136
aI0
aI40
aI38
aI183
aI62
aI90
aI17
aI115
aI156
aI87
aI43
aI192
aI125
aI4
aI224
aI123
aI130
aI198
aI153
aI79
aI63
aI205
aI157
aI128
aI107
aI197
aI164
aI55
aI80
aI65
aI24
aI47
aI134
aI175
aI45
aI104
aI221
aI167
aI113
aI194
aI149
aI76
aI14
aI185
aI127
aI41
aI129
aI126
aI211
aI181
aI54
aI217
aI161
aI120
aI195
aI61
aI86
aI218
aI99
aI171
aI214
aI155
aI28
aI102
aI176
aI162
aI27
aa(lp13
I161
aI68
aI61
aI128
aI131
aI64
aI40
aI174
aI11
aI1
aI132
aI26
aI229
aI214
aI224
aI129
aI100
aI0
aI25
aI109
aI115
aI53
aI93
aI23
aI123
aI5
aI52
aI102
aI183
aI99
aI29
aI46
aI57
aI187
aI56
aI194
aI166
aI213
aI171
aI71
aI38
aI226
aI58
aI101
aI119
aI211
aI90
aI72
aI41
aI231
aI190
aI195
aI135
aI89
aI181
aI8
aI59
aI168
aI20
aI221
aI125
aI12
aI113
aI63
aI96
aI10
aI32
aI44
aI95
aI148
aI73
aI218
aI74
aI37
aI156
aI178
aI222
aI36
aI142
aI19
aI106
aI210
aI228
aI31
aI118
aI97
aI15
aI103
aI154
aI200
aI209
aI149
aI162
aI122
aI78
aI139
aI220
aI87
aI130
aI62
aI143
aI80
aI146
aI193
aI206
aI163
aI55
aI14
aI203
aI197
aI227
aI88
aI199
aI47
aI223
aI121
aI50
aI184
aI24
aI217
aI133
aI105
aI136
aI157
aI185
aI94
aI28
aI164
aI179
aI225
aI165
aI140
aI98
aI104
aI175
aI127
aI81
aI86
aI198
aI152
aI216
aI137
aI191
aI66
aI49
aI177
aI176
aI120
aI27
aI69
aI116
aI77
aI173
aI155
aI189
aI2
aI159
aI172
aI33
aI147
aI67
aI160
aI22
aI16
aI108
aI83
aI126
aI65
aI60
aI107
aI230
aI114
aI205
aI110
aI18
aI138
aI42
aI201
aI79
aI196
aI51
aI34
aI144
aI167
aI13
aI188
aI204
aI112
aI75
aI111
aI182
aI54
aI7
aI92
aI39
aI76
aI169
aI117
aI180
aI48
aI35
aI202
aI208
aI9
aI21
aI215
aI85
aI153
aI212
aI30
aI3
aI186
aI4
aI91
aI170
aI82
aI70
aI158
aI151
aI45
aI6
aI207
aI219
aI134
aI150
aI145
aI141
aI192
aI43
aI124
aI17
aI84
aa(lp14
I185
aI165
aI187
aI31
aI12
aI148
aI129
aI125
aI223
aI219
aI44
aI58
aI141
aI67
aI106
aI135
aI156
aI151
aI92
aI27
aI86
aI168
aI138
aI50
aI146
aI202
aI70
aI227
aI174
aI119
aI97
aI183
aI110
aI203
aI221
aI55
aI53
aI117
aI133
aI158
aI23
aI90
aI186
aI198
aI5
aI104
aI170
aI222
aI212
aI79
aI142
aI214
aI132
aI91
aI38
aI182
aI76
aI145
aI14
aI210
aI78
aI112
aI176
aI19
aI11
aI231
aI193
aI226
aI68
aI40
aI89
aI22
aI178
aI84
aI180
aI99
aI26
aI150
aI154
aI32
aI206
aI43
aI166
aI172
aI213
aI201
aI155
aI189
aI120
aI184
aI220
aI216
aI17
aI130
aI114
aI195
aI204
aI39
aI115
aI191
aI60
aI229
aI65
aI33
aI21
aI74
aI113
aI147
aI85
aI134
aI7
aI224
aI139
aI95
aI8
aI173
aI159
aI98
aI62
aI140
aI164
aI81
aI103
aI105
aI59
aI34
aI163
aI153
aI167
aI102
aI75
aI192
aI96
aI175
aI87
aI188
aI9
aI63
aI122
aI24
aI28
aI82
aI208
aI218
aI181
aI123
aI4
aI15
aI157
aI36
aI160
aI64
aI101
aI118
aI230
aI41
aI196
aI30
aI48
aI93
aI0
aI72
aI109
aI94
aI52
aI83
aI3
aI111
aI51
aI124
aI25
aI225
aI169
aI137
aI107
aI205
aI66
aI149
aI1
aI69
aI35
aI2
aI128
aI6
aI45
aI77
aI190
aI199
aI211
aI46
aI42
aI217
aI161
aI47
aI108
aI207
aI197
aI127
aI13
aI49
aI121
aI73
aI20
aI57
aI126
aI162
aI16
aI18
aI37
aI10
aI171
aI54
aI144
aI88
aI200
aI215
aI152
aI80
aI136
aI143
aI177
aI100
aI194
aI61
aI116
aI71
aI56
aI228
aI131
aI179
aI209
aI29
aa(lp15
I177
aI2
aI92
aI145
aI191
aI136
aI89
aI184
aI152
aI64
aI210
aI138
aI140
aI173
aI217
aI215
aI85
aI101
aI11
aI132
aI57
aI0
aI185
aI226
aI24
aI58
aI122
aI55
aI141
aI74
aI43
aI200
aI20
aI6
aI193
aI53
aI44
aI196
aI148
aI18
aI135
aI13
aI211
aI153
aI182
aI110
aI98
aI144
aI199
aI186
aI195
aI164
aI158
aI149
aI128
aI168
aI187
aI227
aI8
aI67
aI36
aI219
aI52
aI121
aI19
aI205
aI3
aI75
aI171
aI37
aI162
aI35
aI161
aI91
aI178
aI213
aI84
aI50
aI77
aI31
aI194
aI206
aI209
aI102
aI22
aI123
aI124
aI125
aI29
aI166
aI12
aI87
aI5
aI61
aI188
aI93
aI76
aI63
aI23
aI222
aI155
aI118
aI60
aI221
aI39
aI169
aI115
aI72
aI99
aI82
aI175
aI113
aI216
aI218
aI131
aI78
aI189
aI107
aI66
aI163
aI129
aI59
aI204
aI165
aI14
aI97
aI156
aI95
aI134
aI83
aI68
aI111
aI47
aI42
aI73
aI116
aI183
aI96
aI88
aI9
aI127
aI17
aI170
aI103
aI54
aI126
aI16
aI106
aI70
aI94
aI159
aI51
aI223
aI181
aI202
aI231
aI65
aI228
aI90
aI15
aI192
aI104
aI56
aI114
aI150
aI30
aI220
aI28
aI69
aI25
aI33
aI21
aI176
aI49
aI81
aI212
aI86
aI207
aI133
aI71
aI109
aI142
aI48
aI112
aI180
aI230
aI80
aI137
aI225
aI108
aI46
aI45
aI10
aI151
aI41
aI1
aI190
aI26
aI79
aI167
aI198
aI117
aI214
aI147
aI154
aI7
aI38
aI34
aI229
aI172
aI208
aI139
aI105
aI62
aI4
aI27
aI32
aI179
aI224
aI100
aI160
aI157
aI203
aI201
aI130
aI143
aI174
aI197
aI119
aI120
aI146
aI40
aa(lp16
I171
aI46
aI112
aI2
aI129
aI226
aI166
aI93
aI49
aI56
aI109
aI62
aI24
aI141
aI187
aI0
aI4
aI145
aI22
aI155
aI67
aI138
aI88
aI203
aI85
aI31
aI39
aI159
aI219
aI94
aI161
aI165
aI209
aI157
aI108
aI193
aI215
aI63
aI6
aI146
aI150
aI53
aI33
aI68
aI204
aI117
aI230
aI99
aI64
aI131
aI181
aI153
aI229
aI177
aI223
aI89
aI95
aI38
aI122
aI84
aI168
aI113
aI70
aI19
aI106
aI66
aI98
aI135
aI195
aI148
aI127
aI60
aI139
aI143
aI175
aI207
aI211
aI140
aI217
aI45
aI40
aI162
aI227
aI151
aI220
aI78
aI18
aI102
aI100
aI28
aI208
aI9
aI107
aI130
aI83
aI224
aI169
aI81
aI76
aI136
aI97
aI182
aI156
aI121
aI185
aI25
aI17
aI137
aI90
aI213
aI43
aI41
aI189
aI134
aI3
aI32
aI71
aI59
aI183
aI74
aI13
aI196
aI119
aI225
aI65
aI214
aI34
aI154
aI222
aI96
aI47
aI147
aI188
aI164
aI179
aI80
aI5
aI191
aI205
aI114
aI180
aI51
aI58
aI228
aI202
aI20
aI14
aI21
aI50
aI142
aI11
aI172
aI82
aI152
aI75
aI124
aI101
aI144
aI158
aI198
aI1
aI105
aI118
aI221
aI173
aI197
aI184
aI12
aI110
aI111
aI69
aI174
aI128
aI8
aI194
aI186
aI160
aI200
aI210
aI54
aI29
aI92
aI206
aI125
aI86
aI26
aI231
aI149
aI123
aI7
aI79
aI167
aI218
aI120
aI132
aI163
aI30
aI116
aI178
aI52
aI199
aI55
aI37
aI133
aI87
aI176
aI42
aI15
aI48
aI27
aI10
aI115
aI216
aI44
aI61
aI91
aI23
aI73
aI170
aI192
aI190
aI36
aI57
aI16
aI72
aI212
aI104
aI35
aI126
aI77
aI201
aI103
aa(lp17
I193
aI156
aI205
aI144
aI1
aI21
aI96
aI222
aI165
aI78
aI24
aI64
aI221
aI11
aI112
aI143
aI218
aI206
aI231
aI70
aI26
aI151
aI211
aI49
aI107
aI85
aI3
aI223
aI31
aI51
aI113
aI6
aI39
aI89
aI146
aI122
aI196
aI213
aI36
aI169
aI152
aI137
aI41
aI18
aI135
aI163
aI8
aI28
aI128
aI200
aI15
aI58
aI186
aI47
aI69
aI81
aI160
aI99
aI147
aI102
aI77
aI20
aI207
aI83
aI183
aI100
aI109
aI57
aI88
aI110
aI27
aI116
aI198
aI22
aI202
aI197
aI111
aI121
aI190
aI43
aI33
aI210
aI4
aI40
aI92
aI103
aI53
aI12
aI164
aI0
aI17
aI157
aI105
aI62
aI32
aI136
aI48
aI76
aI65
aI91
aI155
aI79
aI149
aI30
aI80
aI97
aI82
aI126
aI98
aI52
aI106
aI61
aI175
aI209
aI108
aI56
aI87
aI117
aI134
aI120
aI225
aI195
aI154
aI139
aI5
aI13
aI131
aI37
aI133
aI90
aI125
aI217
aI123
aI101
aI9
aI174
aI215
aI192
aI229
aI176
aI114
aI74
aI184
aI220
aI60
aI181
aI93
aI228
aI148
aI54
aI129
aI132
aI142
aI145
aI168
aI38
aI159
aI124
aI127
aI182
aI73
aI199
aI172
aI59
aI50
aI104
aI185
aI66
aI75
aI63
aI178
aI14
aI162
aI203
aI166
aI216
aI214
aI138
aI204
aI68
aI140
aI67
aI71
aI230
aI118
aI180
aI16
aI119
aI219
aI7
aI94
aI2
aI179
aI173
aI42
aI25
aI208
aI23
aI158
aI29
aI19
aI150
aI167
aI46
aI45
aI224
aI141
aI201
aI161
aI44
aI171
aI55
aI188
aI191
aI170
aI130
aI189
aI84
aI227
aI177
aI115
aI34
aI212
aI194
aI226
aI187
aI10
aI72
aI153
aI35
aI95
aI86
aa(lp18
I193
aI37
aI114
aI54
aI8
aI157
aI192
aI131
aI168
aI181
aI194
aI182
aI1
aI94
aI210
aI133
aI225
aI204
aI218
aI76
aI126
aI223
aI88
aI48
aI62
aI92
aI56
aI185
aI22
aI72
aI31
aI147
aI70
aI195
aI148
aI229
aI52
aI128
aI101
aI90
aI214
aI36
aI171
aI23
aI40
aI116
aI219
aI158
aI49
aI211
aI77
aI87
aI60
aI71
aI187
aI0
aI174
aI178
aI33
aI144
aI120
aI20
aI155
aI78
aI175
aI228
aI125
aI134
aI63
aI208
aI24
aI7
aI209
aI21
aI150
aI166
aI18
aI67
aI156
aI58
aI39
aI161
aI55
aI108
aI152
aI172
aI141
aI14
aI28
aI17
aI196
aI41
aI202
aI140
aI215
aI5
aI46
aI30
aI188
aI119
aI220
aI3
aI217
aI227
aI154
aI170
aI162
aI222
aI226
aI80
aI183
aI122
aI73
aI85
aI29
aI16
aI106
aI26
aI137
aI38
aI124
aI27
aI113
aI45
aI102
aI207
aI198
aI104
aI11
aI216
aI153
aI143
aI82
aI51
aI74
aI2
aI79
aI139
aI19
aI127
aI184
aI167
aI68
aI186
aI160
aI230
aI105
aI173
aI164
aI25
aI50
aI91
aI61
aI115
aI136
aI75
aI10
aI111
aI123
aI96
aI199
aI35
aI93
aI231
aI146
aI84
aI212
aI121
aI180
aI65
aI57
aI47
aI100
aI142
aI13
aI89
aI163
aI179
aI98
aI117
aI110
aI112
aI151
aI165
aI81
aI189
aI6
aI109
aI12
aI34
aI103
aI197
aI99
aI191
aI64
aI9
aI224
aI145
aI44
aI95
aI206
aI203
aI205
aI53
aI169
aI149
aI42
aI15
aI118
aI4
aI59
aI221
aI138
aI213
aI201
aI200
aI83
aI190
aI97
aI176
aI43
aI132
aI129
aI107
aI177
aI135
aI69
aI130
aI86
aI159
aI32
aI66
aa(lp19
I222
aI6
aI77
aI85
aI15
aI199
aI147
aI76
aI39
aI60
aI4
aI79
aI108
aI154
aI95
aI87
aI101
aI2
aI38
aI190
aI176
aI141
aI185
aI193
aI10
aI182
aI56
aI109
aI31
aI45
aI181
aI187
aI196
aI12
aI136
aI121
aI208
aI5
aI113
aI122
aI72
aI14
aI119
aI104
aI156
aI29
aI174
aI144
aI17
aI164
aI229
aI43
aI213
aI41
aI172
aI114
aI71
aI139
aI175
aI73
aI107
aI52
aI82
aI167
aI140
aI69
aI74
aI99
aI8
aI35
aI165
aI7
aI204
aI96
aI153
aI203
aI111
aI98
aI125
aI231
aI142
aI44
aI130
aI81
aI110
aI230
aI20
aI123
aI70
aI48
aI128
aI112
aI34
aI186
aI47
aI206
aI212
aI105
aI160
aI198
aI90
aI46
aI50
aI216
aI146
aI188
aI100
aI170
aI92
aI138
aI37
aI61
aI3
aI215
aI169
aI159
aI93
aI91
aI97
aI115
aI224
aI166
aI183
aI65
aI64
aI13
aI84
aI173
aI1
aI145
aI218
aI179
aI27
aI83
aI94
aI53
aI209
aI66
aI194
aI192
aI59
aI30
aI184
aI135
aI78
aI24
aI217
aI116
aI33
aI143
aI63
aI106
aI150
aI68
aI226
aI18
aI219
aI202
aI23
aI163
aI151
aI49
aI157
aI191
aI54
aI220
aI210
aI9
aI171
aI22
aI228
aI80
aI152
aI124
aI75
aI211
aI0
aI40
aI197
aI32
aI102
aI162
aI207
aI26
aI16
aI89
aI126
aI51
aI227
aI67
aI57
aI161
aI214
aI21
aI132
aI86
aI58
aI120
aI42
aI158
aI149
aI62
aI25
aI11
aI127
aI155
aI195
aI180
aI178
aI201
aI137
aI28
aI88
aI223
aI103
aI118
aI36
aI200
aI168
aI177
aI19
aI189
aI225
aI131
aI129
aI221
aI205
aI55
aI148
aI117
aI134
aI133
aa(lp20
I117
aI118
aI106
aI8
aI134
aI60
aI218
aI181
aI63
aI101
aI7
aI86
aI157
aI17
aI9
aI90
aI31
aI82
aI127
aI80
aI6
aI116
aI61
aI207
aI70
aI104
aI43
aI184
aI10
aI30
aI93
aI144
aI214
aI54
aI163
aI129
aI209
aI67
aI191
aI199
aI138
aI153
aI102
aI28
aI62
aI146
aI167
aI177
aI213
aI206
aI205
aI109
aI37
aI151
aI212
aI24
aI55
aI222
aI187
aI125
aI120
aI185
aI95
aI81
aI115
aI178
aI100
aI228
aI72
aI136
aI11
aI152
aI123
aI13
aI73
aI78
aI83
aI147
aI107
aI189
aI108
aI33
aI66
aI36
aI20
aI168
aI26
aI141
aI111
aI211
aI38
aI89
aI96
aI5
aI195
aI124
aI126
aI169
aI186
aI2
aI156
aI166
aI48
aI226
aI16
aI210
aI41
aI27
aI202
aI56
aI188
aI183
aI40
aI170
aI79
aI59
aI224
aI75
aI22
aI221
aI164
aI182
aI29
aI50
aI0
aI176
aI150
aI98
aI113
aI179
aI148
aI99
aI229
aI219
aI175
aI162
aI171
aI158
aI128
aI57
aI58
aI12
aI114
aI139
aI216
aI142
aI198
aI51
aI231
aI45
aI173
aI110
aI91
aI97
aI155
aI53
aI143
aI190
aI46
aI19
aI194
aI15
aI25
aI140
aI223
aI105
aI69
aI230
aI4
aI44
aI161
aI159
aI77
aI119
aI94
aI132
aI68
aI145
aI1
aI200
aI130
aI71
aI133
aI192
aI39
aI172
aI76
aI52
aI180
aI196
aI149
aI225
aI85
aI201
aI203
aI23
aI217
aI74
aI227
aI88
aI208
aI193
aI137
aI174
aI154
aI121
aI32
aI49
aI122
aI14
aI160
aI87
aI65
aI18
aI103
aI84
aI64
aI34
aI204
aI131
aI215
aI92
aI135
aI197
aI165
aI42
aI112
aI47
aI35
aI21
aI220
aI3
aa.