(lp0
(lp1
I4
aI32
aI1
aI22
aI26
aI20
aI2
aI9
aI25
aI29
aI15
aI0
aI18
aI19
aI10
aI14
aI30
aI27
aI8
aI12
aI28
aI17
aI33
aI13
aI11
aI5
aI35
aI3
aI34
aI21
aI16
aI7
aI23
aI31
aI6
aI24
aa(lp2
I24
aI1
aI4
aI27
aI22
aI9
aI26
aI11
aI30
aI29
aI8
aI32
aI16
aI34
aI6
aI17
aI14
aI15
aI3
aI33
aI23
aI28
aI7
aI18
aI12
aI35
aI19
aI5
aI10
aI2
aI21
aI31
aI25
aI20
aI0
aI13
aa(lp3
I11
aI5
aI26
aI34
aI30
aI20
aI25
aI8
aI24
aI31
aI33
aI28
aI18
aI27
aI16
aI22
aI9
aI3
aI32
aI35
aI0
aI2
aI19
aI12
aI1
aI4
aI15
aI13
aI17
aI23
aI6
aI29
aI7
aI10
aI21
aI14
aa(lp4
I27
aI30
aI8
aI31
aI14
aI28
aI9
aI5
aI25
aI20
aI21
aI11
aI12
aI32
aI6
aI19
aI34
aI13
aI10
aI23
aI3
aI0
aI1
aI4
aI7
aI33
aI16
aI18
aI29
aI24
aI2
aI22
aI15
aI17
aI26
aI35
aa(lp5
I14
aI19
aI33
aI18
aI0
aI16
aI12
aI34
aI20
aI24
aI23
aI10
aI30
aI6
aI17
aI28
aI3
aI4
aI31
aI35
aI1
aI27
aI5
aI2
aI11
aI15
aI25
aI7
aI22
aI8
aI32
aI13
aI26
aI9
aI29
aI21
aa(lp6
I26
aI1
aI14
aI10
aI24
aI8
aI7
aI13
aI27
aI5
aI9
aI19
aI30
aI28
aI0
aI31
aI15
aI11
aI34
aI16
aI33
aI2
aI3
aI17
aI21
aI25
aI22
aI20
aI12
aI23
aI4
aI32
aI6
aI29
aI35
aI18
aa(lp7
I27
aI3
aI1
aI33
aI20
aI11
aI24
aI26
aI28
aI21
aI10
aI34
aI35
aI14
aI12
aI15
aI0
aI5
aI23
aI31
aI13
aI16
aI4
aI32
aI6
aI7
aI2
aI8
aI22
aI25
aI30
aI29
aI19
aI17
aI18
aI9
aa(lp8
I7
aI32
aI23
aI5
aI0
aI24
aI12
aI10
aI2
aI18
aI21
aI28
aI19
aI15
aI3
aI11
aI30
aI33
aI1
aI22
aI20
aI27
aI8
aI25
aI31
aI13
aI14
aI29
aI9
aI16
aI35
aI34
aI4
aI17
aI26
aI6
aa(lp9
I5
aI31
aI16
aI10
aI19
aI30
aI34
aI17
aI33
aI2
aI25
aI28
aI8
aI35
aI7
aI24
aI3
aI26
aI1
aI9
aI27
aI13
aI15
aI0
aI21
aI4
aI12
aI32
aI22
aI11
aI29
aI20
aI23
aI6
aI18
aI14
aa(lp10
I32
aI31
aI2
aI33
aI10
aI20
aI19
aI3
aI28
aI26
aI29
aI35
aI17
aI12
aI5
aI24
aI16
aI21
aI6
aI13
aI8
aI4
aI14
aI34
aI9
aI22
aI23
aI18
aI11
aI1
aI30
aI0
aI15
aI7
aI27
aI25
aa(lp11
I17
aI11
aI16
aI31
aI21
aI32
aI25
aI30
aI19
aI27
aI2
aI12
aI33
aI1
aI7
aI15
aI9
aI6
aI23
aI34
aI24
aI20
aI22
aI10
aI4
aI26
aI13
aI5
aI18
aI28
aI3
aI0
aI35
aI8
aI14
aI29
aa(lp12
I14
aI12
aI26
aI19
aI31
aI15
aI5
aI30
aI4
aI1
aI10
aI0
aI9
aI29
aI18
aI6
aI23
aI32
aI35
aI16
aI22
aI3
aI25
aI13
aI33
aI27
aI17
aI7
aI21
aI20
aI34
aI28
aI2
aI8
aI11
aI24
aa(lp13
I20
aI0
aI5
aI25
aI6
aI35
aI13
aI17
aI9
aI18
aI19
aI11
aI8
aI32
aI7
aI14
aI30
aI4
aI12
aI26
aI21
aI33
aI15
aI23
aI34
aI27
aI10
aI22
aI16
aI28
aI31
aI2
aI3
aI24
aI29
aI1
aa(lp14
I7
aI8
aI24
aI16
aI23
aI21
aI0
aI19
aI34
aI26
aI10
aI30
aI3
aI4
aI20
aI12
aI27
aI2
aI14
aI17
aI11
aI29
aI28
aI32
aI31
aI22
aI33
aI25
aI9
aI6
aI5
aI15
aI35
aI1
aI13
aI18
aa(lp15
I32
aI3
aI27
aI21
aI23
aI35
aI18
aI15
aI16
aI0
aI28
aI11
aI10
aI6
aI8
aI9
aI24
aI31
aI1
aI26
aI5
aI2
aI4
aI33
aI12
aI29
aI22
aI34
aI25
aI14
aI13
aI7
aI30
aI20
aI17
aI19
aa(lp16
I28
aI4
aI12
aI0
aI14
aI6
aI21
aI15
aI3
aI7
aI26
aI29
aI1
aI34
aI19
aI27
aI16
aI11
aI13
aI9
aI18
aI25
aI17
aI10
aI31
aI32
aI33
aI24
aI22
aI30
aI23
aI2
aI8
aI5
aI35
aI20
aa(lp17
I24
aI17
aI33
aI7
aI32
aI21
aI20
aI22
aI19
aI1
aI15
aI35
aI30
aI26
aI16
aI25
aI23
aI0
aI28
aI3
aI6
aI9
aI29
aI4
aI11
aI5
aI10
aI12
aI13
aI31
aI2
aI18
aI14
aI27
aI8
aI34
aa(lp18
I3
aI26
aI6
aI32
aI14
aI8
aI16
aI35
aI30
aI31
aI23
aI5
aI28
aI21
aI4
aI15
aI20
aI24
aI11
aI1
aI33
aI10
aI25
aI34
aI12
aI22
aI2
aI19
aI17
aI0
aI29
aI9
aI18
aI7
aI27
aI13
aa(lp19
I3
aI31
aI24
aI33
aI14
aI6
aI25
aI11
aI32
aI15
aI23
aI27
aI34
aI16
aI21
aI35
aI30
aI29
aI17
aI20
aI18
aI9
aI1
aI13
aI8
aI22
aI0
aI2
aI12
aI28
aI4
aI7
aI19
aI26
aI10
aI5
aa(lp20
I1
aI16
aI24
aI20
aI17
aI27
aI7
aI22
aI2
aI3
aI8
aI6
aI4
aI13
aI18
aI26
aI32
aI31
aI28
aI10
aI14
aI30
aI19
aI0
aI11
aI29
aI5
aI34
aI23
aI9
aI35
aI33
aI21
aI15
aI25
aI12
aa.