(lp0
(lp1
I28
aI14
aI44
aI38
aI22
aI42
aI41
aI1
aI11
aI25
aI10
aI32
aI19
aI9
aI7
aI27
aI20
aI37
aI6
aI39
aI43
aI2
aI26
aI13
aI24
aI5
aI30
aI17
aI4
aI40
aI12
aI31
aI29
aI33
aI21
aI35
aI16
aI18
aI8
aI0
aI36
aI15
aI23
aI3
aI34
aa(lp2
I22
aI44
aI29
aI37
aI25
aI33
aI14
aI8
aI23
aI11
aI15
aI16
aI40
aI2
aI20
aI18
aI7
aI19
aI0
aI41
aI39
aI42
aI43
aI9
aI38
aI26
aI21
aI10
aI30
aI24
aI32
aI1
aI6
aI3
aI5
aI12
aI27
aI36
aI28
aI35
aI34
aI13
aI31
aI4
aI17
aa(lp3
I22
aI28
aI32
aI42
aI30
aI39
aI31
aI23
aI13
aI24
aI14
aI34
aI44
aI16
aI1
aI2
aI43
aI0
aI27
aI17
aI41
aI12
aI20
aI8
aI6
aI9
aI25
aI33
aI40
aI3
aI5
aI4
aI36
aI19
aI11
aI21
aI7
aI38
aI37
aI15
aI35
aI26
aI29
aI18
aI10
aa(lp4
I27
aI26
aI43
aI19
aI20
aI14
aI5
aI10
aI32
aI12
aI16
aI9
aI11
aI4
aI1
aI24
aI39
aI2
aI17
aI31
aI0
aI34
aI25
aI28
aI38
aI29
aI15
aI8
aI30
aI22
aI41
aI23
aI40
aI42
aI7
aI3
aI6
aI44
aI18
aI35
aI13
aI21
aI33
aI37
aI36
aa(lp5
I31
aI35
aI4
aI17
aI3
aI21
aI11
aI0
aI24
aI30
aI22
aI28
aI39
aI16
aI32
aI29
aI10
aI9
aI42
aI33
aI27
aI38
aI19
aI43
aI12
aI15
aI34
aI7
aI13
aI14
aI2
aI6
aI41
aI44
aI37
aI18
aI40
aI36
aI20
aI5
aI1
aI8
aI25
aI26
aI23
aa(lp6
I2
aI26
aI1
aI7
aI27
aI31
aI43
aI25
aI9
aI36
aI40
aI28
aI21
aI19
aI17
aI16
aI3
aI32
aI20
aI33
aI39
aI14
aI23
aI24
aI11
aI0
aI10
aI41
aI12
aI8
aI44
aI5
aI42
aI35
aI34
aI13
aI18
aI29
aI30
aI6
aI15
aI4
aI38
aI37
aI22
aa(lp7
I30
aI38
aI14
aI39
aI41
aI43
aI8
aI44
aI18
aI37
aI42
aI23
aI0
aI29
aI15
aI24
aI40
aI6
aI21
aI32
aI33
aI25
aI7
aI31
aI22
aI5
aI16
aI2
aI11
aI10
aI13
aI4
aI12
aI34
aI19
aI27
aI26
aI35
aI28
aI17
aI9
aI20
aI3
aI1
aI36
aa(lp8
I17
aI10
aI14
aI40
aI42
aI23
aI7
aI43
aI38
aI27
aI4
aI32
aI13
aI44
aI41
aI35
aI24
aI1
aI37
aI29
aI12
aI8
aI3
aI26
aI0
aI30
aI2
aI36
aI33
aI16
aI6
aI9
aI18
aI34
aI5
aI15
aI19
aI39
aI28
aI22
aI20
aI25
aI21
aI11
aI31
aa(lp9
I33
aI41
aI28
aI34
aI4
aI16
aI20
aI23
aI22
aI32
aI36
aI14
aI31
aI13
aI44
aI30
aI29
aI19
aI7
aI40
aI21
aI3
aI39
aI5
aI43
aI27
aI24
aI25
aI8
aI42
aI6
aI35
aI10
aI15
aI2
aI12
aI38
aI9
aI18
aI1
aI37
aI0
aI17
aI11
aI26
aa(lp10
I43
aI11
aI20
aI29
aI33
aI7
aI44
aI17
aI28
aI26
aI35
aI10
aI19
aI18
aI4
aI30
aI37
aI42
aI21
aI23
aI39
aI31
aI5
aI25
aI40
aI6
aI36
aI34
aI2
aI41
aI15
aI13
aI24
aI38
aI3
aI27
aI0
aI12
aI8
aI22
aI32
aI14
aI16
aI9
aI1
aa(lp11
I40
aI31
aI30
aI10
aI16
aI44
aI9
aI0
aI33
aI36
aI19
aI22
aI25
aI8
aI6
aI18
aI12
aI1
aI26
aI15
aI4
aI3
aI43
aI13
aI41
aI2
aI21
aI34
aI23
aI20
aI11
aI24
aI35
aI38
aI28
aI17
aI7
aI5
aI37
aI32
aI29
aI39
aI42
aI27
aI14
aa(lp12
I37
aI0
aI40
aI41
aI17
aI21
aI34
aI7
aI1
aI14
aI16
aI6
aI26
aI13
aI39
aI27
aI15
aI42
aI12
aI32
aI2
aI18
aI28
aI9
aI35
aI22
aI30
aI44
aI31
aI4
aI36
aI38
aI11
aI23
aI8
aI10
aI33
aI29
aI3
aI5
aI25
aI19
aI20
aI24
aI43
aa(lp13
I26
aI16
aI20
aI15
aI43
aI0
aI6
aI25
aI27
aI24
aI39
aI12
aI11
aI17
aI4
aI14
aI40
aI29
aI37
aI33
aI44
aI36
aI2
aI10
aI7
aI41
aI42
aI28
aI19
aI21
aI23
aI31
aI34
aI38
aI32
aI3
aI18
aI8
aI35
aI30
aI1
aI5
aI22
aI9
aI13
aa(lp14
I30
aI3
aI18
aI38
aI37
aI28
aI0
aI13
aI22
aI43
aI10
aI44
aI34
aI24
aI11
aI32
aI31
aI39
aI16
aI40
aI41
aI8
aI21
aI2
aI29
aI12
aI26
aI20
aI23
aI14
aI1
aI5
aI4
aI25
aI17
aI6
aI27
aI7
aI42
aI9
aI19
aI35
aI15
aI36
aI33
aa(lp15
I22
aI32
aI12
aI27
aI18
aI39
aI30
aI1
aI35
aI43
aI19
aI11
aI25
aI33
aI21
aI31
aI6
aI29
aI8
aI23
aI0
aI2
aI42
aI20
aI5
aI36
aI14
aI28
aI9
aI10
aI4
aI34
aI17
aI16
aI24
aI37
aI15
aI26
aI38
aI40
aI41
aI13
aI7
aI3
aI44
aa(lp16
I5
aI1
aI17
aI22
aI32
aI25
aI39
aI10
aI40
aI23
aI7
aI21
aI18
aI12
aI34
aI11
aI30
aI2
aI8
aI15
aI4
aI0
aI9
aI19
aI20
aI42
aI29
aI37
aI31
aI13
aI44
aI14
aI24
aI28
aI38
aI36
aI27
aI3
aI35
aI43
aI16
aI26
aI6
aI33
aI41
aa(lp17
I6
aI25
aI13
aI33
aI26
aI16
aI42
aI34
aI41
aI43
aI2
aI14
aI22
aI12
aI39
aI15
aI28
aI38
aI23
aI24
aI29
aI7
aI37
aI21
aI40
aI5
aI4
aI35
aI3
aI20
aI10
aI19
aI44
aI1
aI30
aI17
aI18
aI9
aI36
aI0
aI32
aI8
aI27
aI11
aI31
aa(lp18
I24
aI15
aI0
aI35
aI3
aI31
aI43
aI7
aI9
aI16
aI25
aI21
aI4
aI29
aI44
aI28
aI12
aI8
aI17
aI40
aI37
aI39
aI6
aI34
aI1
aI11
aI27
aI14
aI13
aI42
aI2
aI30
aI20
aI33
aI23
aI26
aI36
aI5
aI18
aI22
aI38
aI19
aI10
aI41
aI32
aa(lp19
I9
aI19
aI8
aI4
aI25
aI41
aI1
aI30
aI37
aI31
aI42
aI17
aI7
aI21
aI11
aI12
aI0
aI13
aI32
aI44
aI43
aI23
aI3
aI27
aI33
aI28
aI35
aI5
aI15
aI2
aI6
aI36
aI26
aI14
aI40
aI24
aI18
aI22
aI38
aI29
aI16
aI39
aI34
aI10
aI20
aa(lp20
I25
aI6
aI24
aI43
aI28
aI18
aI35
aI14
aI13
aI11
aI40
aI2
aI42
aI39
aI8
aI26
aI44
aI15
aI10
aI37
aI30
aI41
aI27
aI20
aI5
aI36
aI4
aI9
aI22
aI38
aI33
aI16
aI3
aI32
aI17
aI1
aI34
aI31
aI0
aI23
aI12
aI29
aI7
aI19
aI21
aa.