(lp0
(lp1
I283
aI6
aI346
aI402
aI141
aI290
aI49
aI217
aI274
aI96
aI340
aI299
aI313
aI10
aI210
aI57
aI375
aI116
aI411
aI240
aI86
aI401
aI180
aI371
aI410
aI314
aI212
aI415
aI285
aI386
aI31
aI391
aI214
aI223
aI336
aI53
aI269
aI127
aI61
aI164
aI400
aI89
aI237
aI29
aI174
aI332
aI309
aI399
aI151
aI412
aI24
aI230
aI362
aI171
aI389
aI294
aI326
aI63
aI85
aI368
aI341
aI264
aI115
aI191
aI110
aI252
aI17
aI355
aI380
aI126
aI373
aI56
aI32
aI262
aI384
aI182
aI408
aI14
aI293
aI277
aI26
aI333
aI385
aI123
aI291
aI184
aI82
aI323
aI245
aI241
aI345
aI266
aI351
aI142
aI77
aI334
aI128
aI66
aI403
aI4
aI27
aI319
aI189
aI48
aI236
aI413
aI286
aI173
aI41
aI393
aI267
aI80
aI93
aI305
aI59
aI121
aI387
aI15
aI257
aI98
aI394
aI193
aI55
aI76
aI297
aI119
aI134
aI202
aI185
aI70
aI38
aI343
aI347
aI198
aI196
aI365
aI369
aI111
aI83
aI99
aI388
aI395
aI406
aI250
aI0
aI383
aI12
aI372
aI218
aI321
aI97
aI194
aI187
aI318
aI238
aI273
aI208
aI118
aI192
aI30
aI152
aI377
aI103
aI108
aI162
aI69
aI260
aI338
aI122
aI84
aI282
aI11
aI398
aI253
aI21
aI90
aI166
aI284
aI91
aI221
aI220
aI177
aI44
aI288
aI188
aI112
aI113
aI75
aI363
aI225
aI254
aI356
aI9
aI133
aI348
aI200
aI382
aI416
aI179
aI246
aI342
aI308
aI376
aI301
aI215
aI146
aI404
aI25
aI46
aI104
aI149
aI248
aI216
aI168
aI58
aI92
aI337
aI109
aI183
aI78
aI219
aI165
aI175
aI167
aI207
aI311
aI396
aI234
aI261
aI307
aI325
aI255
aI155
aI64
aI249
aI135
aI265
aI8
aI317
aI36
aI181
aI357
aI239
aI129
aI120
aI37
aI178
aI242
aI100
aI312
aI292
aI303
aI206
aI329
aI20
aI367
aI259
aI364
aI107
aI235
aI361
aI163
aI3
aI295
aI271
aI71
aI330
aI88
aI170
aI34
aI33
aI390
aI339
aI350
aI150
aI137
aI139
aI105
aI315
aI81
aI366
aI275
aI405
aI296
aI302
aI272
aI374
aI231
aI232
aI72
aI132
aI145
aI13
aI270
aI130
aI19
aI124
aI22
aI40
aI201
aI65
aI140
aI279
aI18
aI258
aI354
aI190
aI73
aI153
aI304
aI379
aI176
aI160
aI227
aI353
aI327
aI359
aI360
aI158
aI397
aI226
aI23
aI138
aI43
aI280
aI381
aI310
aI243
aI94
aI417
aI203
aI117
aI195
aI39
aI335
aI68
aI407
aI306
aI106
aI328
aI349
aI50
aI131
aI268
aI199
aI2
aI186
aI204
aI263
aI114
aI35
aI352
aI276
aI45
aI1
aI125
aI298
aI344
aI287
aI247
aI16
aI205
aI392
aI300
aI147
aI136
aI143
aI7
aI213
aI414
aI74
aI281
aI229
aI233
aI256
aI197
aI60
aI101
aI144
aI316
aI62
aI320
aI67
aI378
aI159
aI54
aI278
aI148
aI209
aI28
aI95
aI51
aI156
aI211
aI42
aI331
aI289
aI324
aI157
aI87
aI169
aI251
aI224
aI79
aI370
aI47
aI358
aI52
aI409
aI161
aI5
aI102
aI222
aI172
aI228
aI244
aI154
aI322
aa(lp2
I258
aI207
aI336
aI310
aI164
aI302
aI186
aI49
aI326
aI88
aI171
aI366
aI379
aI374
aI48
aI194
aI98
aI68
aI228
aI54
aI89
aI222
aI62
aI53
aI26
aI155
aI239
aI304
aI229
aI217
aI141
aI117
aI381
aI354
aI202
aI344
aI109
aI87
aI210
aI6
aI45
aI301
aI406
aI300
aI261
aI38
aI237
aI309
aI291
aI5
aI43
aI368
aI24
aI257
aI204
aI37
aI18
aI80
aI177
aI290
aI321
aI40
aI299
aI198
aI135
aI209
aI102
aI27
aI25
aI159
aI34
aI100
aI401
aI108
aI363
aI14
aI213
aI7
aI9
aI140
aI236
aI244
aI138
aI180
aI178
aI378
aI297
aI179
aI90
aI142
aI160
aI351
aI286
aI86
aI383
aI388
aI215
aI118
aI356
aI407
aI358
aI172
aI224
aI190
aI350
aI4
aI312
aI241
aI226
aI277
aI416
aI317
aI284
aI111
aI123
aI21
aI29
aI232
aI63
aI173
aI307
aI332
aI369
aI223
aI362
aI334
aI292
aI170
aI352
aI79
aI328
aI403
aI221
aI289
aI345
aI126
aI8
aI270
aI115
aI94
aI315
aI357
aI19
aI200
aI327
aI203
aI120
aI52
aI311
aI124
aI251
aI252
aI375
aI91
aI250
aI225
aI296
aI385
aI413
aI338
aI205
aI333
aI220
aI151
aI353
aI192
aI253
aI246
aI240
aI415
aI74
aI12
aI266
aI136
aI156
aI382
aI121
aI330
aI387
aI265
aI234
aI339
aI44
aI405
aI319
aI10
aI131
aI93
aI105
aI391
aI3
aI67
aI157
aI323
aI39
aI132
aI288
aI175
aI273
aI0
aI267
aI96
aI11
aI335
aI276
aI367
aI274
aI83
aI320
aI384
aI389
aI399
aI298
aI104
aI150
aI264
aI176
aI295
aI20
aI28
aI271
aI107
aI113
aI77
aI206
aI50
aI166
aI230
aI306
aI248
aI247
aI329
aI201
aI285
aI262
aI99
aI340
aI70
aI238
aI386
aI392
aI256
aI187
aI260
aI208
aI313
aI395
aI371
aI76
aI370
aI390
aI22
aI318
aI398
aI283
aI185
aI125
aI402
aI161
aI191
aI359
aI394
aI343
aI245
aI282
aI268
aI15
aI218
aI255
aI149
aI417
aI216
aI337
aI294
aI73
aI163
aI167
aI78
aI71
aI197
aI116
aI348
aI254
aI409
aI165
aI303
aI82
aI84
aI325
aI85
aI58
aI106
aI361
aI184
aI414
aI305
aI196
aI33
aI13
aI347
aI137
aI360
aI341
aI130
aI57
aI127
aI364
aI380
aI400
aI148
aI193
aI72
aI174
aI342
aI60
aI146
aI397
aI316
aI97
aI231
aI410
aI377
aI372
aI263
aI152
aI2
aI272
aI134
aI346
aI188
aI279
aI56
aI128
aI411
aI51
aI355
aI92
aI66
aI412
aI365
aI59
aI129
aI144
aI16
aI287
aI64
aI168
aI281
aI145
aI189
aI242
aI235
aI227
aI322
aI308
aI396
aI349
aI214
aI69
aI133
aI393
aI324
aI65
aI61
aI46
aI233
aI81
aI101
aI35
aI331
aI181
aI110
aI153
aI41
aI269
aI55
aI259
aI408
aI183
aI17
aI169
aI103
aI154
aI32
aI212
aI36
aI143
aI158
aI278
aI75
aI42
aI182
aI373
aI30
aI293
aI114
aI122
aI243
aI195
aI404
aI23
aI219
aI199
aI162
aI376
aI147
aI314
aI1
aI47
aI249
aI280
aI211
aI275
aI139
aI95
aI119
aI112
aI31
aa(lp3
I118
aI175
aI161
aI91
aI237
aI89
aI185
aI4
aI298
aI108
aI41
aI365
aI80
aI207
aI180
aI269
aI363
aI313
aI294
aI84
aI90
aI115
aI398
aI366
aI381
aI209
aI239
aI262
aI285
aI382
aI303
aI222
aI356
aI348
aI152
aI403
aI62
aI53
aI120
aI330
aI116
aI99
aI92
aI405
aI29
aI11
aI320
aI140
aI114
aI98
aI74
aI347
aI240
aI61
aI375
aI353
aI380
aI48
aI166
aI186
aI284
aI400
aI107
aI136
aI69
aI316
aI102
aI135
aI219
aI386
aI221
aI396
aI87
aI417
aI93
aI146
aI337
aI255
aI317
aI261
aI295
aI138
aI329
aI50
aI164
aI143
aI220
aI157
aI153
aI312
aI367
aI182
aI3
aI394
aI113
aI224
aI282
aI292
aI392
aI288
aI181
aI151
aI19
aI333
aI374
aI189
aI307
aI13
aI236
aI23
aI123
aI213
aI399
aI274
aI43
aI385
aI130
aI301
aI401
aI227
aI49
aI293
aI281
aI361
aI395
aI86
aI59
aI165
aI1
aI371
aI0
aI277
aI178
aI308
aI231
aI128
aI232
aI336
aI315
aI24
aI266
aI9
aI270
aI383
aI199
aI326
aI76
aI217
aI147
aI253
aI297
aI257
aI169
aI68
aI378
aI218
aI30
aI342
aI97
aI391
aI8
aI331
aI184
aI46
aI148
aI162
aI350
aI142
aI310
aI267
aI109
aI323
aI47
aI286
aI188
aI134
aI291
aI110
aI101
aI10
aI31
aI352
aI105
aI12
aI58
aI341
aI335
aI376
aI51
aI358
aI75
aI327
aI56
aI338
aI154
aI223
aI229
aI117
aI163
aI94
aI25
aI22
aI289
aI402
aI230
aI79
aI360
aI177
aI194
aI390
aI40
aI254
aI235
aI119
aI408
aI124
aI190
aI193
aI359
aI167
aI345
aI159
aI299
aI305
aI197
aI156
aI311
aI283
aI364
aI244
aI33
aI7
aI296
aI344
aI78
aI16
aI372
aI354
aI127
aI328
aI334
aI340
aI260
aI63
aI73
aI202
aI278
aI241
aI228
aI95
aI65
aI225
aI183
aI349
aI82
aI322
aI145
aI187
aI64
aI141
aI393
aI275
aI324
aI35
aI100
aI362
aI168
aI15
aI45
aI411
aI36
aI321
aI397
aI176
aI379
aI20
aI268
aI304
aI191
aI272
aI258
aI384
aI273
aI214
aI28
aI55
aI373
aI414
aI174
aI129
aI242
aI54
aI208
aI248
aI279
aI233
aI155
aI290
aI106
aI309
aI196
aI150
aI200
aI206
aI96
aI195
aI149
aI71
aI17
aI404
aI302
aI179
aI409
aI211
aI407
aI287
aI388
aI264
aI265
aI256
aI192
aI139
aI38
aI81
aI280
aI131
aI66
aI343
aI158
aI34
aI319
aI44
aI276
aI410
aI325
aI243
aI201
aI137
aI14
aI171
aI238
aI234
aI126
aI205
aI57
aI37
aI26
aI172
aI125
aI133
aI210
aI67
aI413
aI271
aI27
aI88
aI351
aI263
aI368
aI346
aI160
aI204
aI72
aI132
aI387
aI370
aI77
aI332
aI5
aI104
aI246
aI144
aI247
aI415
aI111
aI2
aI215
aI318
aI52
aI314
aI18
aI416
aI249
aI259
aI6
aI203
aI377
aI245
aI42
aI121
aI21
aI357
aI251
aI369
aI85
aI226
aI306
aI406
aI32
aI60
aI412
aI212
aI250
aI216
aI339
aI70
aI103
aI300
aI83
aI355
aI170
aI112
aI173
aI389
aI122
aI252
aI39
aI198
aa(lp4
I406
aI329
aI51
aI148
aI61
aI202
aI9
aI175
aI4
aI350
aI338
aI297
aI182
aI251
aI268
aI223
aI214
aI380
aI270
aI247
aI184
aI17
aI339
aI33
aI392
aI115
aI323
aI348
aI366
aI114
aI293
aI383
aI117
aI25
aI129
aI110
aI185
aI361
aI125
aI246
aI341
aI264
aI364
aI193
aI309
aI351
aI322
aI411
aI179
aI404
aI346
aI284
aI186
aI197
aI97
aI72
aI67
aI123
aI256
aI0
aI107
aI229
aI299
aI170
aI328
aI207
aI46
aI35
aI135
aI74
aI189
aI263
aI140
aI10
aI292
aI312
aI384
aI261
aI168
aI230
aI218
aI238
aI52
aI6
aI370
aI356
aI56
aI41
aI360
aI415
aI267
aI15
aI78
aI407
aI321
aI399
aI68
aI233
aI124
aI325
aI163
aI347
aI410
aI194
aI105
aI94
aI37
aI118
aI153
aI318
aI31
aI250
aI23
aI353
aI62
aI155
aI111
aI70
aI219
aI316
aI191
aI282
aI174
aI29
aI106
aI83
aI137
aI273
aI377
aI109
aI172
aI162
aI371
aI166
aI126
aI165
aI394
aI319
aI363
aI89
aI199
aI232
aI357
aI417
aI22
aI402
aI389
aI157
aI156
aI349
aI388
aI26
aI160
aI240
aI333
aI101
aI300
aI19
aI220
aI330
aI131
aI36
aI298
aI60
aI92
aI113
aI169
aI259
aI190
aI340
aI133
aI283
aI43
aI42
aI395
aI48
aI65
aI365
aI265
aI301
aI1
aI149
aI279
aI47
aI386
aI132
aI239
aI39
aI99
aI285
aI75
aI252
aI217
aI416
aI379
aI382
aI244
aI245
aI248
aI127
aI128
aI355
aI313
aI274
aI82
aI5
aI96
aI221
aI64
aI409
aI21
aI122
aI358
aI18
aI57
aI40
aI209
aI337
aI236
aI302
aI390
aI143
aI8
aI275
aI308
aI49
aI288
aI272
aI130
aI95
aI103
aI216
aI138
aI342
aI286
aI147
aI3
aI281
aI181
aI271
aI408
aI93
aI295
aI152
aI335
aI305
aI59
aI403
aI343
aI266
aI183
aI398
aI187
aI112
aI80
aI161
aI324
aI381
aI2
aI255
aI210
aI32
aI27
aI159
aI55
aI79
aI180
aI278
aI205
aI235
aI311
aI146
aI177
aI178
aI73
aI44
aI387
aI136
aI315
aI374
aI306
aI378
aI413
aI91
aI317
aI241
aI291
aI326
aI314
aI373
aI16
aI393
aI400
aI38
aI11
aI320
aI151
aI206
aI176
aI262
aI257
aI249
aI304
aI277
aI120
aI226
aI414
aI69
aI141
aI198
aI310
aI369
aI334
aI34
aI58
aI224
aI66
aI397
aI139
aI167
aI215
aI158
aI231
aI98
aI24
aI227
aI173
aI396
aI354
aI145
aI20
aI154
aI50
aI81
aI307
aI303
aI344
aI142
aI102
aI237
aI401
aI76
aI352
aI171
aI203
aI294
aI188
aI375
aI54
aI359
aI228
aI7
aI200
aI192
aI405
aI77
aI258
aI90
aI345
aI327
aI276
aI331
aI150
aI88
aI108
aI212
aI289
aI211
aI367
aI234
aI30
aI376
aI104
aI213
aI14
aI222
aI119
aI254
aI53
aI253
aI260
aI269
aI13
aI412
aI225
aI63
aI332
aI28
aI372
aI287
aI84
aI85
aI195
aI100
aI121
aI296
aI385
aI290
aI87
aI116
aI86
aI45
aI368
aI12
aI204
aI280
aI243
aI71
aI196
aI134
aI362
aI242
aI208
aI144
aI336
aI164
aI391
aI201
aa(lp5
I385
aI3
aI264
aI278
aI21
aI417
aI178
aI299
aI18
aI185
aI408
aI164
aI175
aI188
aI224
aI100
aI62
aI173
aI24
aI10
aI359
aI332
aI282
aI31
aI239
aI290
aI45
aI77
aI365
aI394
aI366
aI287
aI2
aI76
aI285
aI375
aI50
aI211
aI113
aI209
aI101
aI274
aI319
aI230
aI252
aI246
aI358
aI343
aI327
aI304
aI32
aI407
aI192
aI286
aI364
aI409
aI114
aI269
aI6
aI315
aI277
aI202
aI310
aI350
aI248
aI143
aI71
aI294
aI151
aI253
aI129
aI342
aI397
aI402
aI44
aI346
aI219
aI198
aI387
aI165
aI262
aI142
aI313
aI373
aI212
aI388
aI360
aI296
aI160
aI291
aI354
aI338
aI340
aI331
aI111
aI193
aI322
aI396
aI305
aI131
aI95
aI333
aI308
aI66
aI53
aI153
aI321
aI249
aI213
aI236
aI302
aI348
aI318
aI369
aI128
aI416
aI43
aI406
aI221
aI61
aI58
aI126
aI72
aI386
aI222
aI70
aI254
aI42
aI216
aI401
aI203
aI412
aI275
aI33
aI110
aI362
aI258
aI241
aI297
aI75
aI174
aI79
aI272
aI139
aI196
aI303
aI149
aI330
aI245
aI276
aI251
aI180
aI54
aI261
aI339
aI344
aI184
aI40
aI227
aI187
aI177
aI13
aI171
aI123
aI324
aI218
aI265
aI25
aI337
aI104
aI98
aI82
aI73
aI51
aI341
aI48
aI67
aI121
aI281
aI99
aI393
aI103
aI208
aI334
aI28
aI326
aI102
aI57
aI288
aI320
aI88
aI389
aI392
aI242
aI11
aI35
aI86
aI38
aI411
aI64
aI336
aI161
aI4
aI150
aI41
aI109
aI415
aI317
aI30
aI189
aI80
aI83
aI168
aI270
aI220
aI36
aI190
aI12
aI382
aI115
aI381
aI119
aI122
aI26
aI49
aI312
aI353
aI96
aI59
aI378
aI370
aI356
aI292
aI328
aI124
aI87
aI5
aI307
aI204
aI284
aI195
aI376
aI355
aI146
aI199
aI289
aI65
aI81
aI152
aI232
aI147
aI357
aI266
aI325
aI247
aI352
aI29
aI351
aI233
aI223
aI116
aI117
aI108
aI127
aI22
aI260
aI300
aI263
aI183
aI84
aI176
aI140
aI194
aI413
aI368
aI347
aI226
aI238
aI273
aI37
aI52
aI259
aI379
aI243
aI384
aI133
aI90
aI214
aI345
aI107
aI361
aI74
aI279
aI167
aI34
aI144
aI404
aI46
aI240
aI377
aI383
aI207
aI363
aI97
aI271
aI158
aI374
aI182
aI145
aI215
aI257
aI68
aI148
aI234
aI395
aI63
aI311
aI329
aI206
aI217
aI403
aI309
aI228
aI7
aI200
aI94
aI172
aI157
aI55
aI16
aI93
aI170
aI78
aI85
aI191
aI166
aI371
aI225
aI118
aI106
aI8
aI400
aI69
aI130
aI125
aI295
aI268
aI283
aI201
aI301
aI138
aI163
aI47
aI134
aI136
aI89
aI156
aI56
aI27
aI159
aI92
aI23
aI398
aI17
aI132
aI154
aI0
aI112
aI14
aI410
aI205
aI105
aI267
aI60
aI237
aI181
aI120
aI231
aI314
aI91
aI298
aI405
aI19
aI235
aI306
aI1
aI179
aI380
aI414
aI155
aI141
aI15
aI162
aI9
aI399
aI316
aI372
aI390
aI293
aI256
aI349
aI244
aI229
aI197
aI255
aI250
aI210
aI135
aI169
aI137
aI280
aI367
aI39
aI391
aI186
aI335
aI323
aI20
aa(lp6
I136
aI19
aI190
aI290
aI124
aI97
aI261
aI130
aI312
aI388
aI232
aI76
aI236
aI221
aI150
aI204
aI318
aI59
aI47
aI192
aI132
aI182
aI294
aI247
aI78
aI38
aI350
aI7
aI237
aI257
aI44
aI344
aI197
aI114
aI23
aI191
aI142
aI335
aI133
aI355
aI354
aI339
aI93
aI266
aI73
aI109
aI356
aI407
aI1
aI206
aI302
aI349
aI310
aI218
aI259
aI180
aI22
aI346
aI412
aI3
aI87
aI31
aI33
aI219
aI273
aI157
aI39
aI333
aI81
aI389
aI152
aI13
aI373
aI51
aI36
aI58
aI171
aI176
aI61
aI95
aI118
aI186
aI297
aI48
aI363
aI21
aI75
aI67
aI110
aI347
aI366
aI397
aI105
aI368
aI385
aI15
aI410
aI384
aI336
aI42
aI296
aI208
aI269
aI41
aI125
aI5
aI159
aI400
aI239
aI244
aI32
aI196
aI235
aI107
aI287
aI367
aI16
aI405
aI323
aI167
aI285
aI324
aI194
aI394
aI321
aI353
aI139
aI60
aI228
aI111
aI351
aI193
aI104
aI300
aI415
aI374
aI276
aI120
aI57
aI293
aI380
aI129
aI260
aI224
aI398
aI28
aI282
aI304
aI246
aI242
aI178
aI135
aI359
aI256
aI227
aI220
aI386
aI250
aI53
aI301
aI286
aI160
aI404
aI49
aI341
aI307
aI271
aI40
aI189
aI416
aI408
aI64
aI92
aI134
aI10
aI96
aI331
aI309
aI30
aI188
aI223
aI277
aI12
aI85
aI345
aI270
aI390
aI166
aI83
aI391
aI325
aI6
aI140
aI292
aI177
aI279
aI348
aI4
aI195
aI245
aI311
aI288
aI387
aI17
aI65
aI148
aI162
aI200
aI202
aI328
aI70
aI330
aI362
aI315
aI284
aI370
aI340
aI161
aI14
aI268
aI121
aI199
aI240
aI361
aI222
aI308
aI364
aI155
aI183
aI147
aI174
aI205
aI90
aI214
aI342
aI34
aI86
aI327
aI303
aI100
aI203
aI144
aI376
aI372
aI210
aI230
aI382
aI280
aI320
aI68
aI265
aI281
aI338
aI217
aI213
aI216
aI267
aI137
aI212
aI272
aI274
aI91
aI99
aI313
aI322
aI316
aI62
aI252
aI72
aI241
aI149
aI231
aI417
aI253
aI113
aI77
aI151
aI173
aI184
aI106
aI295
aI141
aI264
aI116
aI314
aI329
aI25
aI326
aI115
aI45
aI401
aI82
aI305
aI46
aI179
aI377
aI209
aI411
aI138
aI80
aI37
aI98
aI79
aI123
aI164
aI360
aI243
aI2
aI403
aI371
aI187
aI185
aI24
aI165
aI207
aI50
aI128
aI381
aI9
aI369
aI298
aI262
aI211
aI131
aI251
aI0
aI375
aI126
aI112
aI234
aI365
aI383
aI89
aI379
aI54
aI172
aI94
aI119
aI233
aI357
aI8
aI74
aI275
aI393
aI258
aI248
aI299
aI52
aI337
aI84
aI306
aI334
aI378
aI278
aI289
aI108
aI395
aI392
aI69
aI146
aI43
aI11
aI103
aI352
aI358
aI283
aI291
aI263
aI215
aI343
aI254
aI122
aI88
aI409
aI55
aI27
aI127
aI35
aI238
aI181
aI154
aI117
aI101
aI143
aI249
aI414
aI255
aI201
aI29
aI332
aI229
aI71
aI399
aI18
aI158
aI175
aI225
aI153
aI226
aI26
aI317
aI102
aI170
aI156
aI63
aI163
aI56
aI198
aI406
aI396
aI66
aI20
aI169
aI168
aI319
aI402
aI145
aI413
aa(lp7
I25
aI303
aI145
aI396
aI315
aI186
aI2
aI58
aI394
aI282
aI226
aI20
aI11
aI232
aI217
aI39
aI160
aI149
aI323
aI18
aI339
aI354
aI309
aI135
aI289
aI131
aI385
aI320
aI3
aI203
aI36
aI228
aI349
aI374
aI200
aI126
aI392
aI142
aI98
aI192
aI91
aI14
aI4
aI208
aI397
aI72
aI223
aI44
aI152
aI155
aI314
aI390
aI404
aI333
aI148
aI235
aI79
aI285
aI335
aI412
aI267
aI278
aI71
aI212
aI300
aI173
aI70
aI112
aI87
aI376
aI264
aI114
aI332
aI194
aI343
aI191
aI259
aI100
aI269
aI288
aI386
aI328
aI78
aI166
aI6
aI304
aI51
aI387
aI163
aI388
aI123
aI15
aI301
aI324
aI23
aI92
aI115
aI133
aI211
aI287
aI381
aI85
aI95
aI1
aI393
aI40
aI361
aI116
aI120
aI174
aI209
aI128
aI363
aI256
aI201
aI146
aI406
aI338
aI80
aI266
aI293
aI305
aI260
aI109
aI183
aI93
aI177
aI382
aI122
aI373
aI110
aI358
aI416
aI199
aI414
aI184
aI108
aI337
aI153
aI27
aI272
aI263
aI38
aI107
aI244
aI215
aI372
aI398
aI403
aI241
aI147
aI56
aI334
aI46
aI61
aI24
aI54
aI401
aI193
aI0
aI270
aI410
aI178
aI103
aI331
aI342
aI219
aI28
aI5
aI157
aI379
aI280
aI237
aI90
aI222
aI34
aI48
aI41
aI375
aI170
aI132
aI134
aI371
aI75
aI294
aI37
aI290
aI30
aI156
aI240
aI50
aI42
aI9
aI246
aI138
aI350
aI364
aI77
aI279
aI60
aI21
aI216
aI81
aI221
aI66
aI29
aI286
aI225
aI181
aI248
aI367
aI268
aI273
aI96
aI283
aI204
aI341
aI321
aI347
aI53
aI292
aI82
aI351
aI10
aI234
aI340
aI362
aI348
aI196
aI313
aI295
aI411
aI43
aI8
aI130
aI124
aI26
aI141
aI172
aI298
aI73
aI31
aI12
aI102
aI400
aI399
aI139
aI346
aI117
aI252
aI258
aI19
aI190
aI257
aI206
aI63
aI86
aI384
aI47
aI310
aI238
aI159
aI210
aI104
aI326
aI205
aI161
aI162
aI113
aI236
aI227
aI250
aI409
aI380
aI52
aI318
aI407
aI195
aI391
aI322
aI243
aI45
aI137
aI352
aI64
aI230
aI368
aI67
aI395
aI359
aI242
aI405
aI89
aI169
aI370
aI344
aI189
aI118
aI144
aI165
aI265
aI316
aI296
aI365
aI254
aI33
aI224
aI22
aI249
aI105
aI345
aI281
aI129
aI357
aI220
aI247
aI158
aI69
aI175
aI329
aI369
aI356
aI171
aI164
aI187
aI312
aI245
aI202
aI271
aI274
aI255
aI353
aI355
aI68
aI231
aI389
aI154
aI65
aI83
aI125
aI150
aI253
aI84
aI233
aI360
aI251
aI214
aI127
aI16
aI299
aI59
aI284
aI378
aI417
aI262
aI62
aI330
aI218
aI140
aI17
aI415
aI7
aI151
aI94
aI88
aI97
aI111
aI319
aI261
aI168
aI76
aI179
aI213
aI336
aI35
aI180
aI276
aI317
aI308
aI311
aI297
aI185
aI32
aI74
aI198
aI229
aI277
aI182
aI99
aI136
aI49
aI239
aI325
aI307
aI327
aI55
aI366
aI167
aI377
aI119
aI13
aI408
aI413
aI291
aI176
aI383
aI306
aI275
aI197
aI302
aI106
aI402
aI101
aI143
aI188
aI57
aI207
aI121
aa(lp8
I202
aI233
aI260
aI82
aI289
aI27
aI374
aI288
aI209
aI54
aI44
aI177
aI354
aI141
aI279
aI409
aI8
aI18
aI221
aI32
aI224
aI411
aI74
aI46
aI403
aI95
aI286
aI119
aI336
aI55
aI17
aI85
aI187
aI270
aI204
aI143
aI61
aI77
aI36
aI227
aI155
aI324
aI64
aI299
aI111
aI122
aI47
aI135
aI19
aI170
aI380
aI300
aI359
aI269
aI325
aI381
aI265
aI103
aI398
aI317
aI163
aI405
aI87
aI106
aI108
aI353
aI16
aI360
aI90
aI136
aI298
aI346
aI41
aI309
aI383
aI26
aI21
aI315
aI371
aI343
aI144
aI133
aI358
aI211
aI150
aI192
aI102
aI94
aI220
aI121
aI297
aI76
aI160
aI321
aI400
aI169
aI165
aI52
aI372
aI176
aI168
aI271
aI291
aI75
aI239
aI213
aI212
aI307
aI105
aI49
aI234
aI251
aI188
aI312
aI329
aI10
aI379
aI327
aI407
aI351
aI100
aI414
aI134
aI366
aI274
aI316
aI88
aI167
aI368
aI294
aI201
aI261
aI182
aI51
aI178
aI139
aI263
aI129
aI252
aI331
aI369
aI104
aI70
aI328
aI151
aI338
aI410
aI45
aI171
aI387
aI345
aI190
aI24
aI125
aI98
aI196
aI402
aI198
aI149
aI391
aI332
aI69
aI84
aI57
aI278
aI81
aI273
aI83
aI93
aI322
aI101
aI303
aI146
aI284
aI318
aI30
aI266
aI314
aI114
aI110
aI259
aI2
aI91
aI59
aI33
aI256
aI0
aI99
aI127
aI142
aI283
aI347
aI199
aI53
aI225
aI34
aI189
aI97
aI194
aI22
aI56
aI243
aI404
aI385
aI118
aI339
aI15
aI205
aI384
aI282
aI7
aI293
aI367
aI116
aI13
aI120
aI138
aI326
aI162
aI80
aI310
aI230
aI14
aI333
aI40
aI344
aI203
aI375
aI89
aI264
aI277
aI191
aI73
aI200
aI392
aI137
aI365
aI395
aI12
aI377
aI285
aI207
aI154
aI389
aI216
aI153
aI123
aI28
aI173
aI301
aI215
aI352
aI357
aI35
aI39
aI356
aI217
aI25
aI397
aI159
aI334
aI6
aI206
aI248
aI364
aI305
aI185
aI62
aI67
aI128
aI235
aI388
aI71
aI399
aI386
aI109
aI180
aI11
aI166
aI376
aI60
aI244
aI302
aI107
aI275
aI296
aI210
aI4
aI382
aI164
aI131
aI68
aI281
aI267
aI401
aI231
aI255
aI218
aI37
aI48
aI370
aI43
aI323
aI148
aI295
aI158
aI38
aI157
aI184
aI245
aI280
aI195
aI335
aI92
aI161
aI250
aI257
aI208
aI342
aI246
aI363
aI152
aI340
aI186
aI58
aI50
aI311
aI9
aI96
aI249
aI313
aI337
aI72
aI268
aI126
aI292
aI78
aI115
aI330
aI223
aI242
aI236
aI361
aI396
aI5
aI341
aI348
aI308
aI214
aI241
aI320
aI406
aI222
aI253
aI247
aI412
aI306
aI179
aI175
aI156
aI238
aI232
aI355
aI415
aI63
aI124
aI29
aI193
aI3
aI147
aI66
aI229
aI132
aI117
aI145
aI262
aI276
aI378
aI172
aI390
aI140
aI79
aI183
aI254
aI350
aI86
aI362
aI226
aI20
aI112
aI240
aI42
aI197
aI319
aI1
aI23
aI228
aI290
aI287
aI272
aI130
aI413
aI373
aI65
aI181
aI237
aI349
aI31
aI304
aI219
aI408
aI258
aI393
aI113
aI394
aI417
aI416
aI174
aa(lp9
I55
aI137
aI208
aI119
aI249
aI305
aI81
aI86
aI94
aI133
aI84
aI117
aI122
aI185
aI89
aI224
aI337
aI134
aI128
aI108
aI383
aI351
aI267
aI14
aI263
aI149
aI293
aI233
aI394
aI80
aI269
aI127
aI101
aI26
aI97
aI125
aI145
aI399
aI130
aI30
aI363
aI412
aI33
aI306
aI41
aI57
aI194
aI375
aI13
aI156
aI400
aI304
aI216
aI140
aI59
aI18
aI68
aI71
aI1
aI103
aI2
aI331
aI44
aI279
aI76
aI167
aI393
aI250
aI378
aI171
aI221
aI272
aI5
aI93
aI368
aI9
aI282
aI325
aI142
aI206
aI56
aI338
aI287
aI112
aI47
aI388
aI266
aI289
aI408
aI339
aI341
aI292
aI291
aI328
aI34
aI264
aI350
aI115
aI198
aI25
aI209
aI361
aI232
aI311
aI284
aI67
aI135
aI0
aI281
aI48
aI24
aI155
aI169
aI226
aI230
aI344
aI8
aI260
aI49
aI332
aI138
aI197
aI154
aI60
aI173
aI246
aI326
aI345
aI404
aI407
aI384
aI11
aI172
aI165
aI17
aI349
aI28
aI367
aI254
aI217
aI222
aI65
aI380
aI110
aI72
aI83
aI277
aI410
aI265
aI390
aI113
aI100
aI413
aI50
aI116
aI275
aI196
aI411
aI403
aI136
aI406
aI409
aI177
aI69
aI352
aI179
aI161
aI243
aI4
aI313
aI365
aI253
aI358
aI85
aI356
aI157
aI45
aI159
aI369
aI417
aI15
aI36
aI6
aI87
aI7
aI21
aI220
aI52
aI190
aI104
aI335
aI35
aI322
aI22
aI141
aI99
aI31
aI242
aI64
aI205
aI248
aI53
aI150
aI381
aI152
aI258
aI201
aI102
aI231
aI334
aI223
aI92
aI29
aI191
aI120
aI39
aI402
aI111
aI62
aI124
aI219
aI168
aI176
aI40
aI143
aI261
aI273
aI389
aI202
aI237
aI63
aI329
aI379
aI151
aI416
aI227
aI180
aI362
aI376
aI247
aI144
aI271
aI229
aI310
aI129
aI295
aI43
aI405
aI77
aI299
aI297
aI315
aI301
aI309
aI211
aI195
aI66
aI181
aI385
aI20
aI199
aI90
aI296
aI414
aI343
aI188
aI16
aI106
aI225
aI240
aI234
aI228
aI146
aI347
aI210
aI95
aI91
aI415
aI302
aI213
aI285
aI147
aI74
aI239
aI312
aI286
aI126
aI131
aI252
aI38
aI96
aI342
aI371
aI319
aI346
aI276
aI251
aI316
aI82
aI354
aI357
aI182
aI244
aI270
aI183
aI364
aI398
aI395
aI245
aI318
aI42
aI10
aI392
aI397
aI348
aI290
aI51
aI207
aI236
aI308
aI366
aI37
aI387
aI105
aI382
aI235
aI27
aI278
aI212
aI317
aI158
aI109
aI238
aI123
aI372
aI288
aI401
aI204
aI19
aI280
aI193
aI386
aI257
aI336
aI353
aI192
aI321
aI78
aI333
aI359
aI58
aI23
aI377
aI164
aI214
aI162
aI256
aI298
aI121
aI174
aI330
aI262
aI153
aI320
aI255
aI323
aI70
aI327
aI178
aI268
aI340
aI88
aI79
aI303
aI370
aI314
aI300
aI373
aI46
aI98
aI54
aI189
aI294
aI374
aI75
aI114
aI166
aI307
aI324
aI139
aI396
aI200
aI184
aI241
aI118
aI283
aI61
aI12
aI3
aI148
aI203
aI360
aI215
aI355
aI163
aI274
aI73
aI391
aI175
aI160
aI32
aI218
aI107
aI132
aI186
aI259
aI170
aI187
aa(lp10
I118
aI151
aI182
aI96
aI370
aI348
aI316
aI241
aI148
aI337
aI404
aI235
aI388
aI254
aI174
aI40
aI146
aI336
aI43
aI35
aI402
aI120
aI68
aI302
aI169
aI132
aI385
aI389
aI329
aI364
aI306
aI187
aI27
aI34
aI217
aI95
aI9
aI49
aI317
aI331
aI115
aI321
aI60
aI397
aI84
aI395
aI265
aI290
aI81
aI379
aI261
aI105
aI373
aI390
aI20
aI319
aI386
aI246
aI361
aI285
aI101
aI273
aI396
aI240
aI45
aI123
aI183
aI258
aI313
aI308
aI168
aI5
aI186
aI413
aI69
aI307
aI252
aI158
aI382
aI41
aI62
aI394
aI26
aI77
aI87
aI25
aI166
aI247
aI52
aI216
aI13
aI296
aI403
aI143
aI239
aI393
aI65
aI58
aI287
aI219
aI122
aI341
aI338
aI136
aI260
aI360
aI225
aI126
aI139
aI7
aI294
aI57
aI259
aI303
aI196
aI149
aI160
aI255
aI236
aI199
aI188
aI417
aI349
aI344
aI200
aI292
aI117
aI137
aI55
aI220
aI369
aI221
aI205
aI76
aI328
aI375
aI283
aI198
aI291
aI15
aI165
aI243
aI100
aI410
aI288
aI208
aI333
aI38
aI400
aI48
aI248
aI383
aI135
aI224
aI195
aI234
aI176
aI23
aI377
aI179
aI332
aI51
aI192
aI157
aI244
aI274
aI129
aI78
aI30
aI231
aI173
aI266
aI170
aI213
aI181
aI46
aI211
aI212
aI178
aI253
aI327
aI293
aI357
aI83
aI56
aI94
aI203
aI80
aI110
aI31
aI29
aI323
aI44
aI104
aI352
aI4
aI412
aI279
aI108
aI79
aI278
aI299
aI18
aI155
aI184
aI59
aI47
aI351
aI340
aI222
aI172
aI342
aI223
aI330
aI368
aI201
aI282
aI152
aI250
aI93
aI354
aI210
aI167
aI311
aI159
aI275
aI245
aI3
aI286
aI164
aI6
aI232
aI350
aI324
aI256
aI2
aI154
aI326
aI399
aI238
aI300
aI177
aI74
aI175
aI277
aI138
aI363
aI42
aI353
aI161
aI121
aI156
aI356
aI103
aI209
aI128
aI276
aI61
aI335
aI346
aI355
aI376
aI150
aI204
aI11
aI249
aI131
aI365
aI262
aI109
aI301
aI384
aI206
aI314
aI130
aI39
aI193
aI391
aI114
aI85
aI281
aI229
aI267
aI145
aI0
aI297
aI387
aI63
aI242
aI233
aI72
aI202
aI89
aI309
aI73
aI367
aI339
aI320
aI194
aI125
aI99
aI189
aI22
aI411
aI270
aI334
aI227
aI24
aI358
aI401
aI12
aI280
aI378
aI124
aI162
aI226
aI398
aI374
aI409
aI318
aI359
aI228
aI147
aI289
aI106
aI408
aI345
aI71
aI381
aI50
aI107
aI405
aI36
aI272
aI86
aI53
aI325
aI111
aI380
aI263
aI141
aI90
aI251
aI362
aI1
aI347
aI163
aI414
aI54
aI133
aI33
aI230
aI218
aI171
aI415
aI237
aI392
aI312
aI70
aI366
aI75
aI372
aI10
aI14
aI64
aI142
aI21
aI191
aI19
aI371
aI207
aI215
aI407
aI116
aI112
aI310
aI134
aI269
aI322
aI295
aI8
aI343
aI304
aI406
aI416
aI67
aI298
aI32
aI153
aI271
aI113
aI197
aI190
aI66
aI97
aI28
aI185
aI144
aI305
aI91
aI102
aI82
aI92
aI264
aI127
aI257
aI268
aI37
aI88
aI119
aI214
aI17
aI16
aI315
aI180
aI140
aI98
aI284
aa(lp11
I150
aI291
aI16
aI162
aI264
aI166
aI235
aI341
aI87
aI271
aI71
aI199
aI15
aI180
aI168
aI140
aI75
aI266
aI64
aI270
aI134
aI32
aI171
aI336
aI110
aI128
aI234
aI321
aI139
aI164
aI174
aI369
aI3
aI144
aI287
aI6
aI247
aI306
aI44
aI379
aI416
aI102
aI399
aI133
aI355
aI220
aI405
aI301
aI25
aI85
aI366
aI279
aI274
aI260
aI17
aI111
aI387
aI214
aI310
aI326
aI73
aI82
aI98
aI91
aI320
aI316
aI54
aI392
aI35
aI280
aI55
aI354
aI33
aI231
aI120
aI12
aI68
aI94
aI267
aI265
aI112
aI206
aI109
aI319
aI52
aI257
aI152
aI388
aI372
aI107
aI21
aI53
aI350
aI241
aI27
aI56
aI165
aI49
aI65
aI95
aI250
aI90
aI40
aI129
aI377
aI272
aI130
aI89
aI376
aI136
aI223
aI242
aI278
aI282
aI348
aI225
aI194
aI23
aI338
aI78
aI233
aI325
aI211
aI88
aI81
aI170
aI251
aI281
aI37
aI63
aI414
aI2
aI367
aI401
aI135
aI83
aI66
aI406
aI383
aI26
aI314
aI215
aI413
aI93
aI246
aI334
aI309
aI258
aI86
aI29
aI207
aI254
aI400
aI189
aI259
aI182
aI169
aI47
aI192
aI245
aI276
aI160
aI154
aI357
aI99
aI339
aI34
aI197
aI288
aI375
aI14
aI410
aI113
aI297
aI227
aI358
aI308
aI262
aI224
aI13
aI342
aI155
aI147
aI84
aI173
aI46
aI183
aI159
aI141
aI60
aI119
aI184
aI105
aI161
aI157
aI230
aI232
aI284
aI243
aI202
aI389
aI331
aI283
aI96
aI273
aI364
aI138
aI178
aI59
aI380
aI191
aI177
aI343
aI268
aI114
aI228
aI187
aI41
aI344
aI210
aI249
aI24
aI123
aI203
aI390
aI70
aI255
aI11
aI385
aI407
aI72
aI240
aI175
aI36
aI359
aI18
aI277
aI115
aI300
aI356
aI137
aI125
aI198
aI305
aI186
aI8
aI103
aI236
aI303
aI205
aI163
aI324
aI345
aI222
aI409
aI335
aI221
aI322
aI332
aI153
aI323
aI151
aI122
aI371
aI374
aI101
aI317
aI51
aI121
aI69
aI226
aI298
aI200
aI22
aI370
aI337
aI373
aI124
aI92
aI116
aI299
aI118
aI304
aI330
aI347
aI395
aI77
aI195
aI219
aI57
aI361
aI378
aI340
aI396
aI61
aI285
aI311
aI328
aI286
aI142
aI238
aI384
aI252
aI248
aI261
aI9
aI365
aI415
aI201
aI80
aI127
aI353
aI393
aI318
aI333
aI196
aI5
aI117
aI362
aI412
aI4
aI181
aI275
aI256
aI50
aI42
aI397
aI74
aI38
aI45
aI408
aI315
aI149
aI43
aI185
aI179
aI31
aI126
aI360
aI131
aI106
aI363
aI208
aI398
aI19
aI7
aI218
aI158
aI302
aI62
aI411
aI307
aI382
aI58
aI253
aI313
aI329
aI108
aI391
aI368
aI237
aI229
aI269
aI289
aI402
aI176
aI295
aI193
aI143
aI67
aI381
aI132
aI39
aI100
aI190
aI244
aI217
aI294
aI346
aI349
aI293
aI1
aI290
aI188
aI76
aI146
aI104
aI148
aI216
aI212
aI403
aI172
aI30
aI28
aI97
aI167
aI327
aI145
aI48
aI296
aI204
aI10
aI0
aI312
aI156
aI20
aI292
aI263
aI386
aI213
aI351
aI352
aI417
aI209
aI239
aI394
aI404
aI79
aa(lp12
I79
aI332
aI260
aI113
aI395
aI179
aI236
aI347
aI336
aI401
aI411
aI76
aI337
aI417
aI345
aI351
aI324
aI233
aI305
aI349
aI413
aI166
aI234
aI415
aI213
aI326
aI37
aI375
aI405
aI134
aI313
aI198
aI382
aI12
aI259
aI240
aI96
aI139
aI31
aI153
aI238
aI41
aI21
aI50
aI223
aI299
aI155
aI224
aI121
aI74
aI131
aI264
aI268
aI276
aI99
aI353
aI77
aI83
aI47
aI32
aI235
aI56
aI186
aI265
aI165
aI24
aI136
aI246
aI3
aI185
aI284
aI378
aI100
aI392
aI369
aI407
aI159
aI51
aI301
aI206
aI315
aI85
aI377
aI331
aI58
aI70
aI6
aI123
aI312
aI406
aI189
aI306
aI340
aI399
aI230
aI329
aI414
aI277
aI23
aI196
aI106
aI35
aI372
aI167
aI152
aI400
aI78
aI261
aI243
aI162
aI307
aI177
aI195
aI182
aI398
aI323
aI275
aI203
aI410
aI394
aI29
aI27
aI90
aI188
aI39
aI92
aI338
aI304
aI173
aI387
aI52
aI286
aI145
aI327
aI95
aI184
aI296
aI212
aI190
aI302
aI33
aI335
aI164
aI178
aI115
aI201
aI55
aI183
aI200
aI168
aI7
aI215
aI274
aI242
aI110
aI17
aI141
aI117
aI412
aI25
aI161
aI281
aI270
aI269
aI122
aI374
aI288
aI2
aI214
aI38
aI263
aI147
aI65
aI350
aI180
aI365
aI381
aI221
aI282
aI289
aI18
aI44
aI108
aI318
aI386
aI127
aI267
aI101
aI293
aI356
aI255
aI247
aI68
aI125
aI361
aI40
aI148
aI63
aI81
aI130
aI66
aI120
aI86
aI138
aI172
aI303
aI19
aI132
aI343
aI279
aI344
aI376
aI170
aI229
aI142
aI75
aI144
aI48
aI380
aI1
aI330
aI64
aI205
aI333
aI308
aI362
aI0
aI72
aI283
aI310
aI133
aI341
aI257
aI89
aI30
aI266
aI28
aI309
aI232
aI272
aI273
aI254
aI237
aI368
aI219
aI102
aI5
aI294
aI357
aI379
aI278
aI384
aI290
aI197
aI251
aI93
aI199
aI208
aI36
aI364
aI319
aI220
aI297
aI262
aI171
aI34
aI300
aI98
aI218
aI298
aI363
aI228
aI54
aI8
aI202
aI359
aI118
aI292
aI321
aI87
aI271
aI143
aI94
aI334
aI73
aI129
aI59
aI176
aI61
aI314
aI119
aI88
aI16
aI116
aI107
aI84
aI20
aI250
aI57
aI14
aI339
aI160
aI249
aI225
aI397
aI355
aI390
aI4
aI322
aI211
aI67
aI193
aI403
aI367
aI11
aI396
aI175
aI285
aI151
aI253
aI135
aI317
aI391
aI146
aI280
aI191
aI248
aI311
aI71
aI231
aI291
aI82
aI62
aI258
aI295
aI328
aI316
aI192
aI169
aI53
aI154
aI360
aI187
aI416
aI137
aI352
aI371
aI388
aI393
aI342
aI366
aI45
aI140
aI210
aI408
aI256
aI112
aI97
aI163
aI109
aI104
aI114
aI128
aI9
aI244
aI409
aI358
aI43
aI217
aI370
aI245
aI222
aI156
aI80
aI46
aI111
aI26
aI181
aI42
aI226
aI404
aI241
aI103
aI15
aI150
aI69
aI204
aI13
aI10
aI49
aI346
aI383
aI105
aI174
aI91
aI227
aI194
aI402
aI60
aI252
aI158
aI239
aI124
aI157
aI207
aI320
aI149
aI348
aI22
aI373
aI385
aI325
aI126
aI209
aI354
aI216
aI287
aI389
aa(lp13
I256
aI137
aI24
aI386
aI294
aI181
aI357
aI79
aI216
aI59
aI133
aI393
aI346
aI208
aI318
aI219
aI282
aI396
aI325
aI75
aI7
aI387
aI44
aI124
aI203
aI406
aI109
aI370
aI86
aI299
aI55
aI360
aI205
aI32
aI258
aI177
aI200
aI193
aI128
aI135
aI194
aI352
aI46
aI209
aI317
aI19
aI326
aI218
aI356
aI132
aI150
aI324
aI107
aI301
aI380
aI25
aI16
aI67
aI414
aI231
aI88
aI171
aI165
aI102
aI333
aI68
aI37
aI355
aI179
aI13
aI50
aI202
aI90
aI197
aI191
aI351
aI334
aI276
aI29
aI365
aI315
aI255
aI309
aI5
aI225
aI409
aI149
aI212
aI261
aI174
aI3
aI157
aI121
aI234
aI95
aI125
aI304
aI400
aI189
aI361
aI362
aI417
aI190
aI259
aI1
aI328
aI143
aI385
aI63
aI416
aI404
aI172
aI323
aI371
aI411
aI56
aI226
aI40
aI244
aI376
aI228
aI41
aI247
aI122
aI120
aI164
aI267
aI293
aI265
aI273
aI73
aI9
aI33
aI306
aI96
aI69
aI298
aI232
aI314
aI110
aI395
aI129
aI251
aI275
aI43
aI211
aI240
aI368
aI260
aI148
aI103
aI207
aI354
aI34
aI230
aI118
aI397
aI344
aI303
aI374
aI183
aI91
aI248
aI401
aI112
aI221
aI156
aI320
aI405
aI237
aI363
aI249
aI98
aI243
aI329
aI131
aI305
aI321
aI111
aI410
aI300
aI316
aI35
aI161
aI250
aI394
aI223
aI297
aI20
aI28
aI379
aI139
aI269
aI239
aI87
aI175
aI195
aI279
aI99
aI254
aI62
aI359
aI89
aI0
aI274
aI93
aI295
aI64
aI338
aI383
aI39
aI268
aI331
aI65
aI214
aI15
aI178
aI369
aI384
aI341
aI377
aI257
aI185
aI66
aI119
aI220
aI38
aI18
aI284
aI48
aI104
aI169
aI184
aI51
aI92
aI236
aI349
aI241
aI238
aI288
aI224
aI94
aI271
aI162
aI61
aI53
aI11
aI291
aI180
aI84
aI154
aI26
aI407
aI80
aI413
aI126
aI408
aI345
aI382
aI199
aI144
aI85
aI47
aI262
aI117
aI163
aI192
aI57
aI319
aI116
aI290
aI375
aI36
aI8
aI49
aI335
aI23
aI60
aI235
aI81
aI155
aI308
aI97
aI399
aI280
aI72
aI160
aI115
aI302
aI289
aI378
aI358
aI145
aI278
aI78
aI285
aI372
aI402
aI366
aI263
aI12
aI340
aI6
aI367
aI233
aI106
aI114
aI146
aI2
aI412
aI127
aI332
aI4
aI159
aI312
aI22
aI82
aI253
aI229
aI138
aI187
aI252
aI186
aI272
aI10
aI113
aI222
aI292
aI130
aI322
aI188
aI31
aI74
aI196
aI27
aI151
aI152
aI342
aI83
aI58
aI166
aI136
aI42
aI381
aI336
aI403
aI277
aI198
aI52
aI54
aI286
aI77
aI392
aI339
aI296
aI17
aI313
aI153
aI287
aI389
aI30
aI101
aI264
aI167
aI158
aI45
aI270
aI176
aI141
aI330
aI390
aI246
aI283
aI123
aI142
aI391
aI134
aI206
aI281
aI182
aI108
aI227
aI70
aI347
aI173
aI242
aI217
aI398
aI71
aI348
aI147
aI327
aI307
aI215
aI76
aI266
aI373
aI245
aI353
aI21
aI350
aI204
aI14
aI343
aI100
aI310
aI170
aI201
aI210
aI213
aI105
aI415
aI337
aI168
aI311
aI140
aI388
aI364
aa(lp14
I306
aI408
aI369
aI128
aI376
aI413
aI259
aI30
aI302
aI409
aI276
aI316
aI122
aI157
aI286
aI264
aI121
aI94
aI116
aI97
aI287
aI151
aI7
aI342
aI162
aI268
aI358
aI198
aI298
aI23
aI323
aI253
aI89
aI309
aI51
aI3
aI161
aI83
aI158
aI359
aI184
aI173
aI164
aI104
aI153
aI57
aI407
aI374
aI274
aI10
aI208
aI140
aI248
aI220
aI345
aI199
aI279
aI175
aI64
aI375
aI38
aI76
aI227
aI235
aI216
aI371
aI142
aI377
aI368
aI386
aI134
aI186
aI222
aI136
aI73
aI405
aI301
aI379
aI12
aI95
aI28
aI55
aI183
aI143
aI415
aI218
aI88
aI223
aI261
aI398
aI255
aI327
aI169
aI152
aI212
aI321
aI16
aI44
aI260
aI317
aI24
aI150
aI329
aI191
aI343
aI373
aI271
aI102
aI93
aI168
aI378
aI291
aI187
aI139
aI98
aI132
aI56
aI357
aI383
aI11
aI403
aI84
aI381
aI366
aI9
aI0
aI401
aI280
aI25
aI62
aI352
aI262
aI370
aI364
aI344
aI391
aI399
aI209
aI192
aI71
aI330
aI124
aI246
aI304
aI263
aI313
aI258
aI406
aI52
aI318
aI66
aI311
aI394
aI159
aI334
aI243
aI205
aI110
aI362
aI86
aI389
aI322
aI384
aI256
aI45
aI125
aI203
aI338
aI365
aI131
aI288
aI31
aI293
aI417
aI282
aI119
aI34
aI289
aI35
aI380
aI241
aI390
aI275
aI254
aI196
aI240
aI314
aI310
aI176
aI206
aI1
aI382
aI355
aI367
aI277
aI130
aI217
aI335
aI244
aI230
aI194
aI39
aI155
aI49
aI273
aI300
aI348
aI337
aI402
aI156
aI70
aI165
aI137
aI118
aI270
aI236
aI296
aI2
aI103
aI109
aI385
aI171
aI341
aI224
aI65
aI281
aI353
aI149
aI387
aI346
aI19
aI336
aI225
aI202
aI388
aI232
aI204
aI411
aI219
aI234
aI210
aI233
aI48
aI42
aI392
aI117
aI290
aI182
aI101
aI154
aI283
aI339
aI178
aI414
aI107
aI266
aI360
aI69
aI4
aI106
aI40
aI412
aI79
aI67
aI166
aI265
aI63
aI21
aI278
aI20
aI393
aI324
aI68
aI333
aI6
aI120
aI340
aI331
aI195
aI221
aI197
aI299
aI90
aI308
aI185
aI237
aI177
aI294
aI172
aI5
aI58
aI188
aI50
aI245
aI80
aI123
aI141
aI325
aI99
aI81
aI201
aI332
aI214
aI114
aI211
aI228
aI297
aI215
aI416
aI17
aI147
aI113
aI250
aI60
aI111
aI174
aI226
aI349
aI242
aI15
aI179
aI87
aI410
aI189
aI267
aI22
aI77
aI363
aI167
aI115
aI96
aI229
aI43
aI397
aI284
aI53
aI404
aI200
aI133
aI36
aI14
aI312
aI231
aI347
aI315
aI180
aI372
aI74
aI13
aI303
aI160
aI351
aI247
aI305
aI148
aI105
aI54
aI8
aI395
aI350
aI82
aI92
aI127
aI326
aI396
aI292
aI41
aI47
aI356
aI193
aI85
aI27
aI59
aI75
aI135
aI144
aI33
aI307
aI328
aI272
aI190
aI354
aI129
aI37
aI112
aI78
aI249
aI207
aI61
aI108
aI32
aI163
aI29
aI100
aI238
aI145
aI213
aI170
aI319
aI252
aI138
aI72
aI361
aI400
aI285
aI295
aI46
aI269
aI251
aI181
aI26
aI146
aI320
aI257
aI18
aI91
aI239
aI126
aa(lp15
I207
aI299
aI228
aI361
aI263
aI258
aI414
aI1
aI80
aI182
aI111
aI14
aI395
aI250
aI21
aI170
aI36
aI43
aI134
aI155
aI376
aI331
aI94
aI34
aI0
aI101
aI338
aI332
aI294
aI98
aI49
aI356
aI184
aI8
aI91
aI157
aI386
aI186
aI277
aI247
aI209
aI412
aI248
aI314
aI17
aI161
aI59
aI285
aI109
aI60
aI167
aI84
aI344
aI373
aI295
aI217
aI32
aI196
aI105
aI211
aI120
aI381
aI86
aI9
aI64
aI339
aI115
aI185
aI351
aI194
aI387
aI11
aI149
aI397
aI198
aI221
aI39
aI349
aI383
aI259
aI315
aI369
aI57
aI266
aI128
aI126
aI264
aI205
aI177
aI337
aI33
aI175
aI280
aI378
aI132
aI385
aI394
aI240
aI55
aI204
aI77
aI23
aI104
aI270
aI146
aI69
aI37
aI10
aI225
aI148
aI231
aI253
aI388
aI138
aI4
aI54
aI180
aI262
aI411
aI24
aI106
aI402
aI408
aI15
aI142
aI96
aI251
aI334
aI31
aI347
aI214
aI6
aI50
aI410
aI298
aI139
aI377
aI153
aI165
aI273
aI309
aI191
aI325
aI288
aI261
aI241
aI103
aI229
aI42
aI123
aI166
aI71
aI398
aI400
aI335
aI244
aI22
aI371
aI372
aI239
aI188
aI137
aI323
aI222
aI355
aI143
aI278
aI53
aI320
aI73
aI300
aI379
aI100
aI178
aI18
aI252
aI284
aI127
aI370
aI93
aI28
aI269
aI112
aI76
aI56
aI324
aI92
aI88
aI19
aI47
aI256
aI353
aI310
aI163
aI268
aI274
aI391
aI287
aI415
aI321
aI396
aI102
aI403
aI187
aI116
aI99
aI51
aI375
aI219
aI357
aI271
aI249
aI199
aI44
aI416
aI384
aI171
aI306
aI119
aI85
aI380
aI16
aI359
aI399
aI110
aI154
aI342
aI97
aI206
aI257
aI220
aI41
aI275
aI302
aI74
aI203
aI409
aI156
aI130
aI113
aI114
aI125
aI272
aI83
aI152
aI190
aI368
aI326
aI81
aI145
aI291
aI290
aI292
aI340
aI362
aI318
aI350
aI322
aI282
aI296
aI95
aI202
aI147
aI303
aI308
aI236
aI358
aI82
aI297
aI276
aI195
aI215
aI246
aI5
aI227
aI405
aI283
aI224
aI393
aI25
aI317
aI407
aI87
aI301
aI307
aI136
aI13
aI254
aI197
aI48
aI89
aI172
aI210
aI305
aI354
aI135
aI79
aI192
aI281
aI122
aI30
aI345
aI333
aI364
aI90
aI189
aI218
aI131
aI27
aI260
aI108
aI179
aI235
aI360
aI382
aI174
aI20
aI160
aI66
aI169
aI319
aI75
aI392
aI212
aI193
aI7
aI242
aI346
aI374
aI243
aI417
aI293
aI52
aI67
aI124
aI328
aI223
aI238
aI336
aI245
aI45
aI208
aI341
aI70
aI46
aI38
aI140
aI267
aI35
aI366
aI29
aI72
aI150
aI151
aI401
aI389
aI2
aI304
aI232
aI213
aI159
aI3
aI176
aI312
aI226
aI62
aI183
aI117
aI255
aI343
aI78
aI173
aI164
aI26
aI234
aI144
aI279
aI330
aI365
aI68
aI313
aI121
aI107
aI133
aI329
aI286
aI316
aI413
aI363
aI118
aI230
aI12
aI181
aI63
aI327
aI233
aI200
aI216
aI237
aI58
aI129
aI289
aI61
aI201
aI168
aI352
aI348
aI367
aI162
aI158
aI265
aI404
aI65
aI40
aI141
aI406
aI311
aI390
aa(lp16
I194
aI189
aI85
aI390
aI53
aI149
aI121
aI157
aI122
aI381
aI231
aI185
aI124
aI192
aI41
aI127
aI347
aI207
aI179
aI233
aI264
aI187
aI118
aI407
aI357
aI172
aI308
aI88
aI7
aI81
aI283
aI196
aI126
aI341
aI129
aI317
aI62
aI388
aI156
aI273
aI281
aI13
aI342
aI33
aI210
aI68
aI83
aI108
aI359
aI169
aI43
aI288
aI221
aI128
aI103
aI16
aI405
aI98
aI131
aI252
aI333
aI364
aI330
aI65
aI130
aI279
aI89
aI107
aI184
aI28
aI292
aI362
aI47
aI219
aI282
aI346
aI176
aI148
aI251
aI319
aI195
aI162
aI297
aI226
aI337
aI315
aI413
aI227
aI190
aI310
aI177
aI217
aI199
aI284
aI372
aI239
aI386
aI255
aI261
aI205
aI91
aI59
aI367
aI406
aI87
aI366
aI382
aI111
aI254
aI253
aI14
aI408
aI211
aI74
aI147
aI119
aI374
aI220
aI387
aI100
aI58
aI24
aI158
aI286
aI136
aI45
aI238
aI332
aI102
aI96
aI150
aI175
aI326
aI322
aI401
aI348
aI222
aI78
aI35
aI77
aI95
aI232
aI32
aI141
aI213
aI26
aI135
aI2
aI181
aI4
aI409
aI334
aI336
aI290
aI34
aI71
aI203
aI262
aI182
aI154
aI10
aI178
aI327
aI245
aI240
aI229
aI82
aI271
aI274
aI17
aI314
aI142
aI403
aI376
aI54
aI49
aI298
aI225
aI228
aI295
aI353
aI38
aI395
aI93
aI265
aI412
aI399
aI397
aI256
aI339
aI113
aI116
aI164
aI258
aI383
aI272
aI37
aI115
aI350
aI335
aI351
aI31
aI244
aI29
aI110
aI417
aI204
aI152
aI198
aI393
aI208
aI260
aI216
aI18
aI6
aI120
aI112
aI146
aI398
aI165
aI249
aI218
aI39
aI163
aI48
aI30
aI234
aI21
aI328
aI170
aI168
aI60
aI300
aI278
aI206
aI67
aI125
aI50
aI101
aI46
aI391
aI69
aI9
aI369
aI410
aI3
aI291
aI134
aI123
aI212
aI316
aI309
aI70
aI22
aI11
aI324
aI368
aI94
aI40
aI235
aI266
aI313
aI396
aI140
aI105
aI133
aI151
aI138
aI1
aI338
aI117
aI237
aI20
aI416
aI173
aI248
aI144
aI183
aI55
aI392
aI56
aI305
aI15
aI325
aI356
aI23
aI329
aI400
aI301
aI200
aI5
aI242
aI84
aI411
aI384
aI153
aI285
aI72
aI385
aI389
aI63
aI180
aI415
aI276
aI0
aI64
aI139
aI44
aI92
aI109
aI76
aI66
aI186
aI363
aI160
aI320
aI371
aI197
aI378
aI167
aI247
aI344
aI361
aI79
aI345
aI27
aI19
aI145
aI137
aI214
aI202
aI171
aI25
aI80
aI340
aI302
aI358
aI188
aI215
aI224
aI97
aI166
aI293
aI36
aI73
aI114
aI365
aI61
aI268
aI318
aI99
aI303
aI414
aI236
aI230
aI86
aI404
aI201
aI223
aI394
aI311
aI143
aI263
aI90
aI280
aI161
aI75
aI241
aI294
aI377
aI299
aI360
aI8
aI250
aI312
aI331
aI159
aI243
aI106
aI209
aI42
aI306
aI104
aI354
aI352
aI296
aI270
aI257
aI343
aI373
aI132
aI379
aI174
aI155
aI370
aI259
aI402
aI57
aI191
aI307
aI349
aI323
aI52
aI12
aI289
aI269
aI380
aI355
aI321
aI193
aI304
aI375
aI246
aI287
aI275
aI51
aI277
aI267
aa(lp17
I245
aI291
aI403
aI409
aI188
aI146
aI227
aI259
aI414
aI29
aI65
aI270
aI196
aI411
aI190
aI58
aI39
aI237
aI404
aI243
aI175
aI374
aI226
aI91
aI316
aI28
aI330
aI122
aI17
aI347
aI164
aI238
aI343
aI215
aI358
aI300
aI103
aI100
aI357
aI353
aI115
aI383
aI102
aI38
aI250
aI77
aI210
aI335
aI34
aI269
aI193
aI288
aI363
aI86
aI394
aI265
aI41
aI306
aI106
aI305
aI32
aI10
aI249
aI84
aI179
aI36
aI46
aI62
aI281
aI223
aI8
aI224
aI290
aI12
aI385
aI130
aI64
aI321
aI108
aI239
aI125
aI78
aI297
aI384
aI121
aI104
aI9
aI257
aI31
aI287
aI136
aI96
aI139
aI248
aI172
aI217
aI203
aI73
aI221
aI176
aI158
aI337
aI315
aI295
aI397
aI261
aI50
aI391
aI323
aI214
aI386
aI201
aI97
aI83
aI70
aI117
aI242
aI1
aI85
aI186
aI63
aI232
aI178
aI392
aI43
aI332
aI120
aI350
aI88
aI16
aI209
aI380
aI299
aI131
aI400
aI244
aI20
aI137
aI40
aI99
aI87
aI241
aI27
aI76
aI168
aI324
aI376
aI309
aI352
aI184
aI222
aI341
aI22
aI377
aI211
aI402
aI150
aI251
aI378
aI268
aI141
aI398
aI406
aI101
aI322
aI342
aI6
aI208
aI68
aI401
aI7
aI171
aI162
aI119
aI123
aI149
aI18
aI255
aI356
aI147
aI235
aI157
aI93
aI52
aI303
aI333
aI328
aI25
aI183
aI47
aI263
aI15
aI24
aI109
aI320
aI140
aI159
aI156
aI177
aI276
aI165
aI21
aI218
aI273
aI167
aI298
aI389
aI110
aI228
aI247
aI339
aI318
aI111
aI382
aI212
aI75
aI302
aI95
aI293
aI266
aI216
aI187
aI57
aI23
aI283
aI142
aI329
aI49
aI194
aI373
aI282
aI393
aI407
aI2
aI11
aI114
aI292
aI144
aI388
aI79
aI81
aI33
aI252
aI185
aI349
aI370
aI37
aI13
aI138
aI345
aI148
aI61
aI369
aI351
aI4
aI313
aI304
aI199
aI319
aI274
aI206
aI181
aI197
aI54
aI225
aI246
aI365
aI278
aI340
aI355
aI362
aI151
aI74
aI127
aI219
aI254
aI410
aI207
aI60
aI51
aI195
aI143
aI107
aI55
aI367
aI372
aI346
aI94
aI166
aI182
aI191
aI240
aI279
aI285
aI375
aI198
aI258
aI153
aI326
aI174
aI69
aI126
aI264
aI135
aI396
aI98
aI271
aI272
aI348
aI133
aI364
aI280
aI415
aI262
aI71
aI134
aI359
aI317
aI35
aI395
aI5
aI124
aI30
aI105
aI236
aI200
aI26
aI327
aI307
aI202
aI412
aI294
aI19
aI390
aI44
aI275
aI344
aI336
aI334
aI296
aI45
aI381
aI417
aI399
aI80
aI53
aI331
aI14
aI56
aI253
aI366
aI72
aI360
aI161
aI231
aI92
aI59
aI90
aI371
aI413
aI89
aI312
aI325
aI379
aI118
aI66
aI368
aI160
aI229
aI67
aI163
aI170
aI310
aI277
aI173
aI284
aI205
aI213
aI132
aI128
aI112
aI48
aI42
aI301
aI3
aI387
aI204
aI192
aI267
aI116
aI314
aI233
aI145
aI234
aI289
aI189
aI82
aI416
aI113
aI354
aI155
aI286
aI154
aI405
aI361
aI220
aI230
aI180
aI311
aI260
aI338
aI256
aI129
aI408
aI0
aI308
aI169
aI152
aa(lp18
I240
aI118
aI301
aI243
aI373
aI147
aI136
aI248
aI105
aI214
aI211
aI392
aI4
aI241
aI212
aI146
aI174
aI52
aI198
aI39
aI23
aI172
aI13
aI80
aI51
aI64
aI384
aI332
aI339
aI335
aI229
aI123
aI130
aI117
aI312
aI283
aI314
aI358
aI115
aI410
aI16
aI14
aI191
aI282
aI236
aI295
aI305
aI189
aI346
aI160
aI82
aI353
aI61
aI171
aI179
aI22
aI48
aI11
aI89
aI153
aI201
aI343
aI10
aI244
aI328
aI220
aI141
aI74
aI409
aI365
aI393
aI366
aI257
aI387
aI42
aI391
aI138
aI329
aI177
aI318
aI268
aI363
aI405
aI143
aI386
aI164
aI187
aI217
aI266
aI132
aI395
aI155
aI225
aI111
aI135
aI178
aI60
aI58
aI378
aI347
aI408
aI394
aI27
aI270
aI337
aI194
aI280
aI238
aI8
aI21
aI253
aI338
aI340
aI96
aI126
aI121
aI326
aI336
aI36
aI381
aI213
aI199
aI349
aI43
aI278
aI66
aI284
aI206
aI333
aI120
aI289
aI184
aI83
aI344
aI20
aI311
aI227
aI315
aI330
aI37
aI286
aI369
aI133
aI131
aI364
aI279
aI356
aI255
aI32
aI362
aI104
aI140
aI76
aI246
aI254
aI157
aI294
aI128
aI216
aI90
aI380
aI180
aI2
aI162
aI239
aI399
aI35
aI47
aI345
aI190
aI256
aI224
aI271
aI91
aI40
aI273
aI354
aI303
aI299
aI260
aI67
aI41
aI385
aI324
aI159
aI163
aI317
aI245
aI33
aI151
aI237
aI9
aI232
aI215
aI375
aI274
aI404
aI139
aI264
aI308
aI30
aI113
aI175
aI276
aI112
aI309
aI221
aI193
aI165
aI24
aI5
aI18
aI367
aI207
aI371
aI323
aI197
aI167
aI208
aI389
aI69
aI300
aI25
aI1
aI383
aI97
aI262
aI348
aI55
aI56
aI109
aI320
aI156
aI169
aI168
aI316
aI235
aI234
aI360
aI412
aI376
aI291
aI390
aI342
aI196
aI149
aI403
aI68
aI98
aI202
aI407
aI110
aI12
aI88
aI186
aI53
aI275
aI188
aI297
aI251
aI261
aI7
aI154
aI122
aI277
aI406
aI263
aI230
aI402
aI388
aI200
aI325
aI173
aI292
aI285
aI26
aI298
aI86
aI108
aI100
aI84
aI379
aI65
aI352
aI144
aI357
aI152
aI370
aI148
aI307
aI414
aI334
aI183
aI150
aI102
aI62
aI218
aI296
aI331
aI223
aI210
aI114
aI416
aI242
aI228
aI372
aI247
aI310
aI78
aI269
aI127
aI44
aI46
aI204
aI267
aI59
aI103
aI249
aI272
aI75
aI222
aI288
aI265
aI119
aI19
aI81
aI87
aI181
aI38
aI15
aI106
aI377
aI161
aI0
aI166
aI99
aI77
aI182
aI158
aI413
aI116
aI397
aI321
aI73
aI79
aI259
aI250
aI92
aI94
aI31
aI415
aI49
aI57
aI185
aI54
aI134
aI231
aI351
aI382
aI93
aI327
aI50
aI95
aI124
aI17
aI170
aI374
aI195
aI29
aI101
aI417
aI304
aI125
aI400
aI70
aI71
aI355
aI281
aI72
aI252
aI3
aI63
aI368
aI107
aI45
aI85
aI176
aI313
aI319
aI233
aI290
aI205
aI322
aI396
aI129
aI34
aI226
aI258
aI219
aI306
aI192
aI293
aI350
aI359
aI287
aI145
aI209
aI398
aI411
aI302
aI203
aI6
aI341
aI401
aI361
aI28
aI142
aI137
aa(lp19
I194
aI116
aI299
aI77
aI251
aI38
aI184
aI195
aI236
aI54
aI41
aI153
aI150
aI164
aI196
aI91
aI24
aI157
aI152
aI10
aI42
aI362
aI202
aI399
aI28
aI388
aI269
aI368
aI94
aI311
aI210
aI232
aI174
aI321
aI380
aI286
aI63
aI310
aI397
aI219
aI82
aI2
aI228
aI89
aI175
aI17
aI223
aI200
aI27
aI255
aI361
aI0
aI170
aI15
aI222
aI271
aI154
aI9
aI51
aI396
aI98
aI284
aI119
aI259
aI377
aI270
aI37
aI225
aI177
aI414
aI163
aI111
aI148
aI59
aI162
aI268
aI316
aI137
aI105
aI264
aI304
aI122
aI95
aI211
aI415
aI120
aI283
aI20
aI205
aI324
aI323
aI145
aI254
aI65
aI167
aI117
aI100
aI12
aI186
aI353
aI398
aI39
aI102
aI345
aI349
aI371
aI325
aI74
aI36
aI220
aI252
aI348
aI71
aI87
aI282
aI412
aI218
aI273
aI185
aI96
aI340
aI85
aI301
aI199
aI233
aI198
aI260
aI121
aI317
aI334
aI400
aI417
aI244
aI276
aI281
aI193
aI365
aI229
aI156
aI373
aI314
aI146
aI261
aI354
aI161
aI221
aI382
aI374
aI358
aI287
aI23
aI279
aI169
aI11
aI75
aI25
aI308
aI190
aI29
aI183
aI265
aI44
aI217
aI201
aI369
aI35
aI332
aI326
aI227
aI319
aI248
aI393
aI209
aI179
aI294
aI395
aI168
aI342
aI343
aI309
aI408
aI106
aI383
aI387
aI312
aI239
aI125
aI350
aI289
aI292
aI241
aI328
aI206
aI18
aI245
aI189
aI136
aI192
aI114
aI346
aI359
aI144
aI376
aI351
aI112
aI83
aI297
aI76
aI5
aI335
aI406
aI214
aI366
aI50
aI68
aI69
aI84
aI416
aI31
aI104
aI43
aI140
aI99
aI216
aI1
aI203
aI181
aI60
aI110
aI341
aI34
aI127
aI78
aI21
aI132
aI337
aI108
aI197
aI131
aI394
aI113
aI67
aI403
aI160
aI86
aI356
aI4
aI171
aI327
aI290
aI212
aI235
aI274
aI22
aI347
aI107
aI238
aI46
aI330
aI402
aI55
aI138
aI48
aI291
aI278
aI176
aI246
aI178
aI8
aI45
aI47
aI263
aI143
aI370
aI40
aI32
aI352
aI367
aI237
aI381
aI300
aI90
aI56
aI322
aI130
aI390
aI306
aI389
aI92
aI66
aI147
aI277
aI240
aI344
aI320
aI243
aI187
aI208
aI410
aI378
aI331
aI253
aI16
aI338
aI133
aI188
aI129
aI30
aI355
aI182
aI247
aI158
aI401
aI407
aI159
aI242
aI215
aI155
aI52
aI392
aI13
aI307
aI305
aI118
aI139
aI14
aI250
aI19
aI272
aI226
aI266
aI70
aI6
aI80
aI391
aI97
aI411
aI134
aI224
aI115
aI413
aI135
aI296
aI73
aI88
aI313
aI173
aI364
aI303
aI234
aI26
aI372
aI93
aI379
aI293
aI103
aI329
aI166
aI384
aI357
aI375
aI128
aI213
aI360
aI62
aI61
aI257
aI409
aI249
aI231
aI298
aI207
aI363
aI72
aI149
aI142
aI151
aI49
aI404
aI386
aI230
aI79
aI295
aI315
aI123
aI191
aI3
aI285
aI204
aI385
aI101
aI124
aI57
aI58
aI333
aI180
aI81
aI109
aI141
aI280
aI172
aI262
aI64
aI336
aI33
aI126
aI302
aI288
aI275
aI318
aI405
aI165
aI256
aI258
aI7
aI53
aI267
aI339
aa(lp20
I320
aI343
aI246
aI284
aI165
aI332
aI394
aI230
aI396
aI393
aI11
aI140
aI220
aI319
aI275
aI411
aI331
aI96
aI69
aI158
aI135
aI108
aI85
aI88
aI62
aI251
aI385
aI5
aI168
aI255
aI414
aI293
aI325
aI415
aI381
aI199
aI171
aI286
aI232
aI174
aI59
aI170
aI84
aI157
aI216
aI67
aI218
aI169
aI131
aI391
aI105
aI270
aI30
aI237
aI1
aI71
aI145
aI0
aI63
aI50
aI149
aI356
aI213
aI154
aI35
aI258
aI353
aI103
aI40
aI44
aI399
aI351
aI124
aI311
aI262
aI299
aI395
aI42
aI277
aI123
aI328
aI211
aI45
aI6
aI142
aI229
aI305
aI228
aI245
aI198
aI373
aI74
aI156
aI297
aI352
aI120
aI182
aI308
aI56
aI324
aI259
aI380
aI161
aI274
aI227
aI65
aI263
aI32
aI176
aI46
aI309
aI33
aI116
aI301
aI359
aI129
aI23
aI68
aI73
aI279
aI337
aI271
aI369
aI410
aI14
aI72
aI318
aI360
aI244
aI77
aI41
aI134
aI349
aI241
aI25
aI8
aI75
aI13
aI36
aI306
aI47
aI390
aI208
aI313
aI379
aI398
aI417
aI225
aI382
aI31
aI99
aI112
aI78
aI90
aI276
aI314
aI358
aI28
aI368
aI235
aI166
aI137
aI159
aI202
aI181
aI377
aI70
aI147
aI242
aI94
aI200
aI224
aI374
aI139
aI334
aI283
aI348
aI54
aI223
aI133
aI190
aI192
aI238
aI366
aI247
aI132
aI304
aI152
aI288
aI17
aI189
aI60
aI346
aI115
aI340
aI49
aI240
aI365
aI376
aI92
aI83
aI378
aI55
aI333
aI350
aI266
aI264
aI261
aI111
aI177
aI289
aI194
aI58
aI239
aI186
aI257
aI226
aI93
aI175
aI141
aI302
aI219
aI39
aI195
aI317
aI179
aI336
aI18
aI344
aI162
aI106
aI48
aI95
aI389
aI19
aI37
aI303
aI52
aI81
aI315
aI87
aI196
aI206
aI387
aI86
aI363
aI110
aI20
aI295
aI109
aI307
aI15
aI127
aI163
aI280
aI323
aI248
aI146
aI312
aI347
aI80
aI357
aI118
aI406
aI138
aI412
aI322
aI104
aI298
aI153
aI144
aI197
aI256
aI51
aI205
aI98
aI290
aI76
aI384
aI300
aI7
aI210
aI335
aI160
aI310
aI338
aI250
aI191
aI193
aI178
aI143
aI21
aI12
aI126
aI253
aI409
aI392
aI119
aI281
aI329
aI388
aI188
aI4
aI404
aI82
aI291
aI273
aI326
aI407
aI355
aI371
aI287
aI151
aI214
aI128
aI282
aI278
aI101
aI215
aI327
aI221
aI155
aI265
aI204
aI403
aI397
aI342
aI184
aI296
aI173
aI233
aI136
aI243
aI201
aI370
aI61
aI260
aI252
aI43
aI222
aI354
aI209
aI117
aI89
aI22
aI57
aI150
aI66
aI203
aI330
aI375
aI38
aI107
aI254
aI400
aI102
aI321
aI26
aI2
aI125
aI114
aI408
aI34
aI234
aI268
aI97
aI339
aI172
aI413
aI64
aI285
aI362
aI148
aI345
aI187
aI316
aI9
aI27
aI29
aI372
aI386
aI24
aI267
aI3
aI183
aI341
aI416
aI272
aI185
aI100
aI212
aI249
aI292
aI236
aI53
aI401
aI130
aI405
aI113
aI231
aI180
aI167
aI121
aI16
aI10
aI122
aI402
aI367
aI217
aI364
aI164
aI269
aI91
aI294
aI79
aI383
aI361
aI207
aa.