(lp0
(lp1
I41
aI13
aI29
aI83
aI38
aI59
aI105
aI93
aI138
aI51
aI18
aI115
aI137
aI134
aI97
aI67
aI94
aI42
aI106
aI96
aI45
aI72
aI35
aI56
aI16
aI135
aI129
aI114
aI107
aI17
aI40
aI109
aI71
aI68
aI118
aI3
aI88
aI124
aI85
aI52
aI77
aI128
aI15
aI126
aI57
aI95
aI1
aI5
aI100
aI7
aI36
aI70
aI48
aI63
aI46
aI119
aI122
aI0
aI25
aI54
aI78
aI89
aI34
aI6
aI74
aI9
aI76
aI23
aI87
aI81
aI20
aI44
aI19
aI61
aI39
aI49
aI142
aI58
aI90
aI111
aI113
aI99
aI60
aI69
aI117
aI75
aI121
aI65
aI104
aI11
aI131
aI33
aI140
aI43
aI103
aI102
aI98
aI31
aI123
aI12
aI108
aI133
aI80
aI22
aI86
aI24
aI27
aI62
aI8
aI139
aI110
aI79
aI66
aI84
aI55
aI141
aI53
aI82
aI37
aI130
aI136
aI10
aI26
aI73
aI125
aI4
aI120
aI112
aI2
aI127
aI32
aI92
aI101
aI132
aI116
aI47
aI21
aI91
aI30
aI14
aI64
aI28
aI50
aa(lp2
I28
aI9
aI105
aI93
aI133
aI116
aI21
aI44
aI98
aI71
aI63
aI72
aI31
aI65
aI20
aI83
aI89
aI61
aI92
aI57
aI117
aI140
aI23
aI130
aI54
aI115
aI77
aI3
aI2
aI1
aI101
aI76
aI18
aI41
aI66
aI45
aI53
aI81
aI100
aI106
aI70
aI86
aI33
aI69
aI22
aI126
aI32
aI24
aI79
aI62
aI17
aI120
aI13
aI12
aI7
aI67
aI132
aI48
aI74
aI112
aI95
aI16
aI11
aI139
aI94
aI82
aI47
aI14
aI114
aI19
aI107
aI104
aI39
aI96
aI8
aI25
aI87
aI43
aI97
aI35
aI128
aI142
aI135
aI88
aI125
aI30
aI46
aI10
aI27
aI110
aI42
aI15
aI119
aI121
aI36
aI123
aI0
aI129
aI56
aI103
aI141
aI122
aI58
aI85
aI111
aI90
aI137
aI51
aI99
aI52
aI134
aI34
aI59
aI68
aI73
aI84
aI113
aI91
aI26
aI80
aI38
aI4
aI75
aI109
aI40
aI60
aI102
aI138
aI55
aI136
aI118
aI50
aI29
aI131
aI49
aI127
aI64
aI5
aI124
aI6
aI78
aI108
aI37
aa(lp3
I74
aI126
aI41
aI129
aI66
aI99
aI33
aI114
aI90
aI2
aI20
aI67
aI14
aI40
aI57
aI34
aI137
aI48
aI124
aI108
aI134
aI51
aI100
aI56
aI13
aI8
aI28
aI115
aI45
aI119
aI32
aI78
aI42
aI17
aI116
aI72
aI1
aI52
aI109
aI31
aI12
aI58
aI123
aI69
aI125
aI73
aI107
aI82
aI25
aI46
aI24
aI118
aI10
aI26
aI36
aI120
aI138
aI96
aI80
aI106
aI68
aI60
aI49
aI9
aI63
aI71
aI103
aI29
aI132
aI104
aI111
aI86
aI117
aI11
aI105
aI39
aI62
aI128
aI81
aI110
aI50
aI79
aI101
aI136
aI92
aI75
aI130
aI87
aI44
aI64
aI135
aI43
aI139
aI21
aI142
aI3
aI23
aI131
aI141
aI18
aI83
aI122
aI140
aI98
aI121
aI112
aI76
aI30
aI6
aI55
aI19
aI102
aI70
aI38
aI4
aI15
aI16
aI94
aI47
aI27
aI91
aI37
aI127
aI53
aI65
aI84
aI88
aI95
aI93
aI113
aI59
aI22
aI35
aI97
aI0
aI133
aI61
aI85
aI77
aI89
aI54
aI7
aI5
aa(lp4
I132
aI92
aI111
aI88
aI50
aI79
aI14
aI123
aI17
aI71
aI19
aI37
aI107
aI81
aI22
aI54
aI57
aI101
aI95
aI70
aI31
aI118
aI87
aI98
aI49
aI59
aI135
aI39
aI130
aI53
aI56
aI122
aI20
aI29
aI32
aI12
aI51
aI102
aI11
aI121
aI73
aI66
aI75
aI25
aI129
aI113
aI137
aI99
aI8
aI5
aI68
aI125
aI3
aI1
aI77
aI94
aI67
aI15
aI24
aI44
aI109
aI46
aI10
aI27
aI0
aI34
aI6
aI4
aI117
aI133
aI136
aI112
aI65
aI63
aI84
aI115
aI86
aI110
aI9
aI103
aI41
aI55
aI119
aI26
aI76
aI139
aI138
aI33
aI106
aI21
aI61
aI62
aI134
aI97
aI72
aI93
aI80
aI47
aI69
aI116
aI127
aI16
aI2
aI104
aI142
aI96
aI7
aI126
aI52
aI100
aI114
aI28
aI48
aI60
aI105
aI35
aI131
aI74
aI18
aI23
aI83
aI78
aI36
aI91
aI82
aI89
aI128
aI90
aI108
aI45
aI120
aI43
aI13
aI30
aI64
aI42
aI40
aI140
aI85
aI38
aI124
aI58
aI141
aa(lp5
I88
aI91
aI71
aI80
aI121
aI100
aI94
aI130
aI64
aI41
aI19
aI17
aI13
aI99
aI40
aI89
aI109
aI70
aI43
aI37
aI84
aI120
aI12
aI50
aI136
aI36
aI15
aI125
aI87
aI22
aI74
aI5
aI123
aI117
aI7
aI104
aI32
aI102
aI126
aI23
aI45
aI75
aI27
aI103
aI28
aI107
aI127
aI69
aI30
aI63
aI82
aI18
aI67
aI1
aI59
aI61
aI4
aI34
aI106
aI95
aI113
aI81
aI46
aI76
aI133
aI139
aI53
aI14
aI132
aI57
aI33
aI73
aI10
aI35
aI24
aI142
aI78
aI86
aI42
aI11
aI8
aI55
aI141
aI49
aI90
aI105
aI112
aI20
aI9
aI2
aI62
aI93
aI135
aI85
aI108
aI29
aI68
aI101
aI39
aI83
aI138
aI129
aI114
aI48
aI137
aI52
aI47
aI119
aI21
aI25
aI66
aI118
aI58
aI0
aI128
aI116
aI72
aI96
aI16
aI54
aI3
aI26
aI51
aI65
aI115
aI38
aI31
aI6
aI134
aI60
aI122
aI77
aI56
aI98
aI79
aI97
aI124
aI110
aI44
aI111
aI92
aI131
aI140
aa(lp6
I141
aI133
aI25
aI114
aI126
aI53
aI2
aI89
aI11
aI18
aI129
aI12
aI102
aI83
aI124
aI63
aI109
aI51
aI88
aI5
aI104
aI79
aI46
aI49
aI69
aI101
aI48
aI94
aI120
aI52
aI24
aI66
aI47
aI55
aI10
aI3
aI118
aI15
aI17
aI6
aI131
aI134
aI105
aI20
aI132
aI97
aI57
aI127
aI84
aI40
aI7
aI36
aI112
aI65
aI27
aI44
aI43
aI1
aI67
aI135
aI100
aI139
aI38
aI117
aI76
aI30
aI142
aI78
aI81
aI90
aI33
aI95
aI116
aI56
aI106
aI8
aI92
aI22
aI72
aI96
aI45
aI54
aI108
aI50
aI61
aI77
aI115
aI103
aI13
aI130
aI122
aI111
aI140
aI31
aI71
aI91
aI128
aI82
aI28
aI121
aI98
aI41
aI14
aI80
aI62
aI138
aI93
aI113
aI32
aI60
aI137
aI74
aI70
aI64
aI75
aI19
aI16
aI37
aI123
aI99
aI86
aI9
aI39
aI29
aI0
aI136
aI21
aI42
aI68
aI87
aI35
aI4
aI110
aI125
aI107
aI58
aI73
aI23
aI85
aI119
aI59
aI26
aI34
aa(lp7
I25
aI7
aI97
aI69
aI46
aI37
aI98
aI135
aI17
aI77
aI6
aI116
aI107
aI44
aI138
aI136
aI30
aI22
aI5
aI125
aI102
aI36
aI56
aI78
aI70
aI48
aI119
aI93
aI133
aI87
aI20
aI66
aI59
aI68
aI108
aI94
aI100
aI45
aI52
aI72
aI139
aI132
aI57
aI29
aI83
aI16
aI111
aI134
aI63
aI121
aI23
aI51
aI137
aI109
aI41
aI54
aI76
aI82
aI0
aI81
aI99
aI89
aI118
aI124
aI61
aI53
aI67
aI11
aI34
aI3
aI9
aI71
aI13
aI55
aI113
aI85
aI115
aI47
aI141
aI58
aI24
aI127
aI2
aI114
aI79
aI130
aI42
aI110
aI74
aI123
aI129
aI14
aI38
aI103
aI33
aI60
aI92
aI40
aI39
aI122
aI96
aI65
aI128
aI106
aI49
aI140
aI117
aI43
aI90
aI126
aI105
aI80
aI18
aI10
aI91
aI28
aI15
aI75
aI112
aI32
aI62
aI27
aI21
aI88
aI131
aI26
aI50
aI64
aI86
aI8
aI142
aI4
aI35
aI31
aI12
aI104
aI19
aI95
aI84
aI120
aI1
aI101
aI73
aa(lp8
I44
aI31
aI61
aI53
aI103
aI0
aI68
aI3
aI11
aI97
aI115
aI30
aI9
aI77
aI88
aI49
aI107
aI5
aI112
aI50
aI130
aI8
aI104
aI60
aI113
aI24
aI89
aI56
aI95
aI81
aI28
aI13
aI64
aI142
aI70
aI126
aI63
aI82
aI19
aI55
aI138
aI137
aI20
aI120
aI4
aI132
aI119
aI18
aI39
aI117
aI41
aI135
aI105
aI21
aI133
aI100
aI102
aI118
aI74
aI93
aI57
aI141
aI69
aI128
aI134
aI99
aI62
aI121
aI29
aI16
aI140
aI40
aI6
aI91
aI34
aI85
aI79
aI125
aI67
aI58
aI129
aI26
aI109
aI65
aI116
aI51
aI42
aI131
aI114
aI27
aI92
aI83
aI35
aI12
aI22
aI46
aI111
aI139
aI71
aI14
aI87
aI2
aI75
aI54
aI122
aI101
aI80
aI90
aI48
aI106
aI94
aI52
aI1
aI108
aI136
aI17
aI23
aI7
aI59
aI15
aI10
aI32
aI110
aI33
aI76
aI38
aI72
aI96
aI73
aI47
aI25
aI78
aI123
aI36
aI45
aI124
aI66
aI98
aI127
aI37
aI84
aI43
aI86
aa(lp9
I54
aI133
aI26
aI47
aI129
aI101
aI114
aI51
aI99
aI11
aI15
aI132
aI97
aI140
aI107
aI8
aI105
aI139
aI141
aI67
aI80
aI33
aI89
aI64
aI48
aI18
aI73
aI142
aI14
aI35
aI100
aI96
aI28
aI12
aI23
aI16
aI72
aI126
aI50
aI40
aI87
aI56
aI5
aI55
aI70
aI119
aI62
aI134
aI69
aI102
aI90
aI75
aI112
aI118
aI81
aI42
aI22
aI58
aI39
aI20
aI91
aI27
aI19
aI0
aI138
aI7
aI136
aI4
aI17
aI137
aI108
aI9
aI110
aI98
aI131
aI1
aI43
aI120
aI29
aI10
aI44
aI130
aI115
aI135
aI46
aI57
aI3
aI125
aI85
aI77
aI63
aI30
aI31
aI84
aI38
aI13
aI59
aI127
aI49
aI93
aI24
aI65
aI53
aI117
aI122
aI86
aI68
aI106
aI74
aI60
aI95
aI61
aI94
aI103
aI52
aI79
aI21
aI128
aI36
aI45
aI82
aI2
aI116
aI34
aI78
aI71
aI66
aI92
aI123
aI121
aI25
aI37
aI88
aI41
aI32
aI83
aI6
aI111
aI113
aI124
aI109
aI76
aI104
aa(lp10
I1
aI119
aI79
aI50
aI114
aI131
aI137
aI65
aI23
aI106
aI39
aI36
aI31
aI27
aI84
aI85
aI59
aI15
aI34
aI5
aI57
aI33
aI78
aI122
aI117
aI128
aI43
aI81
aI91
aI9
aI11
aI25
aI80
aI135
aI100
aI83
aI132
aI138
aI64
aI22
aI103
aI124
aI48
aI129
aI46
aI72
aI120
aI136
aI111
aI121
aI139
aI123
aI56
aI17
aI38
aI96
aI58
aI125
aI108
aI92
aI113
aI77
aI51
aI3
aI4
aI2
aI47
aI112
aI90
aI7
aI86
aI19
aI20
aI142
aI55
aI41
aI102
aI54
aI44
aI140
aI82
aI69
aI130
aI126
aI94
aI88
aI37
aI62
aI10
aI75
aI87
aI32
aI53
aI115
aI24
aI133
aI18
aI109
aI52
aI60
aI0
aI45
aI110
aI68
aI98
aI74
aI127
aI118
aI49
aI30
aI29
aI28
aI105
aI95
aI116
aI71
aI67
aI14
aI66
aI101
aI76
aI13
aI40
aI61
aI134
aI6
aI73
aI89
aI8
aI70
aI42
aI93
aI16
aI63
aI97
aI107
aI35
aI141
aI21
aI12
aI99
aI26
aI104
aa(lp11
I26
aI138
aI115
aI58
aI2
aI123
aI137
aI107
aI76
aI47
aI67
aI93
aI108
aI56
aI72
aI52
aI59
aI33
aI25
aI55
aI127
aI30
aI3
aI75
aI119
aI105
aI104
aI7
aI24
aI134
aI103
aI132
aI66
aI120
aI45
aI124
aI69
aI41
aI13
aI18
aI102
aI82
aI133
aI48
aI136
aI86
aI61
aI71
aI142
aI46
aI51
aI15
aI113
aI95
aI57
aI32
aI112
aI91
aI139
aI28
aI97
aI81
aI40
aI5
aI131
aI141
aI117
aI87
aI53
aI77
aI22
aI90
aI83
aI8
aI106
aI126
aI12
aI68
aI80
aI21
aI101
aI111
aI118
aI35
aI129
aI1
aI122
aI92
aI65
aI23
aI0
aI50
aI70
aI73
aI98
aI38
aI121
aI99
aI17
aI110
aI27
aI109
aI54
aI94
aI85
aI6
aI60
aI19
aI14
aI39
aI36
aI9
aI34
aI62
aI88
aI128
aI37
aI11
aI64
aI135
aI84
aI10
aI89
aI63
aI130
aI44
aI29
aI114
aI125
aI100
aI79
aI42
aI49
aI43
aI16
aI140
aI31
aI74
aI116
aI4
aI96
aI78
aI20
aa(lp12
I66
aI128
aI120
aI106
aI133
aI124
aI26
aI90
aI118
aI43
aI50
aI91
aI54
aI48
aI122
aI11
aI30
aI34
aI89
aI64
aI127
aI121
aI80
aI40
aI123
aI42
aI29
aI77
aI72
aI1
aI107
aI67
aI16
aI82
aI81
aI134
aI139
aI52
aI13
aI44
aI12
aI60
aI46
aI17
aI10
aI108
aI125
aI14
aI126
aI39
aI45
aI115
aI2
aI4
aI137
aI84
aI59
aI3
aI132
aI138
aI130
aI85
aI88
aI98
aI110
aI93
aI102
aI113
aI37
aI41
aI38
aI129
aI83
aI135
aI112
aI75
aI65
aI32
aI99
aI15
aI131
aI0
aI35
aI111
aI78
aI103
aI71
aI70
aI31
aI53
aI73
aI57
aI94
aI117
aI51
aI55
aI20
aI105
aI100
aI136
aI86
aI36
aI74
aI5
aI8
aI33
aI7
aI109
aI58
aI95
aI25
aI92
aI22
aI119
aI116
aI23
aI97
aI96
aI49
aI28
aI62
aI21
aI114
aI18
aI6
aI140
aI56
aI61
aI24
aI63
aI87
aI47
aI104
aI68
aI19
aI141
aI27
aI79
aI101
aI76
aI142
aI69
aI9
aa(lp13
I93
aI114
aI113
aI111
aI1
aI62
aI86
aI83
aI78
aI110
aI126
aI53
aI71
aI124
aI36
aI101
aI115
aI130
aI79
aI7
aI24
aI120
aI18
aI0
aI127
aI12
aI2
aI21
aI40
aI10
aI128
aI85
aI137
aI48
aI104
aI39
aI73
aI140
aI131
aI90
aI4
aI72
aI8
aI103
aI13
aI34
aI57
aI11
aI112
aI100
aI14
aI56
aI108
aI84
aI60
aI129
aI52
aI133
aI99
aI89
aI66
aI134
aI81
aI61
aI107
aI30
aI102
aI64
aI32
aI122
aI33
aI95
aI123
aI55
aI20
aI74
aI135
aI27
aI23
aI139
aI118
aI68
aI15
aI49
aI138
aI29
aI82
aI19
aI142
aI54
aI41
aI63
aI43
aI16
aI141
aI98
aI87
aI88
aI35
aI136
aI59
aI58
aI5
aI51
aI9
aI125
aI97
aI94
aI69
aI17
aI50
aI80
aI96
aI119
aI116
aI70
aI91
aI37
aI92
aI76
aI46
aI28
aI47
aI109
aI45
aI42
aI77
aI117
aI105
aI121
aI3
aI65
aI25
aI75
aI26
aI67
aI6
aI132
aI106
aI38
aI44
aI22
aI31
aa(lp14
I87
aI9
aI21
aI40
aI30
aI64
aI79
aI58
aI138
aI92
aI94
aI35
aI106
aI98
aI124
aI103
aI33
aI25
aI48
aI7
aI6
aI62
aI102
aI60
aI88
aI97
aI107
aI0
aI53
aI52
aI26
aI3
aI131
aI82
aI29
aI59
aI50
aI117
aI67
aI137
aI108
aI47
aI101
aI91
aI110
aI119
aI113
aI54
aI1
aI37
aI41
aI61
aI43
aI139
aI95
aI127
aI63
aI4
aI130
aI74
aI44
aI51
aI71
aI75
aI78
aI65
aI136
aI10
aI122
aI73
aI85
aI70
aI132
aI123
aI20
aI23
aI19
aI83
aI121
aI120
aI22
aI112
aI93
aI128
aI11
aI126
aI49
aI115
aI28
aI24
aI81
aI142
aI31
aI17
aI116
aI100
aI8
aI133
aI114
aI34
aI69
aI15
aI16
aI66
aI42
aI111
aI109
aI140
aI86
aI76
aI57
aI45
aI36
aI27
aI89
aI13
aI77
aI46
aI56
aI84
aI80
aI141
aI72
aI32
aI38
aI129
aI105
aI96
aI99
aI12
aI5
aI55
aI118
aI104
aI2
aI125
aI18
aI134
aI90
aI68
aI14
aI39
aI135
aa(lp15
I130
aI62
aI23
aI55
aI16
aI22
aI105
aI75
aI96
aI120
aI5
aI71
aI104
aI111
aI45
aI103
aI78
aI20
aI124
aI43
aI66
aI89
aI86
aI31
aI68
aI41
aI60
aI47
aI49
aI7
aI33
aI1
aI18
aI63
aI74
aI138
aI137
aI57
aI119
aI67
aI17
aI56
aI15
aI2
aI101
aI87
aI28
aI48
aI9
aI110
aI100
aI92
aI93
aI131
aI21
aI121
aI136
aI11
aI53
aI99
aI126
aI82
aI38
aI115
aI32
aI42
aI88
aI30
aI12
aI36
aI73
aI117
aI122
aI34
aI69
aI10
aI142
aI6
aI79
aI118
aI128
aI133
aI44
aI24
aI129
aI46
aI125
aI107
aI52
aI4
aI70
aI114
aI37
aI98
aI113
aI25
aI29
aI77
aI65
aI58
aI116
aI0
aI132
aI140
aI141
aI19
aI123
aI54
aI94
aI35
aI106
aI112
aI51
aI26
aI64
aI127
aI72
aI8
aI76
aI59
aI39
aI95
aI84
aI14
aI108
aI85
aI102
aI61
aI40
aI81
aI27
aI90
aI91
aI97
aI50
aI80
aI13
aI134
aI83
aI3
aI135
aI109
aI139
aa(lp16
I62
aI77
aI18
aI71
aI35
aI61
aI55
aI42
aI135
aI67
aI0
aI141
aI99
aI8
aI75
aI81
aI114
aI68
aI23
aI26
aI100
aI88
aI45
aI84
aI103
aI126
aI74
aI33
aI38
aI112
aI4
aI10
aI65
aI79
aI64
aI73
aI54
aI96
aI90
aI82
aI17
aI117
aI83
aI110
aI134
aI104
aI21
aI76
aI116
aI49
aI115
aI120
aI60
aI70
aI51
aI69
aI40
aI24
aI14
aI140
aI78
aI102
aI131
aI129
aI93
aI41
aI97
aI125
aI59
aI31
aI22
aI9
aI44
aI47
aI123
aI80
aI108
aI5
aI50
aI107
aI138
aI94
aI121
aI13
aI32
aI43
aI92
aI11
aI111
aI58
aI101
aI7
aI15
aI72
aI98
aI39
aI113
aI6
aI124
aI106
aI87
aI137
aI25
aI37
aI53
aI132
aI34
aI119
aI12
aI118
aI29
aI109
aI127
aI52
aI136
aI133
aI95
aI142
aI1
aI30
aI48
aI20
aI85
aI56
aI130
aI139
aI2
aI28
aI86
aI57
aI19
aI128
aI16
aI89
aI91
aI27
aI63
aI3
aI46
aI122
aI105
aI66
aI36
aa(lp17
I83
aI30
aI63
aI70
aI78
aI95
aI42
aI93
aI27
aI117
aI137
aI109
aI29
aI62
aI11
aI135
aI7
aI24
aI57
aI84
aI49
aI96
aI101
aI106
aI90
aI77
aI61
aI39
aI38
aI102
aI22
aI23
aI45
aI105
aI128
aI80
aI108
aI2
aI43
aI130
aI4
aI91
aI47
aI53
aI54
aI20
aI79
aI3
aI35
aI19
aI1
aI125
aI139
aI88
aI86
aI50
aI60
aI134
aI131
aI107
aI72
aI15
aI126
aI82
aI56
aI111
aI6
aI33
aI124
aI48
aI75
aI37
aI141
aI14
aI103
aI122
aI132
aI121
aI123
aI129
aI28
aI44
aI40
aI85
aI31
aI140
aI65
aI25
aI8
aI69
aI34
aI71
aI87
aI9
aI104
aI127
aI116
aI98
aI41
aI110
aI10
aI73
aI52
aI133
aI46
aI100
aI119
aI51
aI142
aI99
aI64
aI12
aI89
aI118
aI66
aI16
aI58
aI112
aI17
aI113
aI94
aI36
aI76
aI55
aI97
aI114
aI5
aI92
aI18
aI136
aI81
aI115
aI59
aI74
aI67
aI68
aI120
aI21
aI13
aI32
aI26
aI138
aI0
aa(lp18
I67
aI126
aI49
aI22
aI77
aI96
aI30
aI14
aI93
aI29
aI70
aI133
aI66
aI101
aI4
aI15
aI104
aI92
aI52
aI40
aI19
aI76
aI140
aI47
aI124
aI0
aI98
aI68
aI99
aI142
aI46
aI20
aI74
aI95
aI27
aI55
aI123
aI121
aI64
aI113
aI65
aI128
aI134
aI2
aI41
aI81
aI132
aI83
aI51
aI115
aI84
aI7
aI109
aI39
aI16
aI32
aI18
aI86
aI137
aI89
aI90
aI78
aI75
aI120
aI54
aI110
aI43
aI103
aI87
aI12
aI106
aI100
aI71
aI58
aI111
aI44
aI122
aI21
aI85
aI72
aI11
aI8
aI138
aI9
aI80
aI5
aI63
aI141
aI114
aI127
aI116
aI112
aI79
aI119
aI73
aI139
aI37
aI130
aI62
aI108
aI1
aI53
aI10
aI88
aI118
aI94
aI56
aI13
aI91
aI25
aI69
aI97
aI135
aI28
aI102
aI24
aI38
aI45
aI50
aI33
aI107
aI26
aI6
aI59
aI48
aI131
aI17
aI31
aI105
aI3
aI23
aI125
aI129
aI34
aI42
aI117
aI35
aI61
aI57
aI82
aI136
aI60
aI36
aa(lp19
I70
aI53
aI40
aI107
aI81
aI44
aI141
aI32
aI51
aI54
aI138
aI129
aI79
aI106
aI94
aI132
aI75
aI69
aI13
aI74
aI88
aI96
aI98
aI63
aI23
aI140
aI5
aI112
aI104
aI73
aI29
aI35
aI142
aI26
aI50
aI43
aI11
aI80
aI49
aI78
aI102
aI65
aI103
aI67
aI36
aI136
aI58
aI33
aI117
aI61
aI16
aI7
aI91
aI71
aI62
aI95
aI25
aI137
aI38
aI121
aI139
aI92
aI64
aI12
aI126
aI100
aI111
aI122
aI4
aI124
aI28
aI52
aI57
aI109
aI130
aI47
aI86
aI42
aI59
aI18
aI21
aI90
aI113
aI14
aI2
aI3
aI125
aI76
aI119
aI0
aI6
aI17
aI27
aI60
aI24
aI97
aI41
aI19
aI108
aI10
aI30
aI68
aI72
aI8
aI101
aI20
aI87
aI134
aI82
aI31
aI123
aI131
aI46
aI55
aI133
aI110
aI93
aI135
aI118
aI128
aI34
aI15
aI56
aI77
aI37
aI9
aI22
aI99
aI120
aI45
aI116
aI84
aI1
aI89
aI127
aI105
aI48
aI114
aI115
aI39
aI66
aI83
aI85
aa(lp20
I102
aI15
aI44
aI121
aI35
aI70
aI125
aI93
aI104
aI94
aI1
aI92
aI109
aI116
aI6
aI19
aI119
aI65
aI73
aI77
aI86
aI66
aI107
aI126
aI101
aI139
aI21
aI43
aI29
aI36
aI85
aI105
aI18
aI67
aI61
aI46
aI12
aI82
aI14
aI138
aI37
aI76
aI137
aI52
aI75
aI42
aI39
aI51
aI53
aI120
aI106
aI3
aI79
aI10
aI64
aI100
aI20
aI91
aI99
aI122
aI84
aI50
aI69
aI81
aI9
aI118
aI128
aI2
aI131
aI28
aI27
aI0
aI74
aI95
aI5
aI24
aI114
aI103
aI48
aI130
aI56
aI63
aI88
aI23
aI38
aI140
aI87
aI134
aI132
aI11
aI110
aI13
aI60
aI49
aI45
aI31
aI72
aI108
aI54
aI55
aI7
aI129
aI40
aI41
aI136
aI58
aI80
aI117
aI71
aI113
aI68
aI4
aI98
aI34
aI96
aI133
aI26
aI135
aI59
aI127
aI57
aI33
aI112
aI83
aI62
aI17
aI8
aI32
aI111
aI124
aI30
aI97
aI90
aI16
aI78
aI141
aI47
aI25
aI142
aI123
aI89
aI22
aI115
aa.