(lp0
(lp1
I12
aI52
aI11
aI28
aI9
aI17
aI18
aI40
aI29
aI1
aI37
aI47
aI16
aI7
aI46
aI49
aI14
aI58
aI57
aI45
aI35
aI53
aI39
aI60
aI36
aI59
aI26
aI4
aI55
aI54
aI44
aI13
aI48
aI19
aI23
aI51
aI50
aI27
aI25
aI42
aI33
aI8
aI41
aI22
aI15
aI34
aI38
aI56
aI32
aI61
aI5
aI21
aI30
aI24
aI2
aI43
aI0
aI3
aI10
aI20
aI6
aI31
aa(lp2
I47
aI27
aI54
aI19
aI39
aI43
aI16
aI24
aI44
aI18
aI49
aI28
aI41
aI59
aI11
aI30
aI14
aI25
aI26
aI0
aI23
aI7
aI20
aI51
aI12
aI52
aI13
aI45
aI53
aI35
aI2
aI36
aI10
aI4
aI57
aI58
aI15
aI8
aI56
aI60
aI48
aI3
aI38
aI6
aI37
aI55
aI21
aI32
aI46
aI34
aI40
aI31
aI22
aI17
aI33
aI5
aI9
aI1
aI61
aI50
aI42
aI29
aa(lp3
I29
aI39
aI61
aI8
aI12
aI17
aI23
aI57
aI0
aI13
aI28
aI42
aI41
aI26
aI36
aI50
aI35
aI18
aI38
aI27
aI19
aI6
aI46
aI4
aI10
aI56
aI52
aI49
aI59
aI20
aI9
aI11
aI44
aI5
aI45
aI40
aI55
aI21
aI14
aI24
aI33
aI58
aI54
aI15
aI7
aI32
aI34
aI25
aI22
aI30
aI51
aI37
aI43
aI1
aI53
aI2
aI16
aI47
aI60
aI48
aI3
aI31
aa(lp4
I35
aI37
aI45
aI40
aI17
aI49
aI3
aI10
aI47
aI0
aI26
aI13
aI25
aI61
aI54
aI15
aI21
aI57
aI36
aI29
aI55
aI9
aI43
aI48
aI18
aI28
aI22
aI8
aI59
aI14
aI58
aI41
aI2
aI52
aI51
aI27
aI5
aI20
aI60
aI53
aI11
aI24
aI38
aI19
aI32
aI39
aI50
aI46
aI7
aI1
aI33
aI16
aI12
aI30
aI42
aI44
aI31
aI56
aI23
aI34
aI6
aI4
aa(lp5
I16
aI28
aI10
aI52
aI58
aI1
aI18
aI12
aI2
aI29
aI61
aI0
aI54
aI48
aI3
aI26
aI7
aI49
aI41
aI35
aI53
aI15
aI25
aI57
aI42
aI44
aI14
aI22
aI43
aI51
aI34
aI6
aI24
aI39
aI13
aI46
aI55
aI17
aI9
aI60
aI4
aI11
aI21
aI40
aI37
aI8
aI50
aI38
aI56
aI31
aI23
aI19
aI27
aI33
aI20
aI59
aI47
aI45
aI36
aI32
aI5
aI30
aa(lp6
I55
aI13
aI19
aI26
aI28
aI31
aI56
aI44
aI46
aI54
aI34
aI35
aI2
aI60
aI18
aI40
aI20
aI16
aI8
aI5
aI30
aI43
aI36
aI37
aI7
aI53
aI45
aI51
aI14
aI10
aI50
aI48
aI1
aI29
aI41
aI17
aI39
aI27
aI22
aI42
aI21
aI47
aI4
aI12
aI6
aI33
aI52
aI58
aI25
aI0
aI9
aI59
aI23
aI3
aI15
aI61
aI38
aI24
aI57
aI49
aI32
aI11
aa(lp7
I27
aI3
aI14
aI44
aI24
aI15
aI54
aI53
aI38
aI34
aI56
aI13
aI51
aI11
aI39
aI17
aI2
aI52
aI28
aI22
aI40
aI42
aI59
aI19
aI29
aI4
aI8
aI10
aI33
aI37
aI21
aI35
aI0
aI6
aI23
aI5
aI43
aI50
aI25
aI58
aI47
aI12
aI30
aI55
aI46
aI26
aI49
aI18
aI1
aI61
aI9
aI20
aI7
aI48
aI16
aI41
aI36
aI31
aI45
aI60
aI57
aI32
aa(lp8
I47
aI45
aI33
aI41
aI23
aI55
aI10
aI40
aI12
aI54
aI58
aI28
aI0
aI32
aI56
aI9
aI48
aI22
aI14
aI49
aI17
aI13
aI1
aI20
aI5
aI2
aI11
aI38
aI61
aI30
aI59
aI21
aI39
aI15
aI4
aI31
aI26
aI50
aI29
aI42
aI27
aI37
aI34
aI18
aI16
aI19
aI51
aI44
aI46
aI24
aI35
aI25
aI43
aI7
aI60
aI3
aI52
aI6
aI8
aI57
aI36
aI53
aa(lp9
I14
aI47
aI38
aI9
aI32
aI55
aI50
aI13
aI21
aI16
aI1
aI61
aI52
aI6
aI10
aI48
aI37
aI11
aI12
aI30
aI40
aI57
aI60
aI49
aI17
aI4
aI39
aI24
aI22
aI43
aI3
aI2
aI28
aI31
aI29
aI45
aI27
aI34
aI15
aI19
aI51
aI46
aI26
aI44
aI33
aI56
aI20
aI59
aI0
aI7
aI53
aI8
aI5
aI25
aI58
aI18
aI41
aI36
aI23
aI42
aI54
aI35
aa(lp10
I14
aI24
aI10
aI6
aI5
aI49
aI31
aI29
aI54
aI48
aI11
aI4
aI17
aI20
aI25
aI0
aI44
aI2
aI39
aI52
aI50
aI22
aI61
aI13
aI3
aI53
aI12
aI33
aI47
aI59
aI36
aI28
aI45
aI1
aI27
aI42
aI15
aI23
aI56
aI19
aI41
aI9
aI16
aI38
aI35
aI32
aI60
aI40
aI21
aI37
aI7
aI18
aI58
aI51
aI34
aI46
aI30
aI43
aI57
aI55
aI26
aI8
aa(lp11
I24
aI23
aI21
aI53
aI50
aI60
aI46
aI27
aI8
aI22
aI26
aI33
aI13
aI30
aI6
aI43
aI12
aI34
aI15
aI17
aI47
aI16
aI0
aI49
aI52
aI48
aI20
aI4
aI41
aI56
aI11
aI19
aI31
aI59
aI44
aI57
aI2
aI51
aI18
aI7
aI25
aI28
aI32
aI55
aI36
aI54
aI38
aI10
aI37
aI9
aI35
aI3
aI29
aI45
aI40
aI61
aI42
aI14
aI1
aI39
aI5
aI58
aa(lp12
I10
aI26
aI0
aI23
aI40
aI47
aI1
aI9
aI24
aI37
aI27
aI46
aI7
aI5
aI38
aI22
aI59
aI44
aI34
aI48
aI57
aI33
aI41
aI32
aI29
aI3
aI31
aI11
aI6
aI60
aI16
aI53
aI30
aI4
aI20
aI54
aI12
aI17
aI28
aI55
aI15
aI39
aI58
aI56
aI52
aI2
aI14
aI35
aI51
aI45
aI25
aI61
aI21
aI18
aI36
aI13
aI43
aI8
aI42
aI50
aI49
aI19
aa(lp13
I27
aI36
aI58
aI29
aI4
aI53
aI56
aI61
aI10
aI21
aI50
aI22
aI3
aI1
aI57
aI28
aI45
aI43
aI2
aI38
aI54
aI60
aI37
aI51
aI32
aI12
aI17
aI49
aI7
aI18
aI5
aI44
aI16
aI11
aI47
aI52
aI35
aI8
aI26
aI41
aI9
aI34
aI24
aI15
aI6
aI23
aI55
aI46
aI13
aI40
aI0
aI30
aI19
aI14
aI39
aI25
aI59
aI48
aI42
aI33
aI31
aI20
aa(lp14
I21
aI7
aI22
aI36
aI3
aI25
aI56
aI45
aI28
aI30
aI34
aI51
aI29
aI50
aI40
aI33
aI47
aI19
aI52
aI15
aI4
aI58
aI23
aI37
aI26
aI43
aI57
aI54
aI13
aI8
aI20
aI48
aI0
aI16
aI59
aI12
aI49
aI38
aI6
aI46
aI27
aI18
aI61
aI24
aI32
aI17
aI55
aI2
aI14
aI9
aI35
aI10
aI42
aI5
aI39
aI44
aI53
aI1
aI60
aI41
aI31
aI11
aa(lp15
I60
aI56
aI42
aI51
aI24
aI59
aI26
aI16
aI34
aI47
aI27
aI37
aI43
aI0
aI33
aI54
aI2
aI35
aI49
aI8
aI41
aI30
aI53
aI48
aI31
aI5
aI12
aI38
aI22
aI18
aI57
aI20
aI11
aI3
aI21
aI61
aI25
aI17
aI28
aI52
aI19
aI58
aI50
aI39
aI9
aI46
aI14
aI13
aI29
aI6
aI32
aI10
aI45
aI23
aI55
aI36
aI1
aI40
aI4
aI7
aI44
aI15
aa(lp16
I0
aI40
aI33
aI43
aI29
aI25
aI48
aI47
aI8
aI30
aI20
aI14
aI54
aI10
aI41
aI37
aI3
aI56
aI36
aI7
aI61
aI60
aI26
aI9
aI44
aI17
aI11
aI13
aI12
aI45
aI27
aI38
aI21
aI53
aI35
aI49
aI19
aI2
aI55
aI5
aI59
aI24
aI23
aI52
aI39
aI50
aI28
aI18
aI51
aI16
aI46
aI15
aI4
aI57
aI34
aI1
aI22
aI31
aI58
aI6
aI42
aI32
aa(lp17
I35
aI24
aI47
aI20
aI42
aI61
aI6
aI23
aI4
aI57
aI10
aI41
aI49
aI37
aI25
aI21
aI18
aI8
aI58
aI3
aI44
aI1
aI27
aI56
aI30
aI36
aI12
aI9
aI40
aI17
aI60
aI59
aI52
aI53
aI15
aI54
aI19
aI46
aI39
aI32
aI45
aI29
aI26
aI28
aI38
aI33
aI22
aI11
aI13
aI55
aI51
aI48
aI34
aI16
aI7
aI50
aI14
aI5
aI31
aI43
aI2
aI0
aa(lp18
I47
aI10
aI27
aI1
aI12
aI4
aI40
aI29
aI51
aI8
aI9
aI34
aI2
aI54
aI14
aI19
aI32
aI31
aI36
aI39
aI55
aI60
aI57
aI0
aI6
aI28
aI43
aI13
aI45
aI46
aI15
aI26
aI3
aI24
aI56
aI30
aI5
aI58
aI42
aI25
aI38
aI17
aI50
aI22
aI16
aI35
aI59
aI53
aI7
aI48
aI18
aI49
aI52
aI33
aI41
aI37
aI23
aI21
aI20
aI44
aI61
aI11
aa(lp19
I33
aI54
aI47
aI51
aI25
aI4
aI41
aI61
aI7
aI29
aI39
aI48
aI15
aI20
aI27
aI43
aI52
aI17
aI58
aI28
aI35
aI55
aI12
aI21
aI13
aI49
aI60
aI53
aI1
aI8
aI44
aI30
aI23
aI34
aI5
aI2
aI24
aI14
aI50
aI0
aI40
aI32
aI19
aI22
aI57
aI10
aI45
aI6
aI46
aI42
aI56
aI16
aI3
aI11
aI26
aI36
aI37
aI18
aI38
aI9
aI31
aI59
aa(lp20
I37
aI39
aI18
aI60
aI15
aI43
aI28
aI48
aI10
aI51
aI8
aI21
aI61
aI2
aI22
aI44
aI11
aI33
aI6
aI45
aI59
aI49
aI30
aI55
aI20
aI7
aI31
aI32
aI9
aI17
aI4
aI24
aI26
aI54
aI3
aI40
aI1
aI42
aI56
aI36
aI25
aI14
aI47
aI46
aI23
aI58
aI0
aI35
aI16
aI50
aI53
aI38
aI34
aI19
aI57
aI12
aI41
aI29
aI52
aI27
aI13
aI5
aa.