(lp0
(lp1
I7
aI9
aI3
aI59
aI13
aI45
aI44
aI47
aI37
aI5
aI10
aI24
aI58
aI14
aI20
aI36
aI56
aI54
aI52
aI0
aI26
aI40
aI22
aI4
aI11
aI38
aI55
aI50
aI28
aI33
aI30
aI12
aI41
aI43
aI29
aI57
aI42
aI23
aI8
aI53
aI21
aI19
aI17
aI1
aI27
aI34
aI35
aI18
aI60
aI15
aI6
aI31
aI48
aI32
aI49
aI25
aI51
aI46
aI39
aI2
aI16
aa(lp2
I33
aI58
aI14
aI53
aI37
aI17
aI54
aI20
aI18
aI29
aI1
aI9
aI15
aI51
aI44
aI7
aI57
aI40
aI35
aI60
aI55
aI41
aI38
aI6
aI28
aI43
aI26
aI48
aI2
aI10
aI19
aI30
aI11
aI24
aI47
aI50
aI42
aI4
aI52
aI13
aI23
aI22
aI34
aI59
aI16
aI8
aI27
aI5
aI39
aI25
aI56
aI45
aI0
aI21
aI3
aI36
aI46
aI32
aI31
aI12
aI49
aa(lp3
I22
aI49
aI39
aI34
aI48
aI11
aI4
aI23
aI56
aI24
aI37
aI33
aI25
aI59
aI1
aI50
aI54
aI45
aI31
aI9
aI15
aI47
aI32
aI19
aI13
aI53
aI26
aI7
aI16
aI10
aI14
aI46
aI29
aI27
aI2
aI60
aI18
aI17
aI30
aI21
aI55
aI58
aI44
aI28
aI0
aI38
aI52
aI42
aI35
aI3
aI51
aI41
aI43
aI20
aI40
aI6
aI57
aI12
aI36
aI5
aI8
aa(lp4
I7
aI18
aI2
aI48
aI37
aI17
aI36
aI28
aI6
aI4
aI38
aI47
aI45
aI15
aI20
aI41
aI60
aI0
aI53
aI12
aI46
aI54
aI22
aI11
aI52
aI8
aI34
aI21
aI3
aI9
aI25
aI1
aI58
aI50
aI59
aI26
aI27
aI16
aI51
aI30
aI10
aI42
aI49
aI43
aI55
aI23
aI24
aI57
aI33
aI40
aI56
aI13
aI31
aI14
aI32
aI5
aI39
aI44
aI29
aI35
aI19
aa(lp5
I33
aI38
aI7
aI8
aI0
aI30
aI58
aI29
aI23
aI48
aI56
aI19
aI9
aI28
aI51
aI53
aI21
aI55
aI2
aI26
aI59
aI39
aI40
aI36
aI44
aI45
aI31
aI54
aI24
aI17
aI60
aI27
aI35
aI50
aI14
aI12
aI20
aI4
aI43
aI22
aI25
aI46
aI10
aI18
aI15
aI13
aI34
aI37
aI41
aI1
aI32
aI49
aI11
aI5
aI52
aI42
aI3
aI47
aI6
aI57
aI16
aa(lp6
I15
aI3
aI25
aI0
aI54
aI2
aI33
aI5
aI14
aI8
aI18
aI38
aI43
aI20
aI31
aI4
aI30
aI41
aI19
aI45
aI21
aI12
aI58
aI17
aI55
aI39
aI36
aI60
aI35
aI47
aI48
aI27
aI26
aI51
aI56
aI6
aI9
aI10
aI50
aI32
aI46
aI49
aI57
aI44
aI22
aI42
aI13
aI7
aI53
aI16
aI59
aI37
aI1
aI24
aI29
aI40
aI23
aI11
aI52
aI28
aI34
aa(lp7
I5
aI39
aI48
aI28
aI0
aI36
aI2
aI29
aI60
aI32
aI21
aI23
aI15
aI18
aI55
aI33
aI40
aI46
aI8
aI14
aI27
aI35
aI3
aI20
aI7
aI12
aI51
aI6
aI13
aI22
aI30
aI31
aI41
aI4
aI50
aI54
aI1
aI43
aI45
aI38
aI17
aI53
aI59
aI49
aI56
aI26
aI58
aI34
aI42
aI37
aI10
aI24
aI57
aI16
aI52
aI44
aI25
aI9
aI47
aI19
aI11
aa(lp8
I39
aI47
aI26
aI38
aI49
aI56
aI34
aI12
aI0
aI42
aI20
aI30
aI3
aI35
aI36
aI41
aI23
aI45
aI57
aI31
aI46
aI27
aI24
aI16
aI28
aI53
aI7
aI19
aI37
aI52
aI2
aI59
aI60
aI55
aI50
aI1
aI6
aI9
aI32
aI29
aI22
aI11
aI14
aI40
aI58
aI48
aI25
aI15
aI44
aI5
aI54
aI17
aI43
aI51
aI10
aI18
aI4
aI33
aI21
aI13
aI8
aa(lp9
I18
aI37
aI42
aI17
aI28
aI15
aI54
aI4
aI16
aI53
aI51
aI59
aI41
aI2
aI10
aI32
aI38
aI50
aI35
aI7
aI40
aI33
aI27
aI58
aI31
aI13
aI8
aI49
aI52
aI14
aI9
aI56
aI5
aI21
aI60
aI0
aI22
aI43
aI30
aI55
aI6
aI3
aI45
aI12
aI25
aI39
aI26
aI47
aI48
aI23
aI34
aI46
aI11
aI57
aI36
aI29
aI19
aI44
aI20
aI1
aI24
aa(lp10
I5
aI6
aI31
aI42
aI7
aI12
aI22
aI17
aI58
aI38
aI35
aI14
aI1
aI16
aI20
aI46
aI44
aI45
aI59
aI8
aI54
aI47
aI26
aI19
aI37
aI49
aI56
aI18
aI13
aI3
aI43
aI25
aI39
aI23
aI40
aI4
aI10
aI57
aI32
aI21
aI33
aI55
aI27
aI9
aI36
aI2
aI41
aI28
aI48
aI24
aI50
aI53
aI0
aI30
aI52
aI51
aI60
aI34
aI29
aI11
aI15
aa(lp11
I21
aI59
aI22
aI49
aI55
aI16
aI45
aI41
aI42
aI39
aI51
aI29
aI1
aI34
aI8
aI7
aI19
aI28
aI32
aI35
aI0
aI53
aI12
aI2
aI52
aI47
aI13
aI10
aI60
aI30
aI18
aI17
aI23
aI26
aI15
aI5
aI43
aI37
aI40
aI36
aI57
aI4
aI6
aI14
aI38
aI58
aI3
aI27
aI33
aI31
aI54
aI56
aI25
aI44
aI24
aI48
aI9
aI46
aI20
aI11
aI50
aa(lp12
I15
aI35
aI28
aI48
aI42
aI36
aI8
aI51
aI17
aI24
aI23
aI60
aI3
aI12
aI37
aI21
aI53
aI26
aI13
aI2
aI56
aI29
aI38
aI34
aI52
aI11
aI57
aI22
aI49
aI32
aI7
aI54
aI50
aI10
aI30
aI14
aI43
aI40
aI6
aI27
aI55
aI4
aI46
aI1
aI47
aI0
aI5
aI20
aI25
aI45
aI44
aI31
aI58
aI39
aI9
aI18
aI19
aI41
aI16
aI59
aI33
aa(lp13
I9
aI19
aI51
aI44
aI7
aI55
aI1
aI11
aI57
aI21
aI4
aI14
aI18
aI56
aI30
aI50
aI23
aI49
aI20
aI22
aI52
aI54
aI45
aI2
aI60
aI53
aI17
aI39
aI58
aI35
aI13
aI31
aI46
aI29
aI8
aI5
aI0
aI25
aI48
aI32
aI43
aI38
aI42
aI24
aI6
aI15
aI26
aI10
aI34
aI12
aI36
aI37
aI41
aI3
aI27
aI33
aI28
aI59
aI47
aI16
aI40
aa(lp14
I53
aI41
aI17
aI12
aI13
aI22
aI42
aI39
aI29
aI40
aI19
aI47
aI55
aI34
aI14
aI59
aI0
aI20
aI11
aI10
aI36
aI45
aI30
aI52
aI24
aI25
aI7
aI51
aI21
aI15
aI23
aI49
aI57
aI6
aI54
aI56
aI38
aI43
aI46
aI32
aI18
aI60
aI2
aI3
aI44
aI9
aI26
aI1
aI33
aI48
aI50
aI4
aI16
aI35
aI37
aI31
aI8
aI5
aI58
aI27
aI28
aa(lp15
I25
aI36
aI27
aI22
aI51
aI37
aI31
aI53
aI5
aI16
aI11
aI41
aI49
aI33
aI57
aI52
aI29
aI9
aI55
aI35
aI20
aI12
aI46
aI8
aI34
aI60
aI48
aI23
aI45
aI28
aI26
aI19
aI3
aI58
aI14
aI6
aI54
aI42
aI43
aI0
aI1
aI2
aI59
aI44
aI13
aI17
aI30
aI56
aI4
aI39
aI50
aI32
aI7
aI40
aI18
aI38
aI15
aI24
aI21
aI10
aI47
aa(lp16
I18
aI7
aI5
aI40
aI21
aI14
aI9
aI56
aI46
aI49
aI17
aI34
aI6
aI13
aI12
aI4
aI11
aI35
aI50
aI36
aI44
aI60
aI1
aI25
aI32
aI42
aI19
aI53
aI3
aI24
aI29
aI10
aI16
aI41
aI30
aI58
aI26
aI39
aI37
aI38
aI28
aI52
aI47
aI33
aI15
aI54
aI23
aI45
aI27
aI20
aI59
aI31
aI22
aI43
aI2
aI0
aI8
aI55
aI57
aI51
aI48
aa(lp17
I59
aI34
aI50
aI27
aI26
aI25
aI6
aI44
aI20
aI7
aI22
aI32
aI58
aI35
aI28
aI12
aI10
aI9
aI56
aI40
aI47
aI48
aI33
aI0
aI46
aI11
aI21
aI45
aI41
aI53
aI8
aI49
aI13
aI54
aI52
aI3
aI30
aI38
aI57
aI43
aI42
aI29
aI4
aI23
aI60
aI24
aI14
aI55
aI19
aI17
aI31
aI1
aI5
aI37
aI2
aI39
aI16
aI18
aI15
aI36
aI51
aa(lp18
I9
aI55
aI53
aI34
aI32
aI35
aI60
aI1
aI11
aI12
aI21
aI8
aI15
aI36
aI3
aI31
aI22
aI40
aI52
aI30
aI2
aI59
aI43
aI45
aI44
aI37
aI18
aI49
aI26
aI7
aI54
aI47
aI50
aI33
aI48
aI14
aI10
aI27
aI58
aI51
aI29
aI25
aI42
aI23
aI46
aI5
aI16
aI17
aI57
aI0
aI38
aI6
aI20
aI19
aI56
aI24
aI39
aI41
aI4
aI28
aI13
aa(lp19
I29
aI24
aI33
aI16
aI31
aI53
aI23
aI18
aI58
aI37
aI12
aI21
aI48
aI9
aI38
aI25
aI42
aI6
aI36
aI43
aI49
aI28
aI60
aI35
aI51
aI39
aI26
aI11
aI47
aI30
aI22
aI5
aI57
aI1
aI41
aI32
aI7
aI17
aI19
aI3
aI55
aI27
aI14
aI15
aI46
aI20
aI34
aI59
aI40
aI54
aI4
aI0
aI44
aI10
aI45
aI52
aI8
aI2
aI13
aI56
aI50
aa(lp20
I37
aI10
aI32
aI41
aI8
aI17
aI7
aI54
aI16
aI49
aI45
aI24
aI18
aI53
aI51
aI9
aI12
aI52
aI39
aI19
aI56
aI59
aI13
aI15
aI50
aI2
aI25
aI48
aI33
aI4
aI27
aI30
aI14
aI43
aI1
aI26
aI57
aI34
aI6
aI29
aI23
aI46
aI11
aI58
aI22
aI5
aI38
aI60
aI42
aI0
aI20
aI40
aI44
aI47
aI55
aI35
aI3
aI36
aI31
aI21
aI28
aa.