(lp0
(lp1
I45
aI43
aI11
aI3
aI24
aI4
aI14
aI36
aI31
aI7
aI20
aI49
aI29
aI34
aI13
aI27
aI25
aI22
aI35
aI6
aI39
aI0
aI33
aI23
aI5
aI42
aI28
aI17
aI2
aI9
aI51
aI8
aI48
aI47
aI19
aI21
aI44
aI41
aI12
aI1
aI40
aI15
aI26
aI10
aI50
aI18
aI38
aI46
aI37
aI16
aI52
aI32
aI30
aa(lp2
I3
aI6
aI19
aI50
aI11
aI25
aI10
aI34
aI17
aI0
aI47
aI27
aI51
aI8
aI28
aI4
aI48
aI24
aI49
aI13
aI30
aI20
aI16
aI44
aI18
aI5
aI2
aI45
aI12
aI22
aI43
aI42
aI14
aI37
aI35
aI38
aI46
aI40
aI9
aI23
aI52
aI26
aI36
aI29
aI21
aI7
aI39
aI32
aI31
aI41
aI15
aI1
aI33
aa(lp3
I2
aI51
aI6
aI35
aI19
aI29
aI18
aI26
aI4
aI40
aI5
aI10
aI27
aI48
aI42
aI39
aI1
aI16
aI3
aI32
aI46
aI30
aI33
aI9
aI52
aI17
aI7
aI24
aI28
aI23
aI22
aI38
aI43
aI49
aI11
aI44
aI12
aI20
aI37
aI25
aI41
aI31
aI0
aI45
aI34
aI50
aI13
aI36
aI47
aI8
aI21
aI14
aI15
aa(lp4
I49
aI31
aI21
aI6
aI39
aI22
aI10
aI47
aI34
aI41
aI23
aI17
aI5
aI44
aI37
aI35
aI9
aI16
aI52
aI27
aI50
aI40
aI36
aI12
aI48
aI18
aI45
aI43
aI19
aI51
aI4
aI29
aI0
aI2
aI1
aI30
aI33
aI32
aI15
aI38
aI20
aI7
aI25
aI14
aI24
aI3
aI8
aI13
aI42
aI26
aI28
aI11
aI46
aa(lp5
I30
aI7
aI42
aI22
aI33
aI43
aI40
aI0
aI47
aI44
aI5
aI3
aI31
aI17
aI25
aI41
aI19
aI45
aI11
aI10
aI26
aI38
aI51
aI15
aI16
aI28
aI14
aI37
aI12
aI50
aI35
aI34
aI32
aI48
aI21
aI36
aI27
aI1
aI20
aI8
aI4
aI2
aI6
aI23
aI13
aI39
aI18
aI24
aI9
aI46
aI49
aI52
aI29
aa(lp6
I51
aI28
aI44
aI12
aI0
aI27
aI36
aI31
aI18
aI39
aI1
aI52
aI19
aI15
aI48
aI22
aI46
aI40
aI8
aI7
aI32
aI2
aI45
aI5
aI41
aI6
aI16
aI21
aI49
aI29
aI10
aI34
aI35
aI47
aI38
aI14
aI37
aI33
aI30
aI13
aI42
aI17
aI9
aI11
aI4
aI23
aI50
aI20
aI3
aI24
aI43
aI26
aI25
aa(lp7
I29
aI36
aI7
aI3
aI0
aI9
aI43
aI33
aI12
aI26
aI16
aI40
aI14
aI19
aI11
aI23
aI41
aI48
aI38
aI13
aI18
aI8
aI5
aI4
aI45
aI51
aI27
aI37
aI17
aI34
aI30
aI21
aI39
aI44
aI49
aI2
aI52
aI47
aI32
aI42
aI6
aI25
aI28
aI15
aI24
aI22
aI46
aI1
aI50
aI35
aI20
aI31
aI10
aa(lp8
I48
aI0
aI11
aI35
aI25
aI28
aI49
aI50
aI52
aI40
aI22
aI7
aI30
aI27
aI20
aI51
aI3
aI17
aI36
aI8
aI10
aI24
aI1
aI12
aI26
aI14
aI44
aI41
aI2
aI23
aI31
aI29
aI4
aI9
aI37
aI42
aI39
aI19
aI47
aI6
aI21
aI18
aI13
aI32
aI45
aI43
aI33
aI5
aI34
aI38
aI46
aI15
aI16
aa(lp9
I47
aI48
aI50
aI16
aI46
aI12
aI5
aI0
aI24
aI44
aI45
aI33
aI1
aI38
aI7
aI22
aI2
aI10
aI49
aI15
aI21
aI20
aI43
aI18
aI29
aI37
aI30
aI3
aI27
aI34
aI23
aI17
aI32
aI25
aI6
aI13
aI31
aI51
aI39
aI35
aI26
aI14
aI41
aI40
aI28
aI11
aI42
aI36
aI9
aI4
aI52
aI19
aI8
aa(lp10
I19
aI2
aI18
aI8
aI49
aI37
aI14
aI33
aI0
aI22
aI38
aI43
aI13
aI36
aI48
aI21
aI24
aI34
aI6
aI41
aI3
aI32
aI46
aI28
aI52
aI17
aI15
aI7
aI51
aI5
aI27
aI11
aI40
aI35
aI50
aI1
aI9
aI10
aI42
aI12
aI44
aI4
aI30
aI45
aI29
aI39
aI16
aI20
aI47
aI25
aI23
aI26
aI31
aa(lp11
I48
aI38
aI40
aI5
aI23
aI16
aI13
aI34
aI39
aI42
aI32
aI33
aI49
aI18
aI12
aI31
aI7
aI4
aI35
aI29
aI37
aI6
aI14
aI27
aI11
aI19
aI0
aI41
aI22
aI2
aI25
aI52
aI1
aI20
aI8
aI30
aI10
aI47
aI24
aI44
aI9
aI28
aI43
aI36
aI26
aI46
aI21
aI51
aI45
aI50
aI3
aI15
aI17
aa(lp12
I30
aI2
aI28
aI7
aI51
aI32
aI34
aI23
aI20
aI19
aI11
aI3
aI39
aI24
aI16
aI13
aI40
aI29
aI8
aI37
aI4
aI52
aI22
aI33
aI26
aI45
aI43
aI6
aI27
aI36
aI47
aI35
aI0
aI31
aI21
aI12
aI50
aI44
aI38
aI42
aI9
aI48
aI14
aI1
aI15
aI17
aI25
aI5
aI18
aI46
aI10
aI41
aI49
aa(lp13
I8
aI46
aI17
aI23
aI40
aI1
aI20
aI6
aI10
aI27
aI11
aI50
aI34
aI2
aI31
aI5
aI18
aI7
aI15
aI9
aI38
aI21
aI44
aI3
aI29
aI28
aI49
aI19
aI39
aI16
aI48
aI25
aI41
aI43
aI35
aI42
aI37
aI47
aI52
aI22
aI51
aI36
aI14
aI33
aI4
aI45
aI13
aI12
aI30
aI0
aI32
aI26
aI24
aa(lp14
I15
aI44
aI52
aI28
aI34
aI0
aI2
aI19
aI38
aI42
aI47
aI7
aI25
aI39
aI41
aI35
aI31
aI23
aI6
aI29
aI10
aI49
aI33
aI11
aI30
aI48
aI43
aI21
aI27
aI14
aI46
aI5
aI24
aI9
aI45
aI3
aI26
aI51
aI8
aI50
aI1
aI36
aI22
aI13
aI40
aI32
aI37
aI18
aI4
aI20
aI17
aI12
aI16
aa(lp15
I25
aI35
aI6
aI24
aI10
aI52
aI21
aI20
aI40
aI13
aI37
aI18
aI5
aI42
aI1
aI48
aI26
aI46
aI51
aI38
aI17
aI50
aI4
aI33
aI34
aI47
aI0
aI14
aI43
aI16
aI31
aI36
aI39
aI30
aI22
aI11
aI44
aI27
aI29
aI7
aI45
aI15
aI3
aI49
aI23
aI19
aI9
aI32
aI41
aI8
aI2
aI28
aI12
aa(lp16
I10
aI17
aI26
aI12
aI18
aI33
aI6
aI48
aI30
aI36
aI28
aI39
aI27
aI19
aI38
aI24
aI29
aI50
aI40
aI32
aI52
aI22
aI4
aI23
aI46
aI20
aI34
aI37
aI5
aI47
aI8
aI31
aI0
aI16
aI41
aI35
aI11
aI9
aI42
aI7
aI44
aI3
aI25
aI45
aI51
aI1
aI21
aI13
aI43
aI14
aI15
aI2
aI49
aa(lp17
I14
aI21
aI25
aI26
aI13
aI20
aI3
aI31
aI4
aI38
aI6
aI12
aI47
aI23
aI33
aI43
aI46
aI24
aI22
aI2
aI10
aI16
aI51
aI0
aI34
aI11
aI52
aI8
aI19
aI17
aI15
aI9
aI27
aI39
aI1
aI48
aI18
aI30
aI49
aI36
aI50
aI41
aI35
aI37
aI45
aI5
aI44
aI29
aI32
aI28
aI42
aI7
aI40
aa(lp18
I41
aI44
aI46
aI25
aI11
aI1
aI18
aI31
aI23
aI39
aI49
aI12
aI22
aI8
aI28
aI6
aI0
aI35
aI36
aI34
aI42
aI14
aI43
aI9
aI20
aI19
aI16
aI26
aI52
aI4
aI29
aI30
aI15
aI3
aI27
aI32
aI24
aI21
aI17
aI10
aI37
aI47
aI2
aI48
aI13
aI45
aI50
aI33
aI5
aI7
aI51
aI40
aI38
aa(lp19
I36
aI45
aI21
aI47
aI13
aI42
aI52
aI4
aI14
aI38
aI37
aI50
aI33
aI28
aI9
aI31
aI40
aI49
aI2
aI20
aI35
aI5
aI41
aI19
aI11
aI32
aI3
aI1
aI48
aI18
aI6
aI51
aI27
aI15
aI39
aI46
aI10
aI8
aI16
aI12
aI7
aI43
aI17
aI26
aI30
aI23
aI0
aI22
aI44
aI24
aI25
aI34
aI29
aa(lp20
I40
aI23
aI38
aI1
aI11
aI4
aI49
aI13
aI32
aI8
aI45
aI17
aI41
aI10
aI2
aI24
aI29
aI35
aI27
aI15
aI39
aI36
aI52
aI46
aI26
aI51
aI3
aI19
aI0
aI22
aI14
aI48
aI18
aI30
aI6
aI50
aI34
aI9
aI7
aI37
aI31
aI42
aI47
aI5
aI20
aI44
aI12
aI28
aI43
aI33
aI16
aI21
aI25
aa.