(lp0
(lp1
I12
aI14
aI25
aI1
aI31
aI10
aI41
aI28
aI15
aI38
aI6
aI7
aI13
aI23
aI40
aI16
aI50
aI53
aI26
aI8
aI11
aI39
aI5
aI24
aI57
aI27
aI46
aI2
aI43
aI30
aI56
aI19
aI45
aI51
aI18
aI52
aI47
aI34
aI54
aI36
aI32
aI44
aI17
aI21
aI22
aI9
aI3
aI49
aI4
aI58
aI48
aI33
aI20
aI42
aI35
aI55
aI29
aI0
aI37
aa(lp2
I12
aI7
aI40
aI4
aI53
aI55
aI56
aI46
aI38
aI6
aI2
aI17
aI43
aI24
aI42
aI20
aI21
aI49
aI47
aI0
aI13
aI25
aI51
aI29
aI10
aI8
aI36
aI3
aI11
aI32
aI44
aI35
aI27
aI48
aI37
aI57
aI15
aI52
aI18
aI22
aI14
aI5
aI45
aI31
aI26
aI33
aI28
aI16
aI1
aI54
aI50
aI39
aI41
aI58
aI34
aI9
aI19
aI30
aI23
aa(lp3
I22
aI57
aI36
aI52
aI46
aI16
aI9
aI29
aI53
aI40
aI43
aI33
aI4
aI47
aI56
aI15
aI10
aI31
aI32
aI11
aI17
aI35
aI34
aI2
aI0
aI13
aI48
aI5
aI30
aI42
aI54
aI24
aI37
aI55
aI19
aI50
aI3
aI44
aI12
aI14
aI27
aI23
aI38
aI20
aI39
aI25
aI6
aI21
aI51
aI18
aI1
aI45
aI8
aI49
aI28
aI41
aI58
aI7
aI26
aa(lp4
I56
aI50
aI52
aI55
aI57
aI44
aI2
aI34
aI20
aI36
aI43
aI7
aI27
aI0
aI21
aI58
aI22
aI8
aI12
aI47
aI35
aI48
aI33
aI45
aI1
aI32
aI15
aI4
aI29
aI3
aI23
aI49
aI46
aI16
aI11
aI18
aI9
aI19
aI42
aI25
aI37
aI40
aI5
aI28
aI41
aI54
aI10
aI26
aI38
aI24
aI17
aI14
aI31
aI13
aI53
aI51
aI6
aI30
aI39
aa(lp5
I11
aI16
aI17
aI34
aI35
aI49
aI4
aI32
aI24
aI52
aI47
aI54
aI37
aI7
aI2
aI3
aI39
aI53
aI42
aI25
aI0
aI44
aI23
aI10
aI13
aI30
aI43
aI6
aI18
aI57
aI46
aI36
aI19
aI26
aI31
aI38
aI14
aI33
aI56
aI41
aI21
aI58
aI51
aI40
aI48
aI45
aI22
aI15
aI50
aI5
aI28
aI1
aI8
aI9
aI29
aI20
aI27
aI12
aI55
aa(lp6
I10
aI18
aI34
aI23
aI39
aI25
aI24
aI17
aI11
aI3
aI0
aI44
aI58
aI57
aI6
aI32
aI19
aI38
aI22
aI8
aI26
aI15
aI9
aI48
aI54
aI50
aI40
aI5
aI7
aI35
aI2
aI16
aI41
aI53
aI46
aI43
aI36
aI52
aI56
aI31
aI14
aI30
aI27
aI1
aI29
aI28
aI42
aI13
aI4
aI45
aI37
aI51
aI33
aI47
aI55
aI20
aI21
aI49
aI12
aa(lp7
I4
aI28
aI53
aI42
aI45
aI19
aI32
aI17
aI18
aI25
aI16
aI35
aI29
aI30
aI15
aI33
aI7
aI43
aI46
aI14
aI58
aI57
aI51
aI39
aI55
aI3
aI1
aI50
aI27
aI11
aI44
aI20
aI54
aI8
aI36
aI38
aI56
aI47
aI12
aI6
aI9
aI31
aI26
aI24
aI48
aI23
aI10
aI21
aI41
aI49
aI40
aI52
aI34
aI0
aI5
aI13
aI22
aI2
aI37
aa(lp8
I18
aI35
aI4
aI10
aI23
aI2
aI30
aI42
aI34
aI27
aI20
aI28
aI53
aI8
aI43
aI44
aI6
aI5
aI45
aI50
aI47
aI24
aI0
aI56
aI7
aI11
aI33
aI58
aI29
aI21
aI38
aI14
aI16
aI12
aI37
aI19
aI17
aI40
aI36
aI3
aI48
aI39
aI41
aI49
aI31
aI15
aI9
aI32
aI26
aI52
aI46
aI25
aI55
aI1
aI57
aI54
aI22
aI13
aI51
aa(lp9
I31
aI8
aI9
aI21
aI10
aI51
aI4
aI7
aI19
aI26
aI16
aI33
aI53
aI52
aI29
aI15
aI27
aI0
aI44
aI50
aI37
aI55
aI38
aI32
aI17
aI24
aI57
aI13
aI49
aI45
aI2
aI14
aI36
aI11
aI42
aI39
aI56
aI47
aI41
aI30
aI46
aI1
aI12
aI28
aI22
aI18
aI20
aI58
aI34
aI25
aI6
aI54
aI23
aI35
aI48
aI5
aI40
aI3
aI43
aa(lp10
I53
aI7
aI27
aI17
aI42
aI36
aI11
aI24
aI1
aI35
aI32
aI12
aI3
aI10
aI51
aI29
aI6
aI0
aI34
aI49
aI22
aI50
aI41
aI23
aI38
aI46
aI31
aI55
aI44
aI40
aI4
aI16
aI56
aI9
aI57
aI47
aI13
aI39
aI54
aI19
aI2
aI58
aI43
aI14
aI26
aI5
aI21
aI18
aI45
aI52
aI30
aI15
aI33
aI48
aI28
aI37
aI25
aI20
aI8
aa(lp11
I3
aI1
aI18
aI32
aI47
aI51
aI9
aI40
aI31
aI24
aI34
aI28
aI15
aI21
aI26
aI25
aI19
aI12
aI14
aI38
aI30
aI16
aI56
aI23
aI10
aI33
aI49
aI13
aI7
aI46
aI48
aI53
aI44
aI6
aI0
aI20
aI36
aI29
aI4
aI8
aI17
aI39
aI43
aI5
aI22
aI42
aI2
aI35
aI57
aI27
aI52
aI54
aI45
aI41
aI11
aI50
aI58
aI55
aI37
aa(lp12
I45
aI37
aI48
aI20
aI0
aI50
aI6
aI11
aI42
aI1
aI12
aI51
aI44
aI19
aI57
aI3
aI2
aI58
aI23
aI24
aI10
aI55
aI13
aI5
aI4
aI16
aI7
aI27
aI41
aI40
aI21
aI33
aI8
aI46
aI22
aI56
aI18
aI32
aI17
aI35
aI26
aI39
aI28
aI14
aI34
aI53
aI9
aI30
aI49
aI31
aI38
aI43
aI47
aI52
aI54
aI25
aI15
aI29
aI36
aa(lp13
I43
aI20
aI28
aI4
aI33
aI35
aI29
aI18
aI49
aI47
aI42
aI23
aI56
aI37
aI17
aI25
aI16
aI30
aI38
aI53
aI39
aI19
aI58
aI50
aI57
aI0
aI6
aI52
aI48
aI15
aI32
aI22
aI24
aI11
aI46
aI44
aI40
aI10
aI14
aI31
aI2
aI26
aI1
aI45
aI9
aI13
aI36
aI27
aI8
aI55
aI12
aI21
aI7
aI3
aI5
aI34
aI54
aI41
aI51
aa(lp14
I45
aI3
aI0
aI10
aI48
aI40
aI53
aI11
aI2
aI6
aI52
aI9
aI34
aI54
aI28
aI56
aI27
aI23
aI30
aI36
aI29
aI8
aI15
aI4
aI51
aI21
aI44
aI31
aI24
aI33
aI32
aI41
aI37
aI42
aI55
aI7
aI43
aI13
aI17
aI1
aI22
aI50
aI20
aI19
aI12
aI49
aI25
aI35
aI39
aI5
aI47
aI46
aI38
aI26
aI18
aI16
aI58
aI57
aI14
aa(lp15
I53
aI41
aI35
aI9
aI28
aI30
aI37
aI57
aI46
aI42
aI44
aI7
aI33
aI48
aI25
aI21
aI16
aI47
aI52
aI38
aI15
aI27
aI1
aI39
aI23
aI31
aI5
aI29
aI12
aI49
aI34
aI43
aI2
aI32
aI11
aI20
aI14
aI24
aI0
aI56
aI17
aI58
aI54
aI22
aI45
aI26
aI50
aI18
aI19
aI8
aI10
aI55
aI51
aI6
aI4
aI40
aI13
aI3
aI36
aa(lp16
I2
aI49
aI55
aI29
aI22
aI11
aI35
aI18
aI30
aI23
aI45
aI17
aI13
aI50
aI48
aI40
aI7
aI57
aI39
aI6
aI47
aI38
aI25
aI51
aI41
aI44
aI8
aI56
aI46
aI19
aI3
aI0
aI58
aI34
aI37
aI1
aI26
aI54
aI16
aI14
aI4
aI28
aI15
aI52
aI9
aI53
aI31
aI5
aI21
aI33
aI42
aI43
aI27
aI36
aI24
aI12
aI20
aI32
aI10
aa(lp17
I8
aI13
aI19
aI38
aI10
aI14
aI39
aI52
aI57
aI58
aI53
aI16
aI41
aI50
aI1
aI35
aI48
aI25
aI46
aI45
aI7
aI11
aI43
aI31
aI55
aI18
aI0
aI56
aI2
aI49
aI40
aI3
aI6
aI26
aI9
aI12
aI51
aI4
aI29
aI36
aI33
aI42
aI34
aI21
aI5
aI44
aI24
aI32
aI37
aI28
aI27
aI20
aI30
aI23
aI54
aI17
aI47
aI22
aI15
aa(lp18
I4
aI48
aI30
aI35
aI12
aI32
aI39
aI34
aI25
aI14
aI52
aI5
aI55
aI6
aI3
aI11
aI53
aI45
aI49
aI15
aI42
aI54
aI40
aI0
aI36
aI13
aI28
aI1
aI50
aI56
aI26
aI24
aI7
aI27
aI37
aI2
aI19
aI38
aI10
aI47
aI44
aI57
aI23
aI16
aI20
aI21
aI9
aI31
aI22
aI46
aI58
aI18
aI29
aI43
aI8
aI51
aI41
aI33
aI17
aa(lp19
I55
aI48
aI41
aI28
aI11
aI9
aI52
aI6
aI14
aI1
aI47
aI45
aI25
aI40
aI42
aI19
aI44
aI56
aI31
aI51
aI35
aI10
aI39
aI16
aI57
aI18
aI20
aI15
aI13
aI36
aI17
aI49
aI34
aI32
aI29
aI53
aI38
aI21
aI30
aI23
aI8
aI24
aI7
aI58
aI3
aI50
aI26
aI27
aI5
aI12
aI37
aI43
aI4
aI22
aI46
aI33
aI0
aI2
aI54
aa(lp20
I16
aI12
aI9
aI48
aI4
aI27
aI51
aI58
aI35
aI36
aI44
aI40
aI46
aI15
aI6
aI53
aI25
aI2
aI50
aI14
aI26
aI10
aI43
aI42
aI55
aI39
aI37
aI31
aI1
aI8
aI52
aI33
aI7
aI23
aI56
aI57
aI38
aI29
aI32
aI47
aI21
aI30
aI0
aI49
aI34
aI54
aI20
aI28
aI24
aI22
aI17
aI41
aI5
aI11
aI18
aI45
aI13
aI3
aI19
aa.