(lp0
(lp1
I20
aI6
aI30
aI27
aI7
aI8
aI29
aI21
aI23
aI9
aI13
aI24
aI22
aI12
aI14
aI5
aI2
aI18
aI31
aI0
aI1
aI10
aI25
aI16
aI19
aI11
aI4
aI28
aI15
aI26
aI17
aI3
aa(lp2
I14
aI3
aI21
aI28
aI29
aI0
aI18
aI27
aI9
aI6
aI1
aI7
aI23
aI5
aI8
aI17
aI24
aI15
aI16
aI22
aI11
aI20
aI2
aI4
aI25
aI26
aI30
aI10
aI13
aI12
aI31
aI19
aa(lp3
I0
aI6
aI1
aI3
aI26
aI7
aI28
aI17
aI16
aI27
aI5
aI14
aI9
aI19
aI31
aI10
aI11
aI30
aI23
aI18
aI2
aI24
aI15
aI22
aI25
aI13
aI20
aI29
aI8
aI4
aI12
aI21
aa(lp4
I12
aI21
aI6
aI26
aI7
aI3
aI11
aI23
aI16
aI10
aI0
aI31
aI18
aI20
aI25
aI13
aI14
aI29
aI2
aI9
aI5
aI19
aI8
aI17
aI24
aI4
aI28
aI15
aI1
aI30
aI22
aI27
aa(lp5
I5
aI13
aI26
aI11
aI12
aI22
aI27
aI14
aI23
aI25
aI4
aI29
aI28
aI30
aI10
aI31
aI9
aI6
aI15
aI2
aI8
aI1
aI7
aI19
aI0
aI17
aI24
aI16
aI3
aI20
aI18
aI21
aa(lp6
I4
aI14
aI31
aI10
aI17
aI9
aI21
aI28
aI11
aI20
aI30
aI22
aI27
aI6
aI25
aI13
aI26
aI8
aI2
aI29
aI19
aI5
aI23
aI7
aI12
aI16
aI1
aI3
aI24
aI15
aI0
aI18
aa(lp7
I17
aI30
aI1
aI14
aI31
aI6
aI26
aI13
aI9
aI7
aI11
aI3
aI12
aI15
aI21
aI24
aI27
aI22
aI28
aI16
aI23
aI20
aI19
aI25
aI8
aI29
aI5
aI10
aI0
aI4
aI18
aI2
aa(lp8
I7
aI5
aI28
aI9
aI8
aI30
aI11
aI0
aI26
aI16
aI20
aI27
aI25
aI1
aI15
aI14
aI24
aI23
aI6
aI17
aI19
aI13
aI21
aI10
aI29
aI12
aI22
aI31
aI18
aI4
aI3
aI2
aa(lp9
I17
aI15
aI12
aI18
aI23
aI6
aI16
aI27
aI22
aI25
aI5
aI11
aI24
aI9
aI8
aI0
aI4
aI20
aI28
aI19
aI26
aI10
aI2
aI29
aI7
aI1
aI14
aI31
aI30
aI21
aI3
aI13
aa(lp10
I24
aI11
aI12
aI19
aI25
aI8
aI18
aI26
aI29
aI27
aI2
aI7
aI22
aI9
aI1
aI14
aI17
aI31
aI21
aI20
aI15
aI16
aI5
aI10
aI3
aI28
aI30
aI6
aI4
aI23
aI13
aI0
aa(lp11
I15
aI13
aI18
aI3
aI14
aI25
aI19
aI2
aI6
aI7
aI27
aI0
aI8
aI10
aI22
aI21
aI9
aI30
aI16
aI31
aI23
aI11
aI12
aI1
aI29
aI24
aI28
aI20
aI17
aI26
aI4
aI5
aa(lp12
I17
aI12
aI21
aI8
aI26
aI3
aI13
aI18
aI20
aI31
aI1
aI14
aI22
aI5
aI30
aI10
aI25
aI6
aI29
aI7
aI16
aI28
aI2
aI0
aI27
aI24
aI23
aI4
aI15
aI11
aI19
aI9
aa(lp13
I24
aI16
aI20
aI28
aI29
aI10
aI27
aI21
aI14
aI9
aI26
aI18
aI1
aI6
aI13
aI5
aI0
aI12
aI19
aI31
aI22
aI23
aI4
aI30
aI11
aI2
aI7
aI8
aI15
aI3
aI25
aI17
aa(lp14
I20
aI27
aI25
aI18
aI13
aI14
aI1
aI29
aI0
aI9
aI19
aI12
aI17
aI6
aI15
aI28
aI8
aI5
aI3
aI31
aI22
aI4
aI23
aI30
aI2
aI10
aI24
aI26
aI21
aI7
aI11
aI16
aa(lp15
I8
aI13
aI2
aI30
aI4
aI17
aI25
aI27
aI31
aI22
aI26
aI9
aI6
aI24
aI7
aI0
aI16
aI21
aI5
aI14
aI28
aI19
aI20
aI23
aI10
aI11
aI3
aI29
aI18
aI12
aI15
aI1
aa(lp16
I1
aI12
aI22
aI9
aI15
aI23
aI8
aI30
aI5
aI6
aI20
aI28
aI17
aI7
aI26
aI24
aI18
aI31
aI14
aI2
aI10
aI11
aI19
aI16
aI21
aI27
aI3
aI25
aI29
aI13
aI4
aI0
aa(lp17
I9
aI0
aI30
aI13
aI12
aI10
aI7
aI8
aI23
aI1
aI14
aI11
aI15
aI28
aI16
aI25
aI5
aI26
aI17
aI29
aI18
aI4
aI2
aI6
aI3
aI20
aI21
aI24
aI31
aI22
aI27
aI19
aa(lp18
I5
aI1
aI15
aI24
aI17
aI29
aI4
aI3
aI30
aI2
aI23
aI8
aI27
aI12
aI10
aI19
aI0
aI25
aI26
aI11
aI20
aI6
aI31
aI13
aI7
aI28
aI21
aI18
aI22
aI16
aI9
aI14
aa(lp19
I3
aI11
aI24
aI9
aI16
aI2
aI29
aI30
aI10
aI19
aI14
aI26
aI28
aI1
aI31
aI25
aI17
aI22
aI8
aI0
aI21
aI5
aI18
aI20
aI12
aI27
aI23
aI7
aI6
aI15
aI4
aI13
aa(lp20
I29
aI10
aI11
aI9
aI4
aI15
aI1
aI18
aI0
aI27
aI21
aI24
aI8
aI5
aI16
aI3
aI6
aI12
aI13
aI7
aI20
aI22
aI30
aI28
aI31
aI2
aI23
aI17
aI25
aI19
aI14
aI26
aa.