(lp0
(lp1
I57
aI92
aI134
aI55
aI74
aI129
aI20
aI153
aI46
aI60
aI68
aI30
aI84
aI112
aI97
aI6
aI61
aI7
aI136
aI101
aI32
aI53
aI146
aI36
aI116
aI105
aI109
aI67
aI4
aI121
aI62
aI59
aI95
aI87
aI83
aI80
aI128
aI31
aI118
aI98
aI144
aI120
aI75
aI77
aI113
aI135
aI49
aI47
aI106
aI152
aI40
aI56
aI51
aI63
aI104
aI133
aI143
aI3
aI103
aI102
aI37
aI88
aI43
aI132
aI0
aI139
aI14
aI130
aI5
aI28
aI22
aI138
aI44
aI137
aI156
aI71
aI1
aI29
aI122
aI158
aI17
aI54
aI110
aI34
aI52
aI100
aI147
aI154
aI161
aI91
aI39
aI159
aI108
aI38
aI25
aI12
aI115
aI33
aI141
aI111
aI85
aI58
aI42
aI90
aI89
aI78
aI124
aI8
aI149
aI24
aI82
aI142
aI76
aI2
aI151
aI150
aI48
aI117
aI94
aI96
aI9
aI27
aI16
aI41
aI160
aI21
aI86
aI123
aI127
aI145
aI19
aI79
aI70
aI140
aI155
aI11
aI69
aI125
aI99
aI73
aI50
aI119
aI126
aI157
aI64
aI35
aI72
aI23
aI107
aI65
aI66
aI131
aI93
aI81
aI13
aI114
aI18
aI148
aI26
aI45
aI15
aI10
aa(lp2
I130
aI32
aI106
aI26
aI55
aI102
aI45
aI111
aI105
aI121
aI115
aI124
aI62
aI160
aI158
aI51
aI148
aI61
aI39
aI44
aI60
aI154
aI54
aI2
aI89
aI23
aI151
aI71
aI120
aI77
aI16
aI98
aI122
aI85
aI3
aI81
aI100
aI131
aI66
aI74
aI109
aI24
aI92
aI79
aI110
aI42
aI57
aI145
aI41
aI157
aI123
aI84
aI18
aI12
aI103
aI14
aI28
aI147
aI8
aI46
aI101
aI50
aI144
aI43
aI48
aI99
aI139
aI65
aI76
aI49
aI91
aI93
aI138
aI69
aI17
aI96
aI0
aI137
aI38
aI64
aI87
aI63
aI80
aI117
aI35
aI113
aI114
aI83
aI107
aI104
aI132
aI11
aI118
aI133
aI126
aI143
aI134
aI128
aI68
aI31
aI72
aI34
aI21
aI153
aI95
aI56
aI47
aI25
aI155
aI88
aI70
aI33
aI53
aI29
aI112
aI108
aI141
aI127
aI59
aI15
aI30
aI52
aI86
aI119
aI37
aI20
aI67
aI78
aI140
aI4
aI19
aI7
aI146
aI82
aI58
aI5
aI1
aI13
aI94
aI40
aI125
aI22
aI150
aI149
aI156
aI10
aI116
aI136
aI129
aI90
aI152
aI75
aI97
aI142
aI27
aI73
aI161
aI36
aI159
aI135
aI9
aI6
aa(lp3
I158
aI64
aI33
aI51
aI161
aI106
aI128
aI152
aI3
aI44
aI58
aI80
aI102
aI49
aI142
aI2
aI39
aI63
aI153
aI86
aI42
aI36
aI96
aI157
aI133
aI45
aI95
aI120
aI119
aI154
aI74
aI160
aI144
aI70
aI155
aI25
aI21
aI59
aI24
aI30
aI98
aI94
aI18
aI73
aI27
aI66
aI22
aI141
aI139
aI31
aI114
aI146
aI29
aI91
aI5
aI107
aI8
aI130
aI43
aI93
aI135
aI101
aI89
aI67
aI78
aI35
aI57
aI143
aI124
aI117
aI103
aI53
aI62
aI82
aI75
aI28
aI17
aI56
aI131
aI136
aI10
aI149
aI118
aI127
aI148
aI23
aI147
aI1
aI84
aI83
aI104
aI123
aI37
aI32
aI65
aI134
aI122
aI52
aI110
aI20
aI69
aI55
aI71
aI34
aI92
aI99
aI88
aI132
aI60
aI47
aI38
aI54
aI61
aI111
aI12
aI85
aI113
aI109
aI7
aI115
aI14
aI137
aI145
aI140
aI19
aI46
aI4
aI138
aI126
aI90
aI11
aI15
aI16
aI48
aI100
aI6
aI40
aI150
aI156
aI116
aI129
aI151
aI13
aI77
aI87
aI81
aI0
aI108
aI97
aI112
aI159
aI125
aI26
aI79
aI41
aI76
aI68
aI72
aI9
aI105
aI50
aI121
aa(lp4
I18
aI67
aI23
aI57
aI125
aI22
aI3
aI87
aI118
aI103
aI66
aI145
aI142
aI90
aI16
aI130
aI75
aI54
aI137
aI100
aI73
aI12
aI77
aI136
aI95
aI155
aI38
aI156
aI72
aI83
aI61
aI59
aI74
aI20
aI31
aI76
aI150
aI89
aI8
aI85
aI78
aI24
aI98
aI56
aI161
aI19
aI11
aI144
aI157
aI134
aI48
aI97
aI86
aI40
aI41
aI141
aI21
aI4
aI159
aI111
aI55
aI148
aI47
aI113
aI91
aI151
aI139
aI52
aI135
aI71
aI58
aI104
aI26
aI160
aI42
aI1
aI107
aI69
aI49
aI115
aI44
aI5
aI152
aI93
aI46
aI25
aI14
aI33
aI6
aI68
aI92
aI126
aI32
aI120
aI36
aI39
aI80
aI122
aI51
aI133
aI9
aI62
aI29
aI94
aI138
aI108
aI106
aI109
aI114
aI13
aI15
aI154
aI128
aI119
aI65
aI140
aI96
aI121
aI147
aI127
aI79
aI116
aI132
aI82
aI153
aI143
aI43
aI0
aI88
aI110
aI105
aI112
aI2
aI30
aI17
aI84
aI53
aI117
aI60
aI102
aI101
aI124
aI35
aI158
aI34
aI146
aI123
aI131
aI28
aI99
aI50
aI7
aI70
aI64
aI27
aI129
aI10
aI81
aI37
aI149
aI63
aI45
aa(lp5
I69
aI36
aI59
aI95
aI42
aI99
aI60
aI96
aI91
aI66
aI84
aI10
aI140
aI78
aI136
aI128
aI130
aI64
aI110
aI103
aI55
aI111
aI93
aI97
aI20
aI155
aI145
aI48
aI109
aI119
aI152
aI24
aI25
aI117
aI108
aI71
aI29
aI61
aI51
aI112
aI101
aI6
aI22
aI114
aI133
aI76
aI70
aI67
aI125
aI159
aI150
aI3
aI137
aI160
aI31
aI27
aI13
aI107
aI148
aI35
aI81
aI16
aI90
aI157
aI134
aI50
aI28
aI39
aI73
aI7
aI127
aI47
aI102
aI89
aI43
aI75
aI72
aI149
aI120
aI92
aI2
aI124
aI77
aI116
aI57
aI82
aI40
aI115
aI68
aI98
aI17
aI33
aI23
aI158
aI113
aI146
aI41
aI65
aI34
aI143
aI74
aI30
aI0
aI85
aI63
aI141
aI9
aI138
aI4
aI131
aI83
aI106
aI44
aI62
aI104
aI37
aI26
aI19
aI86
aI38
aI121
aI88
aI144
aI142
aI1
aI161
aI46
aI11
aI18
aI105
aI132
aI8
aI154
aI156
aI53
aI151
aI52
aI122
aI32
aI58
aI129
aI87
aI94
aI139
aI135
aI56
aI118
aI147
aI49
aI12
aI123
aI153
aI14
aI21
aI100
aI5
aI45
aI80
aI79
aI15
aI126
aI54
aa(lp6
I88
aI62
aI2
aI71
aI21
aI3
aI59
aI82
aI142
aI85
aI121
aI49
aI91
aI108
aI90
aI10
aI141
aI58
aI119
aI17
aI113
aI115
aI145
aI36
aI161
aI54
aI63
aI124
aI5
aI7
aI40
aI26
aI100
aI92
aI55
aI78
aI148
aI11
aI14
aI126
aI61
aI89
aI97
aI129
aI72
aI154
aI98
aI76
aI125
aI118
aI30
aI157
aI60
aI8
aI23
aI146
aI131
aI24
aI102
aI0
aI12
aI135
aI25
aI69
aI87
aI67
aI103
aI120
aI38
aI29
aI130
aI13
aI31
aI105
aI99
aI83
aI80
aI52
aI19
aI15
aI44
aI28
aI65
aI66
aI106
aI32
aI51
aI110
aI158
aI84
aI104
aI152
aI1
aI122
aI127
aI6
aI39
aI139
aI155
aI133
aI57
aI116
aI27
aI37
aI34
aI93
aI144
aI111
aI134
aI112
aI101
aI143
aI140
aI68
aI53
aI77
aI156
aI79
aI50
aI56
aI64
aI86
aI20
aI107
aI73
aI123
aI96
aI136
aI151
aI114
aI41
aI75
aI33
aI48
aI70
aI109
aI159
aI94
aI43
aI74
aI16
aI46
aI160
aI9
aI4
aI81
aI45
aI137
aI149
aI42
aI18
aI47
aI117
aI150
aI138
aI22
aI95
aI132
aI128
aI147
aI153
aI35
aa(lp7
I55
aI66
aI20
aI0
aI49
aI98
aI132
aI84
aI95
aI14
aI37
aI127
aI97
aI155
aI34
aI9
aI7
aI134
aI53
aI36
aI12
aI80
aI93
aI89
aI71
aI61
aI35
aI101
aI26
aI64
aI115
aI65
aI121
aI57
aI46
aI120
aI105
aI73
aI106
aI77
aI10
aI62
aI48
aI112
aI99
aI109
aI141
aI30
aI88
aI32
aI156
aI96
aI130
aI45
aI85
aI87
aI153
aI138
aI152
aI75
aI63
aI68
aI140
aI160
aI117
aI56
aI158
aI21
aI24
aI150
aI94
aI29
aI15
aI90
aI86
aI72
aI122
aI145
aI42
aI116
aI1
aI143
aI76
aI47
aI83
aI135
aI107
aI147
aI151
aI157
aI70
aI43
aI38
aI79
aI126
aI131
aI114
aI103
aI154
aI27
aI144
aI125
aI59
aI18
aI159
aI110
aI149
aI123
aI54
aI118
aI119
aI146
aI67
aI13
aI31
aI128
aI19
aI4
aI11
aI161
aI100
aI91
aI104
aI28
aI16
aI22
aI52
aI44
aI5
aI8
aI69
aI50
aI133
aI137
aI102
aI78
aI3
aI136
aI139
aI142
aI40
aI148
aI41
aI60
aI58
aI81
aI23
aI74
aI6
aI17
aI39
aI92
aI2
aI129
aI82
aI113
aI25
aI111
aI51
aI33
aI124
aI108
aa(lp8
I36
aI158
aI109
aI50
aI121
aI67
aI107
aI99
aI63
aI3
aI93
aI65
aI56
aI29
aI152
aI112
aI130
aI47
aI82
aI28
aI156
aI98
aI39
aI147
aI86
aI8
aI117
aI72
aI24
aI68
aI90
aI25
aI122
aI81
aI157
aI143
aI126
aI159
aI84
aI26
aI87
aI31
aI71
aI142
aI42
aI4
aI76
aI94
aI139
aI88
aI0
aI118
aI85
aI32
aI101
aI27
aI144
aI115
aI113
aI110
aI10
aI52
aI141
aI38
aI7
aI89
aI95
aI61
aI104
aI66
aI74
aI148
aI125
aI140
aI23
aI46
aI41
aI21
aI135
aI16
aI146
aI55
aI51
aI60
aI45
aI40
aI114
aI77
aI35
aI161
aI131
aI124
aI119
aI132
aI22
aI153
aI127
aI30
aI100
aI149
aI105
aI96
aI48
aI1
aI53
aI97
aI14
aI92
aI17
aI137
aI79
aI138
aI20
aI150
aI13
aI54
aI80
aI44
aI106
aI129
aI49
aI37
aI5
aI34
aI19
aI58
aI160
aI145
aI12
aI91
aI116
aI18
aI120
aI64
aI136
aI57
aI123
aI43
aI128
aI83
aI78
aI133
aI154
aI33
aI70
aI62
aI111
aI6
aI73
aI103
aI69
aI102
aI75
aI134
aI11
aI59
aI9
aI2
aI15
aI108
aI155
aI151
aa(lp9
I15
aI18
aI59
aI44
aI14
aI103
aI112
aI143
aI125
aI12
aI140
aI42
aI122
aI110
aI161
aI83
aI159
aI13
aI37
aI144
aI65
aI79
aI4
aI87
aI57
aI141
aI31
aI69
aI129
aI127
aI0
aI5
aI27
aI100
aI145
aI11
aI22
aI35
aI36
aI16
aI93
aI24
aI41
aI155
aI97
aI60
aI134
aI148
aI68
aI82
aI67
aI160
aI51
aI138
aI135
aI99
aI20
aI50
aI40
aI84
aI38
aI2
aI76
aI123
aI80
aI90
aI142
aI157
aI45
aI89
aI10
aI104
aI33
aI114
aI101
aI152
aI81
aI7
aI105
aI153
aI96
aI70
aI147
aI28
aI108
aI136
aI126
aI6
aI3
aI75
aI72
aI71
aI92
aI55
aI85
aI9
aI130
aI62
aI49
aI117
aI8
aI63
aI26
aI39
aI17
aI139
aI137
aI116
aI19
aI158
aI48
aI146
aI47
aI133
aI149
aI113
aI88
aI53
aI120
aI115
aI150
aI46
aI30
aI124
aI151
aI119
aI91
aI118
aI132
aI111
aI156
aI54
aI58
aI34
aI131
aI95
aI107
aI23
aI73
aI128
aI25
aI109
aI56
aI43
aI52
aI74
aI86
aI66
aI102
aI78
aI21
aI64
aI1
aI32
aI98
aI77
aI29
aI61
aI121
aI106
aI154
aI94
aa(lp10
I140
aI25
aI2
aI59
aI127
aI160
aI150
aI110
aI92
aI87
aI63
aI37
aI139
aI119
aI30
aI46
aI104
aI7
aI1
aI51
aI117
aI28
aI42
aI74
aI76
aI15
aI11
aI77
aI91
aI136
aI123
aI4
aI29
aI109
aI100
aI157
aI57
aI12
aI54
aI24
aI122
aI19
aI26
aI5
aI38
aI85
aI118
aI149
aI102
aI90
aI146
aI124
aI18
aI112
aI121
aI60
aI40
aI86
aI33
aI131
aI143
aI31
aI120
aI130
aI65
aI79
aI75
aI108
aI41
aI71
aI3
aI32
aI129
aI55
aI147
aI39
aI9
aI0
aI141
aI34
aI48
aI144
aI56
aI161
aI111
aI114
aI64
aI50
aI107
aI44
aI36
aI135
aI8
aI158
aI78
aI154
aI138
aI22
aI53
aI49
aI125
aI83
aI145
aI97
aI68
aI105
aI80
aI89
aI115
aI101
aI134
aI20
aI81
aI113
aI10
aI16
aI153
aI72
aI14
aI62
aI23
aI99
aI58
aI142
aI152
aI82
aI132
aI116
aI155
aI27
aI21
aI70
aI66
aI45
aI6
aI128
aI103
aI88
aI13
aI73
aI151
aI148
aI137
aI98
aI159
aI47
aI43
aI156
aI94
aI69
aI126
aI95
aI52
aI35
aI84
aI17
aI96
aI106
aI61
aI133
aI67
aI93
aa(lp11
I105
aI153
aI36
aI161
aI154
aI42
aI132
aI77
aI113
aI19
aI128
aI136
aI129
aI148
aI86
aI65
aI114
aI109
aI159
aI160
aI70
aI135
aI97
aI81
aI45
aI1
aI74
aI43
aI47
aI64
aI88
aI92
aI91
aI38
aI2
aI51
aI76
aI21
aI14
aI106
aI6
aI138
aI108
aI53
aI84
aI73
aI101
aI17
aI131
aI50
aI133
aI158
aI18
aI102
aI75
aI24
aI59
aI90
aI83
aI48
aI5
aI23
aI93
aI10
aI41
aI149
aI123
aI151
aI116
aI155
aI140
aI121
aI99
aI55
aI8
aI137
aI119
aI57
aI134
aI71
aI62
aI68
aI110
aI115
aI157
aI142
aI31
aI112
aI98
aI120
aI16
aI37
aI145
aI54
aI20
aI35
aI95
aI0
aI80
aI22
aI13
aI60
aI46
aI63
aI58
aI103
aI9
aI25
aI130
aI66
aI96
aI125
aI7
aI11
aI33
aI124
aI144
aI39
aI72
aI30
aI28
aI139
aI127
aI107
aI52
aI27
aI34
aI61
aI89
aI4
aI111
aI49
aI69
aI87
aI156
aI32
aI26
aI118
aI3
aI44
aI15
aI12
aI79
aI126
aI104
aI78
aI150
aI40
aI141
aI82
aI152
aI146
aI94
aI29
aI56
aI100
aI147
aI122
aI85
aI143
aI67
aI117
aa(lp12
I102
aI154
aI13
aI88
aI79
aI139
aI56
aI141
aI66
aI75
aI92
aI21
aI45
aI28
aI16
aI159
aI83
aI135
aI43
aI46
aI82
aI57
aI126
aI51
aI119
aI108
aI69
aI22
aI10
aI72
aI73
aI29
aI61
aI77
aI107
aI161
aI5
aI129
aI100
aI147
aI49
aI124
aI145
aI8
aI127
aI25
aI47
aI116
aI40
aI149
aI18
aI101
aI109
aI63
aI39
aI9
aI112
aI105
aI140
aI125
aI137
aI70
aI30
aI121
aI33
aI41
aI23
aI132
aI3
aI67
aI42
aI76
aI14
aI150
aI71
aI89
aI156
aI85
aI53
aI96
aI142
aI155
aI95
aI65
aI91
aI97
aI93
aI19
aI52
aI50
aI78
aI58
aI118
aI24
aI36
aI144
aI2
aI48
aI55
aI113
aI99
aI111
aI74
aI153
aI62
aI86
aI31
aI84
aI12
aI38
aI110
aI128
aI15
aI136
aI68
aI104
aI157
aI59
aI44
aI123
aI130
aI158
aI114
aI143
aI94
aI131
aI115
aI103
aI7
aI17
aI80
aI26
aI54
aI27
aI11
aI6
aI20
aI1
aI81
aI148
aI60
aI122
aI151
aI4
aI98
aI32
aI0
aI37
aI34
aI160
aI138
aI35
aI87
aI146
aI64
aI133
aI134
aI120
aI90
aI106
aI152
aI117
aa(lp13
I33
aI138
aI116
aI105
aI17
aI106
aI160
aI115
aI44
aI133
aI152
aI49
aI72
aI52
aI13
aI79
aI136
aI149
aI83
aI113
aI14
aI37
aI38
aI41
aI85
aI23
aI58
aI67
aI6
aI129
aI102
aI31
aI4
aI118
aI57
aI95
aI158
aI88
aI109
aI114
aI68
aI69
aI154
aI144
aI28
aI132
aI159
aI101
aI94
aI96
aI74
aI121
aI3
aI93
aI59
aI46
aI42
aI61
aI141
aI140
aI122
aI50
aI86
aI145
aI157
aI135
aI62
aI161
aI34
aI39
aI150
aI143
aI155
aI98
aI43
aI70
aI84
aI32
aI29
aI35
aI99
aI111
aI54
aI131
aI100
aI124
aI45
aI48
aI65
aI91
aI56
aI63
aI134
aI26
aI137
aI128
aI10
aI30
aI22
aI103
aI80
aI92
aI55
aI24
aI66
aI40
aI117
aI51
aI89
aI75
aI76
aI5
aI82
aI77
aI130
aI36
aI9
aI47
aI2
aI7
aI110
aI27
aI119
aI108
aI12
aI25
aI112
aI19
aI147
aI87
aI107
aI8
aI20
aI151
aI156
aI104
aI21
aI64
aI90
aI125
aI60
aI146
aI139
aI126
aI120
aI73
aI127
aI53
aI97
aI148
aI16
aI18
aI78
aI15
aI11
aI71
aI81
aI0
aI123
aI1
aI153
aI142
aa(lp14
I130
aI62
aI103
aI107
aI138
aI158
aI109
aI49
aI17
aI137
aI76
aI88
aI50
aI142
aI52
aI13
aI40
aI127
aI154
aI38
aI123
aI74
aI83
aI113
aI65
aI6
aI94
aI102
aI75
aI59
aI117
aI104
aI72
aI9
aI85
aI33
aI0
aI36
aI3
aI97
aI108
aI78
aI11
aI120
aI124
aI100
aI37
aI99
aI80
aI44
aI46
aI96
aI58
aI110
aI139
aI146
aI63
aI125
aI55
aI47
aI70
aI71
aI20
aI147
aI149
aI134
aI140
aI87
aI90
aI56
aI105
aI106
aI57
aI66
aI60
aI128
aI1
aI143
aI116
aI95
aI35
aI42
aI26
aI67
aI2
aI115
aI51
aI114
aI29
aI118
aI89
aI8
aI68
aI157
aI156
aI82
aI28
aI48
aI7
aI119
aI136
aI79
aI45
aI160
aI18
aI77
aI14
aI15
aI53
aI121
aI5
aI129
aI122
aI131
aI16
aI92
aI132
aI159
aI155
aI61
aI27
aI151
aI43
aI19
aI141
aI24
aI34
aI10
aI54
aI32
aI84
aI12
aI135
aI30
aI133
aI101
aI23
aI148
aI86
aI111
aI81
aI145
aI91
aI25
aI152
aI22
aI31
aI21
aI98
aI153
aI64
aI144
aI4
aI69
aI161
aI93
aI150
aI126
aI39
aI41
aI112
aI73
aa(lp15
I146
aI133
aI78
aI137
aI149
aI148
aI154
aI49
aI111
aI29
aI42
aI113
aI41
aI106
aI150
aI12
aI24
aI88
aI160
aI70
aI71
aI126
aI109
aI52
aI13
aI1
aI114
aI85
aI96
aI3
aI44
aI124
aI141
aI138
aI9
aI30
aI112
aI153
aI105
aI94
aI72
aI19
aI158
aI83
aI62
aI67
aI157
aI144
aI25
aI2
aI31
aI46
aI6
aI135
aI100
aI103
aI15
aI73
aI53
aI99
aI27
aI17
aI0
aI79
aI156
aI58
aI69
aI104
aI143
aI91
aI145
aI37
aI121
aI131
aI8
aI159
aI75
aI155
aI125
aI130
aI34
aI20
aI139
aI7
aI14
aI47
aI57
aI89
aI76
aI56
aI59
aI93
aI117
aI45
aI48
aI80
aI10
aI82
aI128
aI120
aI35
aI116
aI33
aI115
aI136
aI28
aI4
aI43
aI63
aI68
aI51
aI127
aI16
aI110
aI77
aI39
aI36
aI23
aI21
aI55
aI74
aI92
aI5
aI119
aI134
aI86
aI50
aI81
aI98
aI32
aI22
aI129
aI97
aI60
aI147
aI102
aI64
aI65
aI132
aI26
aI61
aI152
aI122
aI90
aI66
aI161
aI118
aI123
aI40
aI87
aI11
aI38
aI54
aI101
aI108
aI18
aI95
aI107
aI151
aI84
aI142
aI140
aa(lp16
I69
aI145
aI104
aI26
aI114
aI79
aI52
aI22
aI73
aI154
aI95
aI121
aI33
aI38
aI42
aI110
aI136
aI115
aI65
aI63
aI160
aI37
aI159
aI105
aI75
aI32
aI138
aI106
aI118
aI152
aI62
aI3
aI82
aI74
aI21
aI135
aI53
aI124
aI77
aI103
aI92
aI94
aI46
aI132
aI148
aI56
aI47
aI70
aI91
aI29
aI99
aI15
aI97
aI125
aI157
aI58
aI150
aI143
aI83
aI30
aI40
aI144
aI140
aI23
aI7
aI67
aI57
aI41
aI120
aI4
aI123
aI86
aI130
aI59
aI25
aI39
aI96
aI84
aI116
aI71
aI108
aI6
aI102
aI0
aI139
aI122
aI85
aI133
aI90
aI13
aI134
aI111
aI45
aI66
aI43
aI161
aI64
aI137
aI8
aI155
aI127
aI50
aI149
aI129
aI11
aI88
aI142
aI80
aI61
aI49
aI156
aI87
aI117
aI48
aI98
aI126
aI93
aI55
aI113
aI107
aI2
aI78
aI109
aI27
aI16
aI158
aI51
aI12
aI5
aI141
aI81
aI89
aI151
aI119
aI28
aI31
aI20
aI44
aI100
aI72
aI131
aI76
aI35
aI9
aI128
aI36
aI147
aI68
aI18
aI146
aI10
aI153
aI19
aI14
aI17
aI54
aI101
aI34
aI60
aI1
aI24
aI112
aa(lp17
I30
aI17
aI35
aI109
aI159
aI40
aI49
aI131
aI96
aI89
aI13
aI115
aI103
aI21
aI27
aI43
aI133
aI152
aI33
aI84
aI81
aI12
aI138
aI82
aI19
aI79
aI61
aI45
aI112
aI7
aI157
aI98
aI132
aI29
aI108
aI116
aI63
aI44
aI1
aI137
aI97
aI94
aI36
aI160
aI111
aI69
aI22
aI110
aI2
aI128
aI93
aI46
aI9
aI92
aI71
aI123
aI53
aI66
aI140
aI136
aI142
aI161
aI42
aI10
aI5
aI8
aI3
aI28
aI87
aI156
aI55
aI101
aI107
aI147
aI68
aI106
aI135
aI155
aI146
aI104
aI149
aI158
aI77
aI70
aI153
aI4
aI47
aI60
aI95
aI50
aI139
aI143
aI56
aI76
aI31
aI125
aI141
aI78
aI113
aI24
aI73
aI145
aI127
aI129
aI20
aI119
aI144
aI74
aI52
aI80
aI154
aI118
aI126
aI105
aI122
aI0
aI38
aI90
aI15
aI34
aI150
aI114
aI26
aI134
aI102
aI54
aI16
aI88
aI75
aI117
aI72
aI57
aI148
aI59
aI86
aI83
aI37
aI91
aI14
aI11
aI48
aI39
aI120
aI100
aI62
aI51
aI32
aI23
aI124
aI18
aI25
aI130
aI151
aI64
aI99
aI41
aI121
aI58
aI85
aI65
aI67
aI6
aa(lp18
I125
aI65
aI139
aI53
aI72
aI113
aI51
aI85
aI0
aI156
aI155
aI22
aI6
aI36
aI146
aI29
aI91
aI54
aI60
aI62
aI100
aI83
aI142
aI56
aI64
aI147
aI134
aI159
aI132
aI153
aI37
aI47
aI109
aI2
aI114
aI127
aI16
aI135
aI75
aI108
aI158
aI161
aI92
aI148
aI96
aI94
aI52
aI128
aI138
aI95
aI34
aI119
aI145
aI48
aI81
aI19
aI50
aI57
aI152
aI45
aI77
aI126
aI24
aI112
aI122
aI55
aI103
aI101
aI38
aI5
aI88
aI104
aI121
aI15
aI17
aI129
aI21
aI120
aI49
aI67
aI136
aI102
aI86
aI107
aI70
aI105
aI98
aI99
aI151
aI150
aI76
aI110
aI20
aI3
aI33
aI87
aI40
aI43
aI1
aI28
aI90
aI23
aI11
aI42
aI31
aI9
aI154
aI68
aI116
aI8
aI133
aI78
aI39
aI137
aI74
aI130
aI7
aI30
aI93
aI118
aI58
aI46
aI4
aI79
aI35
aI44
aI66
aI149
aI143
aI106
aI131
aI61
aI63
aI10
aI80
aI32
aI27
aI25
aI89
aI97
aI13
aI111
aI123
aI141
aI84
aI26
aI124
aI14
aI160
aI69
aI71
aI12
aI18
aI157
aI73
aI140
aI41
aI82
aI59
aI144
aI115
aI117
aa(lp19
I86
aI133
aI65
aI32
aI61
aI138
aI66
aI117
aI92
aI6
aI11
aI69
aI128
aI7
aI60
aI15
aI122
aI39
aI145
aI101
aI80
aI155
aI129
aI17
aI123
aI125
aI84
aI135
aI5
aI72
aI46
aI26
aI109
aI50
aI116
aI120
aI74
aI75
aI146
aI4
aI28
aI136
aI12
aI22
aI48
aI149
aI114
aI100
aI57
aI77
aI89
aI64
aI112
aI56
aI83
aI0
aI93
aI102
aI96
aI158
aI30
aI139
aI134
aI67
aI151
aI150
aI147
aI13
aI107
aI106
aI8
aI160
aI144
aI40
aI27
aI156
aI121
aI73
aI95
aI94
aI87
aI59
aI127
aI82
aI3
aI78
aI71
aI132
aI54
aI68
aI18
aI126
aI36
aI52
aI63
aI44
aI152
aI81
aI157
aI33
aI38
aI62
aI110
aI137
aI113
aI111
aI159
aI103
aI161
aI19
aI16
aI51
aI41
aI143
aI115
aI91
aI105
aI104
aI141
aI10
aI76
aI124
aI49
aI20
aI14
aI55
aI29
aI88
aI43
aI70
aI21
aI108
aI154
aI34
aI119
aI9
aI53
aI23
aI1
aI118
aI99
aI47
aI148
aI37
aI90
aI45
aI2
aI79
aI24
aI31
aI98
aI42
aI97
aI25
aI142
aI140
aI85
aI153
aI35
aI131
aI130
aI58
aa(lp20
I103
aI9
aI145
aI66
aI127
aI110
aI153
aI117
aI130
aI132
aI140
aI6
aI55
aI36
aI91
aI13
aI111
aI4
aI104
aI34
aI98
aI46
aI59
aI137
aI38
aI79
aI5
aI39
aI43
aI146
aI2
aI88
aI17
aI106
aI108
aI27
aI119
aI143
aI156
aI56
aI113
aI138
aI94
aI60
aI99
aI54
aI58
aI95
aI37
aI157
aI75
aI51
aI77
aI149
aI33
aI69
aI114
aI45
aI16
aI14
aI85
aI28
aI92
aI83
aI131
aI65
aI134
aI142
aI122
aI86
aI20
aI42
aI101
aI23
aI70
aI41
aI15
aI72
aI121
aI57
aI25
aI61
aI129
aI31
aI109
aI96
aI120
aI112
aI76
aI11
aI67
aI151
aI124
aI21
aI1
aI7
aI93
aI64
aI102
aI160
aI50
aI62
aI19
aI84
aI8
aI63
aI78
aI0
aI97
aI136
aI49
aI71
aI48
aI126
aI87
aI89
aI10
aI139
aI128
aI35
aI123
aI147
aI44
aI26
aI150
aI3
aI116
aI82
aI30
aI22
aI152
aI73
aI53
aI158
aI154
aI118
aI141
aI18
aI68
aI74
aI24
aI107
aI133
aI144
aI80
aI52
aI40
aI155
aI12
aI125
aI90
aI47
aI135
aI32
aI29
aI105
aI115
aI161
aI148
aI100
aI81
aI159
aa.