(lp0
(lp1
I34
aI26
aI30
aI17
aI7
aI23
aI25
aI9
aI2
aI29
aI20
aI18
aI15
aI32
aI24
aI1
aI16
aI21
aI27
aI11
aI0
aI12
aI8
aI19
aI31
aI3
aI6
aI5
aI33
aI14
aI13
aI22
aI28
aI10
aI4
aa(lp2
I16
aI12
aI26
aI31
aI15
aI30
aI2
aI34
aI22
aI20
aI24
aI5
aI10
aI9
aI4
aI21
aI6
aI19
aI23
aI17
aI28
aI33
aI25
aI32
aI8
aI3
aI13
aI0
aI27
aI14
aI1
aI11
aI7
aI18
aI29
aa(lp3
I18
aI11
aI31
aI4
aI30
aI19
aI24
aI16
aI12
aI1
aI3
aI10
aI34
aI9
aI26
aI33
aI27
aI2
aI32
aI14
aI29
aI8
aI13
aI25
aI15
aI6
aI7
aI20
aI23
aI5
aI22
aI21
aI0
aI28
aI17
aa(lp4
I11
aI28
aI3
aI22
aI4
aI0
aI7
aI20
aI25
aI1
aI17
aI21
aI29
aI24
aI8
aI30
aI2
aI34
aI5
aI16
aI31
aI18
aI10
aI32
aI19
aI15
aI33
aI14
aI27
aI12
aI13
aI26
aI6
aI23
aI9
aa(lp5
I25
aI28
aI19
aI20
aI33
aI32
aI24
aI23
aI10
aI21
aI15
aI27
aI6
aI18
aI31
aI1
aI0
aI17
aI4
aI11
aI12
aI29
aI7
aI9
aI30
aI13
aI5
aI16
aI22
aI3
aI34
aI14
aI8
aI2
aI26
aa(lp6
I7
aI32
aI14
aI30
aI33
aI22
aI5
aI6
aI4
aI2
aI0
aI25
aI1
aI19
aI17
aI23
aI13
aI12
aI29
aI24
aI27
aI34
aI15
aI18
aI11
aI20
aI3
aI21
aI31
aI16
aI10
aI28
aI8
aI26
aI9
aa(lp7
I29
aI22
aI17
aI21
aI30
aI6
aI4
aI20
aI26
aI0
aI28
aI34
aI12
aI1
aI31
aI10
aI7
aI19
aI5
aI23
aI11
aI2
aI15
aI3
aI33
aI14
aI25
aI27
aI13
aI8
aI16
aI32
aI18
aI9
aI24
aa(lp8
I22
aI6
aI13
aI33
aI10
aI19
aI32
aI23
aI28
aI5
aI30
aI11
aI25
aI1
aI29
aI27
aI0
aI7
aI24
aI2
aI20
aI9
aI14
aI4
aI12
aI17
aI31
aI8
aI34
aI18
aI26
aI3
aI15
aI21
aI16
aa(lp9
I28
aI33
aI20
aI8
aI23
aI32
aI11
aI5
aI16
aI27
aI7
aI21
aI24
aI34
aI12
aI15
aI25
aI6
aI26
aI30
aI3
aI0
aI18
aI31
aI9
aI17
aI2
aI13
aI29
aI1
aI14
aI19
aI10
aI4
aI22
aa(lp10
I11
aI22
aI16
aI10
aI12
aI30
aI7
aI18
aI34
aI21
aI15
aI13
aI14
aI3
aI8
aI29
aI5
aI28
aI24
aI6
aI0
aI25
aI23
aI33
aI31
aI20
aI19
aI32
aI2
aI26
aI4
aI9
aI17
aI1
aI27
aa(lp11
I27
aI4
aI15
aI23
aI14
aI34
aI21
aI5
aI11
aI7
aI22
aI2
aI32
aI3
aI8
aI24
aI13
aI31
aI20
aI25
aI16
aI28
aI26
aI30
aI18
aI33
aI29
aI12
aI10
aI9
aI19
aI6
aI17
aI0
aI1
aa(lp12
I4
aI2
aI8
aI27
aI24
aI13
aI21
aI32
aI31
aI3
aI10
aI16
aI26
aI25
aI6
aI7
aI18
aI5
aI30
aI1
aI20
aI23
aI14
aI11
aI15
aI33
aI12
aI9
aI19
aI22
aI34
aI28
aI17
aI29
aI0
aa(lp13
I14
aI12
aI25
aI33
aI29
aI24
aI13
aI17
aI5
aI16
aI2
aI20
aI28
aI0
aI30
aI8
aI18
aI22
aI19
aI27
aI6
aI26
aI34
aI31
aI1
aI15
aI21
aI32
aI10
aI7
aI4
aI23
aI3
aI11
aI9
aa(lp14
I28
aI7
aI24
aI9
aI5
aI3
aI31
aI19
aI30
aI2
aI27
aI32
aI33
aI18
aI8
aI10
aI6
aI15
aI14
aI0
aI13
aI4
aI1
aI17
aI26
aI21
aI11
aI16
aI34
aI29
aI22
aI25
aI23
aI20
aI12
aa(lp15
I21
aI10
aI6
aI15
aI19
aI11
aI27
aI30
aI33
aI24
aI3
aI1
aI22
aI29
aI32
aI4
aI14
aI34
aI31
aI18
aI5
aI9
aI26
aI17
aI0
aI20
aI8
aI16
aI7
aI13
aI25
aI12
aI23
aI28
aI2
aa(lp16
I33
aI27
aI18
aI15
aI14
aI28
aI23
aI4
aI20
aI17
aI12
aI13
aI19
aI3
aI16
aI8
aI29
aI6
aI34
aI26
aI11
aI22
aI2
aI32
aI5
aI31
aI10
aI25
aI21
aI0
aI9
aI1
aI30
aI24
aI7
aa(lp17
I34
aI14
aI5
aI3
aI11
aI15
aI29
aI33
aI2
aI8
aI30
aI9
aI31
aI17
aI27
aI23
aI12
aI28
aI22
aI13
aI19
aI16
aI4
aI20
aI0
aI21
aI24
aI18
aI26
aI10
aI1
aI32
aI7
aI6
aI25
aa(lp18
I2
aI21
aI26
aI23
aI27
aI6
aI15
aI33
aI13
aI10
aI1
aI4
aI30
aI7
aI5
aI11
aI8
aI0
aI24
aI20
aI25
aI18
aI34
aI31
aI14
aI3
aI16
aI32
aI9
aI19
aI22
aI28
aI12
aI17
aI29
aa(lp19
I30
aI29
aI14
aI5
aI18
aI6
aI16
aI20
aI34
aI31
aI28
aI24
aI32
aI11
aI0
aI8
aI3
aI15
aI12
aI21
aI23
aI17
aI26
aI22
aI2
aI10
aI25
aI1
aI33
aI9
aI19
aI4
aI27
aI13
aI7
aa(lp20
I33
aI29
aI0
aI3
aI11
aI27
aI13
aI19
aI1
aI7
aI26
aI24
aI16
aI25
aI9
aI4
aI32
aI31
aI5
aI22
aI17
aI23
aI6
aI14
aI30
aI12
aI28
aI2
aI8
aI21
aI34
aI15
aI20
aI10
aI18
aa.