(lp0
(lp1
I219
aI215
aI11
aI194
aI174
aI131
aI259
aI35
aI138
aI130
aI136
aI116
aI120
aI94
aI103
aI145
aI32
aI241
aI224
aI67
aI192
aI30
aI100
aI237
aI158
aI102
aI234
aI185
aI92
aI231
aI53
aI124
aI125
aI135
aI6
aI262
aI89
aI233
aI17
aI244
aI80
aI26
aI137
aI193
aI177
aI75
aI82
aI31
aI13
aI79
aI198
aI165
aI134
aI23
aI8
aI33
aI249
aI167
aI173
aI253
aI216
aI250
aI164
aI61
aI56
aI44
aI106
aI227
aI157
aI71
aI48
aI84
aI172
aI37
aI204
aI49
aI69
aI122
aI182
aI110
aI188
aI121
aI42
aI181
aI148
aI36
aI87
aI161
aI252
aI160
aI222
aI59
aI128
aI256
aI55
aI81
aI51
aI238
aI50
aI47
aI257
aI228
aI180
aI46
aI201
aI129
aI24
aI97
aI95
aI76
aI236
aI140
aI223
aI207
aI126
aI15
aI98
aI78
aI212
aI22
aI221
aI243
aI152
aI218
aI226
aI63
aI220
aI247
aI16
aI0
aI149
aI1
aI18
aI90
aI213
aI187
aI9
aI200
aI168
aI127
aI40
aI176
aI155
aI91
aI169
aI142
aI66
aI156
aI205
aI112
aI195
aI230
aI85
aI190
aI115
aI206
aI60
aI19
aI104
aI225
aI229
aI235
aI10
aI113
aI199
aI132
aI144
aI133
aI184
aI248
aI203
aI151
aI202
aI150
aI191
aI72
aI123
aI86
aI25
aI4
aI175
aI254
aI73
aI107
aI62
aI154
aI159
aI139
aI88
aI232
aI261
aI166
aI239
aI217
aI54
aI186
aI146
aI240
aI196
aI189
aI178
aI153
aI111
aI3
aI163
aI117
aI12
aI245
aI170
aI39
aI77
aI258
aI21
aI147
aI96
aI2
aI34
aI43
aI65
aI29
aI260
aI45
aI27
aI70
aI141
aI210
aI14
aI58
aI64
aI246
aI255
aI183
aI57
aI208
aI93
aI211
aI68
aI105
aI109
aI214
aI28
aI101
aI83
aI20
aI41
aI52
aI38
aI171
aI99
aI242
aI108
aI179
aI74
aI114
aI209
aI251
aI143
aI118
aI5
aI197
aI119
aI7
aI162
aa(lp2
I92
aI15
aI76
aI62
aI232
aI16
aI139
aI130
aI65
aI27
aI58
aI244
aI17
aI55
aI42
aI260
aI179
aI127
aI147
aI71
aI31
aI183
aI226
aI234
aI198
aI101
aI21
aI123
aI186
aI60
aI64
aI235
aI242
aI12
aI161
aI187
aI224
aI35
aI213
aI150
aI254
aI230
aI166
aI125
aI124
aI134
aI70
aI107
aI128
aI133
aI249
aI91
aI45
aI163
aI206
aI73
aI220
aI9
aI142
aI241
aI215
aI252
aI189
aI227
aI250
aI53
aI80
aI149
aI38
aI117
aI47
aI98
aI56
aI40
aI262
aI39
aI54
aI251
aI176
aI95
aI144
aI132
aI204
aI170
aI135
aI196
aI30
aI145
aI185
aI208
aI202
aI209
aI247
aI5
aI152
aI221
aI258
aI143
aI72
aI159
aI111
aI129
aI52
aI207
aI217
aI191
aI51
aI43
aI200
aI168
aI201
aI26
aI160
aI69
aI109
aI171
aI33
aI37
aI184
aI223
aI212
aI237
aI138
aI2
aI205
aI50
aI151
aI24
aI34
aI169
aI6
aI41
aI257
aI118
aI126
aI28
aI141
aI1
aI239
aI7
aI32
aI4
aI61
aI112
aI119
aI29
aI193
aI82
aI77
aI203
aI57
aI8
aI175
aI22
aI13
aI158
aI78
aI131
aI89
aI103
aI104
aI177
aI194
aI68
aI137
aI155
aI0
aI59
aI84
aI46
aI210
aI219
aI167
aI97
aI79
aI20
aI87
aI211
aI256
aI48
aI238
aI100
aI83
aI90
aI236
aI243
aI63
aI180
aI231
aI108
aI182
aI156
aI218
aI245
aI96
aI255
aI148
aI86
aI165
aI36
aI23
aI81
aI14
aI199
aI67
aI140
aI120
aI136
aI19
aI10
aI114
aI105
aI49
aI192
aI261
aI188
aI181
aI88
aI93
aI102
aI197
aI116
aI229
aI66
aI74
aI11
aI162
aI106
aI154
aI18
aI246
aI233
aI195
aI3
aI222
aI99
aI85
aI164
aI253
aI228
aI157
aI259
aI225
aI240
aI115
aI216
aI172
aI75
aI190
aI153
aI174
aI146
aI121
aI178
aI94
aI110
aI113
aI248
aI44
aI214
aI173
aI25
aI122
aa(lp3
I83
aI184
aI107
aI226
aI255
aI207
aI58
aI216
aI259
aI46
aI15
aI94
aI257
aI85
aI74
aI24
aI86
aI111
aI225
aI57
aI252
aI203
aI64
aI154
aI250
aI99
aI106
aI144
aI16
aI233
aI151
aI178
aI42
aI13
aI6
aI68
aI47
aI96
aI135
aI164
aI136
aI55
aI25
aI190
aI201
aI101
aI118
aI176
aI12
aI146
aI1
aI238
aI109
aI59
aI229
aI131
aI38
aI170
aI212
aI242
aI140
aI234
aI73
aI147
aI210
aI239
aI36
aI206
aI41
aI67
aI222
aI209
aI228
aI54
aI103
aI138
aI215
aI97
aI227
aI80
aI95
aI240
aI40
aI104
aI66
aI261
aI126
aI130
aI100
aI88
aI139
aI199
aI69
aI195
aI33
aI50
aI4
aI121
aI196
aI72
aI241
aI188
aI200
aI93
aI150
aI237
aI114
aI189
aI120
aI78
aI26
aI155
aI180
aI132
aI71
aI52
aI214
aI163
aI191
aI27
aI221
aI137
aI187
aI76
aI194
aI39
aI70
aI30
aI172
aI82
aI3
aI173
aI9
aI262
aI108
aI244
aI177
aI134
aI157
aI156
aI133
aI254
aI125
aI193
aI113
aI122
aI232
aI256
aI169
aI44
aI127
aI29
aI152
aI145
aI218
aI251
aI61
aI60
aI23
aI231
aI143
aI17
aI21
aI158
aI92
aI7
aI123
aI217
aI14
aI119
aI197
aI5
aI62
aI186
aI205
aI182
aI32
aI117
aI28
aI258
aI168
aI208
aI211
aI10
aI63
aI204
aI183
aI161
aI129
aI224
aI181
aI48
aI37
aI105
aI18
aI167
aI56
aI213
aI81
aI166
aI220
aI0
aI174
aI175
aI65
aI19
aI235
aI162
aI22
aI77
aI89
aI84
aI128
aI31
aI116
aI253
aI198
aI45
aI142
aI159
aI2
aI149
aI141
aI185
aI98
aI249
aI115
aI202
aI87
aI51
aI20
aI112
aI246
aI79
aI153
aI75
aI223
aI102
aI219
aI245
aI248
aI124
aI49
aI165
aI110
aI53
aI230
aI247
aI34
aI179
aI90
aI91
aI243
aI192
aI43
aI148
aI236
aI171
aI11
aI160
aI260
aI35
aI8
aa(lp4
I97
aI210
aI205
aI43
aI220
aI69
aI200
aI179
aI103
aI8
aI171
aI10
aI245
aI260
aI26
aI159
aI46
aI141
aI85
aI140
aI120
aI86
aI167
aI256
aI157
aI244
aI24
aI255
aI261
aI219
aI78
aI150
aI262
aI119
aI38
aI253
aI60
aI50
aI116
aI143
aI259
aI83
aI4
aI230
aI180
aI169
aI29
aI102
aI234
aI107
aI129
aI178
aI49
aI30
aI81
aI135
aI80
aI1
aI173
aI48
aI216
aI217
aI61
aI101
aI170
aI118
aI70
aI67
aI174
aI175
aI213
aI231
aI57
aI196
aI165
aI113
aI227
aI162
aI47
aI76
aI44
aI254
aI238
aI90
aI193
aI79
aI59
aI54
aI114
aI123
aI128
aI224
aI31
aI52
aI45
aI65
aI184
aI185
aI163
aI84
aI183
aI7
aI15
aI221
aI125
aI154
aI189
aI77
aI211
aI186
aI58
aI63
aI222
aI11
aI95
aI75
aI251
aI72
aI134
aI14
aI218
aI51
aI181
aI148
aI53
aI71
aI226
aI110
aI12
aI121
aI112
aI235
aI249
aI22
aI156
aI13
aI126
aI258
aI109
aI5
aI250
aI144
aI122
aI34
aI25
aI2
aI177
aI16
aI56
aI23
aI37
aI19
aI105
aI208
aI21
aI94
aI212
aI108
aI127
aI232
aI246
aI161
aI209
aI168
aI182
aI100
aI32
aI202
aI3
aI96
aI207
aI18
aI241
aI160
aI194
aI199
aI195
aI66
aI152
aI145
aI191
aI6
aI55
aI33
aI147
aI17
aI203
aI41
aI130
aI20
aI0
aI146
aI39
aI87
aI215
aI136
aI93
aI166
aI188
aI98
aI197
aI204
aI42
aI228
aI158
aI252
aI198
aI153
aI229
aI138
aI9
aI124
aI106
aI237
aI149
aI176
aI142
aI248
aI82
aI68
aI242
aI201
aI99
aI74
aI214
aI206
aI240
aI151
aI35
aI137
aI111
aI187
aI40
aI155
aI88
aI36
aI64
aI104
aI164
aI27
aI172
aI28
aI239
aI89
aI131
aI91
aI223
aI243
aI225
aI117
aI190
aI73
aI133
aI192
aI132
aI92
aI62
aI115
aI257
aI247
aI139
aI236
aI233
aa(lp5
I10
aI138
aI15
aI62
aI235
aI96
aI259
aI149
aI61
aI78
aI219
aI37
aI204
aI201
aI210
aI73
aI122
aI218
aI221
aI14
aI180
aI120
aI244
aI139
aI132
aI187
aI134
aI173
aI3
aI254
aI60
aI117
aI249
aI175
aI167
aI23
aI246
aI152
aI217
aI164
aI2
aI64
aI158
aI203
aI71
aI161
aI211
aI239
aI162
aI140
aI145
aI194
aI197
aI16
aI196
aI18
aI233
aI182
aI101
aI102
aI146
aI202
aI172
aI116
aI125
aI1
aI154
aI215
aI250
aI176
aI243
aI240
aI207
aI186
aI114
aI248
aI166
aI48
aI63
aI110
aI159
aI206
aI75
aI80
aI55
aI39
aI137
aI228
aI57
aI20
aI33
aI65
aI93
aI223
aI234
aI89
aI88
aI9
aI262
aI253
aI77
aI195
aI52
aI90
aI127
aI99
aI4
aI67
aI94
aI214
aI95
aI40
aI256
aI245
aI85
aI174
aI42
aI130
aI151
aI177
aI5
aI222
aI22
aI236
aI46
aI66
aI156
aI83
aI19
aI220
aI213
aI76
aI109
aI45
aI155
aI190
aI79
aI44
aI216
aI224
aI198
aI231
aI188
aI51
aI171
aI238
aI148
aI247
aI150
aI100
aI260
aI232
aI255
aI74
aI103
aI59
aI185
aI227
aI212
aI50
aI184
aI261
aI208
aI170
aI49
aI12
aI181
aI35
aI205
aI87
aI106
aI104
aI6
aI97
aI29
aI86
aI27
aI129
aI43
aI157
aI84
aI26
aI17
aI0
aI165
aI7
aI163
aI92
aI144
aI124
aI237
aI136
aI82
aI24
aI98
aI252
aI119
aI226
aI135
aI105
aI32
aI111
aI13
aI70
aI191
aI123
aI241
aI11
aI153
aI128
aI225
aI21
aI142
aI34
aI54
aI258
aI56
aI126
aI25
aI193
aI72
aI230
aI118
aI113
aI229
aI91
aI31
aI30
aI168
aI192
aI251
aI179
aI183
aI131
aI121
aI199
aI112
aI47
aI141
aI178
aI209
aI189
aI147
aI81
aI28
aI69
aI58
aI8
aI133
aI143
aI68
aI108
aI242
aI169
aI115
aI257
aI41
aI200
aI38
aI160
aI53
aI107
aI36
aa(lp6
I253
aI121
aI225
aI15
aI168
aI79
aI201
aI97
aI85
aI66
aI196
aI93
aI215
aI169
aI249
aI258
aI126
aI202
aI257
aI83
aI89
aI53
aI174
aI48
aI228
aI34
aI84
aI115
aI19
aI120
aI247
aI180
aI189
aI177
aI2
aI10
aI25
aI100
aI32
aI102
aI250
aI1
aI155
aI47
aI51
aI235
aI4
aI59
aI161
aI213
aI255
aI139
aI73
aI192
aI245
aI193
aI183
aI170
aI81
aI76
aI78
aI113
aI260
aI56
aI94
aI252
aI145
aI181
aI175
aI171
aI106
aI222
aI20
aI207
aI220
aI61
aI54
aI77
aI259
aI67
aI188
aI203
aI26
aI243
aI164
aI199
aI185
aI128
aI29
aI254
aI52
aI179
aI182
aI246
aI157
aI46
aI33
aI178
aI141
aI172
aI217
aI110
aI82
aI9
aI162
aI156
aI211
aI112
aI248
aI117
aI205
aI135
aI74
aI57
aI72
aI96
aI191
aI195
aI238
aI143
aI91
aI140
aI3
aI70
aI224
aI116
aI236
aI39
aI118
aI152
aI137
aI28
aI261
aI223
aI147
aI256
aI62
aI99
aI111
aI127
aI239
aI86
aI212
aI41
aI87
aI229
aI88
aI49
aI16
aI136
aI154
aI134
aI218
aI109
aI63
aI95
aI187
aI231
aI129
aI68
aI7
aI60
aI163
aI14
aI233
aI65
aI173
aI22
aI142
aI149
aI198
aI12
aI262
aI209
aI5
aI166
aI45
aI190
aI105
aI103
aI36
aI55
aI43
aI197
aI125
aI184
aI11
aI8
aI18
aI186
aI21
aI146
aI230
aI131
aI208
aI90
aI241
aI219
aI221
aI133
aI167
aI200
aI206
aI101
aI214
aI17
aI227
aI38
aI210
aI151
aI107
aI242
aI58
aI13
aI98
aI40
aI237
aI42
aI69
aI108
aI92
aI64
aI148
aI251
aI160
aI119
aI234
aI144
aI176
aI138
aI216
aI37
aI244
aI158
aI44
aI124
aI80
aI132
aI75
aI31
aI204
aI104
aI122
aI150
aI130
aI35
aI23
aI240
aI153
aI123
aI0
aI232
aI6
aI27
aI226
aI165
aI24
aI114
aI159
aI30
aI194
aI71
aI50
aa(lp7
I45
aI196
aI29
aI10
aI246
aI173
aI83
aI136
aI235
aI87
aI53
aI143
aI198
aI107
aI57
aI54
aI19
aI30
aI207
aI33
aI36
aI102
aI255
aI148
aI197
aI193
aI123
aI155
aI253
aI39
aI16
aI131
aI49
aI133
aI95
aI118
aI179
aI224
aI181
aI1
aI180
aI58
aI94
aI122
aI248
aI208
aI170
aI184
aI158
aI101
aI72
aI216
aI96
aI242
aI7
aI152
aI164
aI74
aI48
aI0
aI51
aI126
aI157
aI130
aI56
aI4
aI89
aI233
aI167
aI68
aI98
aI8
aI129
aI185
aI237
aI92
aI37
aI105
aI239
aI109
aI250
aI3
aI75
aI38
aI34
aI161
aI200
aI186
aI228
aI229
aI205
aI251
aI220
aI99
aI13
aI172
aI183
aI85
aI222
aI150
aI106
aI73
aI28
aI165
aI140
aI47
aI204
aI111
aI20
aI6
aI115
aI26
aI127
aI66
aI41
aI231
aI17
aI55
aI226
aI192
aI23
aI71
aI69
aI32
aI202
aI78
aI257
aI35
aI142
aI175
aI137
aI201
aI91
aI80
aI240
aI88
aI61
aI14
aI67
aI209
aI86
aI110
aI65
aI139
aI178
aI210
aI104
aI60
aI146
aI128
aI120
aI21
aI191
aI245
aI2
aI141
aI187
aI195
aI124
aI50
aI117
aI156
aI77
aI103
aI218
aI219
aI42
aI52
aI258
aI44
aI149
aI163
aI249
aI63
aI188
aI211
aI5
aI176
aI230
aI214
aI121
aI11
aI177
aI134
aI114
aI147
aI234
aI125
aI232
aI159
aI70
aI168
aI82
aI215
aI261
aI64
aI182
aI260
aI199
aI132
aI203
aI43
aI247
aI243
aI27
aI154
aI252
aI194
aI162
aI76
aI93
aI206
aI189
aI59
aI135
aI212
aI225
aI22
aI238
aI223
aI116
aI244
aI256
aI169
aI241
aI119
aI62
aI81
aI174
aI145
aI217
aI90
aI12
aI221
aI9
aI213
aI160
aI171
aI79
aI166
aI144
aI84
aI236
aI153
aI190
aI227
aI31
aI151
aI46
aI108
aI138
aI262
aI24
aI112
aI254
aI40
aI15
aI97
aI113
aI25
aI259
aI18
aI100
aa(lp8
I16
aI85
aI172
aI191
aI195
aI125
aI190
aI138
aI239
aI159
aI66
aI213
aI144
aI44
aI107
aI100
aI212
aI104
aI121
aI141
aI178
aI115
aI171
aI205
aI50
aI258
aI147
aI189
aI241
aI162
aI167
aI257
aI176
aI76
aI124
aI173
aI245
aI199
aI99
aI109
aI233
aI29
aI2
aI143
aI108
aI24
aI243
aI219
aI0
aI78
aI152
aI25
aI67
aI90
aI130
aI95
aI256
aI221
aI41
aI169
aI117
aI234
aI237
aI183
aI197
aI1
aI155
aI232
aI55
aI21
aI216
aI68
aI47
aI86
aI175
aI135
aI54
aI228
aI84
aI96
aI139
aI150
aI153
aI201
aI170
aI259
aI91
aI49
aI110
aI210
aI207
aI53
aI51
aI185
aI81
aI120
aI52
aI222
aI161
aI48
aI252
aI160
aI140
aI35
aI166
aI9
aI43
aI151
aI240
aI114
aI242
aI225
aI4
aI196
aI79
aI8
aI93
aI149
aI180
aI186
aI74
aI75
aI33
aI204
aI42
aI103
aI122
aI64
aI238
aI82
aI31
aI168
aI246
aI27
aI32
aI97
aI154
aI94
aI211
aI200
aI209
aI220
aI39
aI6
aI23
aI88
aI148
aI146
aI260
aI187
aI28
aI226
aI69
aI244
aI202
aI129
aI18
aI77
aI208
aI136
aI13
aI38
aI224
aI65
aI111
aI63
aI72
aI145
aI131
aI231
aI165
aI17
aI102
aI92
aI14
aI127
aI106
aI128
aI98
aI7
aI60
aI179
aI112
aI37
aI71
aI192
aI251
aI89
aI181
aI262
aI215
aI134
aI5
aI87
aI40
aI188
aI132
aI248
aI83
aI230
aI113
aI3
aI58
aI261
aI101
aI229
aI15
aI137
aI133
aI30
aI174
aI227
aI182
aI184
aI20
aI22
aI61
aI45
aI163
aI217
aI157
aI253
aI46
aI119
aI247
aI56
aI126
aI57
aI118
aI249
aI203
aI11
aI214
aI223
aI142
aI156
aI36
aI59
aI235
aI158
aI193
aI198
aI70
aI116
aI123
aI73
aI250
aI164
aI12
aI19
aI26
aI236
aI255
aI80
aI34
aI177
aI206
aI10
aI218
aI194
aI254
aI105
aI62
aa(lp9
I137
aI59
aI223
aI238
aI149
aI187
aI124
aI192
aI33
aI140
aI258
aI38
aI44
aI68
aI195
aI129
aI15
aI194
aI102
aI76
aI52
aI104
aI94
aI30
aI92
aI99
aI120
aI175
aI249
aI72
aI91
aI24
aI232
aI45
aI259
aI158
aI60
aI116
aI163
aI14
aI171
aI220
aI176
aI206
aI106
aI142
aI212
aI138
aI213
aI114
aI241
aI255
aI62
aI64
aI66
aI78
aI61
aI155
aI82
aI205
aI107
aI105
aI237
aI69
aI261
aI108
aI84
aI147
aI148
aI199
aI136
aI53
aI58
aI42
aI186
aI190
aI43
aI172
aI262
aI51
aI12
aI81
aI37
aI201
aI179
aI240
aI221
aI217
aI185
aI77
aI65
aI112
aI101
aI123
aI100
aI126
aI173
aI228
aI122
aI156
aI115
aI146
aI46
aI198
aI70
aI73
aI23
aI181
aI128
aI159
aI196
aI95
aI254
aI168
aI229
aI189
aI165
aI197
aI218
aI246
aI97
aI29
aI257
aI200
aI56
aI71
aI248
aI55
aI20
aI131
aI161
aI231
aI39
aI235
aI41
aI251
aI98
aI10
aI63
aI18
aI164
aI109
aI118
aI1
aI184
aI7
aI160
aI79
aI19
aI50
aI247
aI242
aI21
aI119
aI35
aI191
aI9
aI230
aI135
aI47
aI226
aI177
aI207
aI182
aI85
aI130
aI80
aI166
aI90
aI193
aI54
aI170
aI113
aI188
aI74
aI26
aI87
aI13
aI5
aI36
aI127
aI34
aI25
aI253
aI239
aI224
aI117
aI167
aI143
aI49
aI133
aI243
aI210
aI203
aI211
aI125
aI151
aI8
aI132
aI216
aI204
aI134
aI67
aI141
aI88
aI152
aI0
aI157
aI121
aI75
aI245
aI233
aI22
aI145
aI202
aI27
aI169
aI225
aI215
aI6
aI139
aI256
aI48
aI96
aI31
aI32
aI150
aI89
aI16
aI174
aI110
aI162
aI3
aI208
aI178
aI93
aI236
aI180
aI2
aI250
aI234
aI227
aI103
aI83
aI154
aI28
aI4
aI214
aI11
aI57
aI222
aI144
aI86
aI244
aI183
aI17
aI111
aI260
aI40
aI153
aI252
aI209
aI219
aa(lp10
I6
aI194
aI209
aI236
aI52
aI121
aI101
aI69
aI53
aI117
aI45
aI112
aI214
aI148
aI182
aI23
aI25
aI107
aI198
aI124
aI172
aI234
aI18
aI40
aI71
aI66
aI208
aI201
aI11
aI177
aI105
aI163
aI206
aI154
aI253
aI173
aI13
aI162
aI15
aI58
aI225
aI49
aI254
aI130
aI152
aI227
aI258
aI260
aI235
aI55
aI116
aI256
aI205
aI9
aI178
aI238
aI48
aI115
aI56
aI203
aI239
aI197
aI37
aI216
aI131
aI243
aI220
aI43
aI125
aI224
aI24
aI118
aI240
aI143
aI111
aI12
aI242
aI127
aI31
aI96
aI106
aI28
aI120
aI202
aI221
aI21
aI94
aI145
aI200
aI98
aI226
aI249
aI246
aI22
aI1
aI199
aI88
aI129
aI19
aI97
aI68
aI26
aI20
aI51
aI32
aI62
aI16
aI181
aI61
aI99
aI170
aI144
aI155
aI251
aI228
aI72
aI86
aI4
aI57
aI176
aI180
aI119
aI93
aI14
aI63
aI161
aI183
aI85
aI171
aI165
aI29
aI108
aI46
aI5
aI262
aI75
aI104
aI123
aI210
aI122
aI76
aI211
aI230
aI244
aI70
aI187
aI166
aI135
aI218
aI134
aI159
aI168
aI59
aI78
aI39
aI138
aI232
aI36
aI192
aI153
aI190
aI95
aI229
aI237
aI139
aI17
aI140
aI233
aI195
aI67
aI110
aI27
aI109
aI79
aI252
aI141
aI65
aI44
aI179
aI150
aI186
aI167
aI103
aI193
aI189
aI33
aI50
aI257
aI255
aI82
aI247
aI137
aI41
aI83
aI84
aI174
aI188
aI73
aI215
aI54
aI231
aI90
aI100
aI92
aI34
aI223
aI80
aI2
aI142
aI8
aI250
aI207
aI81
aI60
aI147
aI219
aI158
aI175
aI132
aI149
aI248
aI222
aI212
aI126
aI64
aI114
aI204
aI89
aI128
aI7
aI146
aI91
aI259
aI74
aI156
aI102
aI185
aI184
aI196
aI157
aI136
aI10
aI35
aI133
aI213
aI3
aI38
aI160
aI30
aI151
aI169
aI77
aI164
aI87
aI245
aI217
aI0
aI113
aI241
aI261
aI47
aI191
aI42
aa(lp11
I105
aI32
aI184
aI31
aI225
aI257
aI224
aI261
aI148
aI181
aI5
aI156
aI211
aI114
aI228
aI88
aI15
aI72
aI150
aI120
aI237
aI180
aI29
aI77
aI196
aI70
aI30
aI129
aI160
aI126
aI144
aI63
aI47
aI108
aI236
aI25
aI147
aI219
aI125
aI242
aI209
aI154
aI8
aI22
aI200
aI35
aI36
aI34
aI123
aI177
aI250
aI6
aI110
aI164
aI41
aI183
aI134
aI130
aI223
aI232
aI119
aI1
aI206
aI169
aI262
aI65
aI244
aI241
aI212
aI207
aI135
aI131
aI256
aI45
aI60
aI246
aI75
aI185
aI137
aI85
aI182
aI44
aI174
aI17
aI172
aI80
aI18
aI146
aI217
aI94
aI210
aI215
aI83
aI255
aI106
aI9
aI66
aI118
aI190
aI258
aI155
aI24
aI218
aI48
aI10
aI216
aI208
aI153
aI253
aI71
aI143
aI226
aI149
aI243
aI28
aI46
aI204
aI234
aI161
aI116
aI115
aI59
aI53
aI238
aI260
aI214
aI49
aI201
aI247
aI197
aI98
aI230
aI112
aI227
aI82
aI245
aI254
aI220
aI100
aI136
aI162
aI96
aI104
aI195
aI240
aI187
aI128
aI179
aI42
aI109
aI189
aI0
aI38
aI16
aI12
aI2
aI52
aI133
aI166
aI173
aI235
aI152
aI73
aI50
aI139
aI79
aI171
aI157
aI61
aI89
aI259
aI198
aI33
aI222
aI103
aI54
aI221
aI151
aI178
aI199
aI213
aI158
aI239
aI121
aI117
aI27
aI170
aI141
aI124
aI68
aI78
aI3
aI21
aI13
aI69
aI74
aI111
aI113
aI248
aI7
aI90
aI58
aI145
aI193
aI229
aI165
aI51
aI37
aI92
aI127
aI14
aI102
aI251
aI140
aI168
aI122
aI57
aI188
aI19
aI86
aI167
aI64
aI56
aI40
aI95
aI87
aI203
aI138
aI76
aI84
aI233
aI205
aI99
aI97
aI194
aI163
aI101
aI81
aI26
aI252
aI202
aI4
aI23
aI67
aI191
aI175
aI159
aI249
aI55
aI142
aI39
aI231
aI107
aI93
aI62
aI20
aI186
aI132
aI43
aI176
aI91
aI11
aI192
aa(lp12
I155
aI178
aI239
aI50
aI90
aI135
aI95
aI156
aI10
aI55
aI238
aI121
aI110
aI219
aI240
aI223
aI76
aI183
aI13
aI138
aI191
aI23
aI11
aI83
aI40
aI97
aI236
aI211
aI217
aI197
aI171
aI86
aI221
aI230
aI202
aI188
aI18
aI105
aI4
aI35
aI74
aI184
aI45
aI108
aI31
aI214
aI60
aI128
aI126
aI124
aI36
aI103
aI216
aI204
aI203
aI187
aI179
aI246
aI20
aI34
aI231
aI25
aI93
aI47
aI145
aI27
aI78
aI200
aI242
aI170
aI8
aI33
aI141
aI49
aI123
aI153
aI262
aI113
aI169
aI161
aI102
aI26
aI131
aI69
aI117
aI201
aI81
aI5
aI41
aI114
aI224
aI182
aI91
aI9
aI127
aI147
aI158
aI52
aI222
aI112
aI53
aI62
aI252
aI199
aI73
aI228
aI206
aI194
aI213
aI44
aI89
aI207
aI38
aI12
aI186
aI177
aI154
aI162
aI109
aI61
aI209
aI46
aI77
aI75
aI96
aI130
aI58
aI146
aI163
aI84
aI241
aI70
aI67
aI198
aI205
aI3
aI116
aI80
aI28
aI245
aI210
aI85
aI193
aI66
aI243
aI64
aI68
aI152
aI30
aI166
aI106
aI260
aI185
aI87
aI71
aI132
aI250
aI234
aI244
aI7
aI118
aI21
aI144
aI2
aI17
aI65
aI151
aI54
aI225
aI226
aI115
aI196
aI173
aI192
aI249
aI215
aI175
aI139
aI181
aI190
aI107
aI254
aI94
aI174
aI37
aI172
aI99
aI137
aI43
aI257
aI6
aI120
aI248
aI19
aI32
aI122
aI72
aI232
aI101
aI104
aI176
aI15
aI98
aI140
aI1
aI22
aI100
aI195
aI168
aI125
aI164
aI136
aI149
aI233
aI159
aI0
aI82
aI160
aI142
aI229
aI134
aI253
aI167
aI261
aI59
aI24
aI208
aI220
aI79
aI189
aI251
aI255
aI111
aI63
aI227
aI119
aI212
aI157
aI218
aI42
aI235
aI14
aI51
aI148
aI258
aI256
aI56
aI39
aI165
aI259
aI237
aI92
aI57
aI29
aI129
aI150
aI180
aI16
aI48
aI247
aI143
aI88
aI133
aa(lp13
I109
aI108
aI116
aI232
aI220
aI31
aI53
aI139
aI210
aI99
aI255
aI132
aI7
aI239
aI234
aI32
aI235
aI68
aI57
aI85
aI93
aI60
aI160
aI179
aI206
aI72
aI104
aI79
aI23
aI126
aI165
aI61
aI117
aI153
aI30
aI55
aI129
aI4
aI163
aI122
aI90
aI40
aI46
aI15
aI193
aI51
aI215
aI11
aI143
aI78
aI39
aI147
aI261
aI20
aI161
aI188
aI196
aI211
aI8
aI146
aI27
aI182
aI70
aI190
aI224
aI58
aI128
aI65
aI201
aI194
aI28
aI3
aI144
aI199
aI218
aI155
aI225
aI159
aI35
aI216
aI180
aI198
aI252
aI0
aI181
aI243
aI42
aI133
aI262
aI192
aI88
aI12
aI94
aI18
aI41
aI34
aI62
aI134
aI107
aI184
aI162
aI231
aI157
aI142
aI238
aI195
aI36
aI240
aI178
aI140
aI205
aI256
aI13
aI156
aI187
aI45
aI119
aI44
aI164
aI26
aI138
aI257
aI253
aI127
aI50
aI76
aI2
aI59
aI1
aI67
aI105
aI230
aI141
aI69
aI154
aI95
aI97
aI21
aI16
aI121
aI246
aI203
aI54
aI152
aI166
aI172
aI137
aI168
aI96
aI113
aI47
aI120
aI186
aI167
aI248
aI202
aI212
aI92
aI22
aI251
aI258
aI171
aI124
aI14
aI250
aI84
aI52
aI175
aI207
aI77
aI229
aI29
aI136
aI73
aI125
aI38
aI56
aI83
aI103
aI185
aI221
aI244
aI71
aI112
aI200
aI213
aI209
aI227
aI115
aI64
aI217
aI176
aI101
aI75
aI158
aI242
aI145
aI189
aI170
aI19
aI100
aI17
aI149
aI37
aI237
aI150
aI219
aI222
aI241
aI123
aI111
aI259
aI228
aI197
aI169
aI247
aI98
aI33
aI249
aI148
aI106
aI114
aI6
aI5
aI174
aI81
aI24
aI135
aI191
aI245
aI226
aI89
aI260
aI102
aI80
aI43
aI110
aI10
aI223
aI91
aI183
aI74
aI208
aI118
aI177
aI63
aI86
aI151
aI236
aI49
aI204
aI48
aI254
aI233
aI131
aI130
aI66
aI173
aI87
aI82
aI25
aI214
aI9
aa(lp14
I175
aI32
aI238
aI259
aI101
aI119
aI107
aI206
aI58
aI47
aI93
aI252
aI106
aI28
aI131
aI80
aI37
aI61
aI156
aI239
aI27
aI83
aI208
aI111
aI25
aI162
aI9
aI217
aI207
aI260
aI133
aI189
aI136
aI195
aI15
aI182
aI230
aI229
aI89
aI88
aI53
aI176
aI164
aI154
aI100
aI181
aI103
aI69
aI262
aI245
aI34
aI159
aI91
aI187
aI240
aI31
aI232
aI2
aI167
aI174
aI249
aI50
aI48
aI150
aI205
aI161
aI234
aI248
aI241
aI173
aI115
aI149
aI60
aI8
aI65
aI59
aI256
aI170
aI224
aI246
aI221
aI87
aI198
aI186
aI226
aI105
aI199
aI193
aI116
aI165
aI33
aI63
aI98
aI209
aI45
aI145
aI188
aI130
aI158
aI126
aI55
aI243
aI141
aI155
aI214
aI29
aI26
aI157
aI148
aI146
aI20
aI16
aI94
aI99
aI11
aI23
aI196
aI236
aI73
aI81
aI219
aI66
aI202
aI261
aI110
aI251
aI42
aI4
aI124
aI194
aI120
aI75
aI185
aI24
aI179
aI104
aI178
aI68
aI54
aI228
aI86
aI257
aI77
aI253
aI223
aI151
aI92
aI163
aI56
aI84
aI95
aI122
aI250
aI10
aI70
aI140
aI22
aI191
aI118
aI30
aI258
aI142
aI128
aI5
aI138
aI203
aI225
aI139
aI183
aI169
aI78
aI1
aI227
aI76
aI143
aI247
aI213
aI57
aI18
aI171
aI127
aI21
aI71
aI190
aI235
aI254
aI113
aI172
aI90
aI152
aI197
aI215
aI210
aI79
aI14
aI12
aI237
aI7
aI17
aI52
aI62
aI40
aI177
aI36
aI144
aI242
aI46
aI43
aI85
aI102
aI109
aI231
aI137
aI82
aI108
aI244
aI255
aI184
aI49
aI96
aI212
aI134
aI216
aI233
aI64
aI35
aI222
aI67
aI3
aI204
aI72
aI200
aI112
aI51
aI168
aI114
aI201
aI125
aI220
aI97
aI192
aI38
aI0
aI13
aI160
aI41
aI166
aI117
aI74
aI180
aI147
aI39
aI123
aI129
aI132
aI121
aI135
aI44
aI153
aI218
aI6
aI211
aI19
aa(lp15
I69
aI132
aI157
aI251
aI158
aI181
aI70
aI79
aI102
aI134
aI225
aI261
aI151
aI106
aI257
aI210
aI224
aI259
aI209
aI133
aI256
aI91
aI107
aI52
aI14
aI245
aI162
aI2
aI117
aI218
aI253
aI26
aI21
aI64
aI89
aI0
aI28
aI105
aI92
aI20
aI207
aI60
aI220
aI121
aI159
aI163
aI59
aI56
aI156
aI68
aI93
aI203
aI195
aI216
aI135
aI46
aI254
aI65
aI44
aI137
aI73
aI108
aI153
aI201
aI129
aI58
aI47
aI110
aI165
aI43
aI39
aI75
aI145
aI174
aI199
aI249
aI233
aI197
aI10
aI96
aI240
aI16
aI98
aI239
aI101
aI144
aI94
aI186
aI116
aI252
aI161
aI227
aI130
aI142
aI55
aI77
aI11
aI100
aI222
aI9
aI166
aI8
aI97
aI25
aI37
aI243
aI119
aI36
aI50
aI250
aI24
aI5
aI40
aI237
aI95
aI128
aI182
aI170
aI35
aI241
aI23
aI190
aI45
aI3
aI206
aI12
aI219
aI99
aI67
aI191
aI211
aI120
aI235
aI229
aI27
aI196
aI236
aI180
aI242
aI187
aI57
aI112
aI160
aI126
aI83
aI247
aI138
aI175
aI143
aI230
aI248
aI147
aI1
aI231
aI208
aI232
aI140
aI194
aI215
aI168
aI184
aI202
aI262
aI17
aI51
aI173
aI42
aI85
aI62
aI154
aI103
aI141
aI124
aI214
aI234
aI61
aI78
aI169
aI71
aI88
aI183
aI131
aI81
aI189
aI150
aI164
aI13
aI212
aI221
aI19
aI48
aI33
aI200
aI125
aI109
aI178
aI155
aI41
aI34
aI205
aI29
aI38
aI7
aI198
aI255
aI115
aI246
aI74
aI84
aI104
aI15
aI72
aI118
aI148
aI86
aI6
aI32
aI223
aI66
aI30
aI193
aI213
aI185
aI114
aI149
aI123
aI76
aI146
aI192
aI244
aI172
aI177
aI226
aI31
aI238
aI176
aI54
aI113
aI217
aI167
aI188
aI204
aI260
aI171
aI228
aI63
aI87
aI82
aI258
aI4
aI90
aI179
aI127
aI22
aI111
aI136
aI152
aI139
aI49
aI122
aI18
aI53
aI80
aa(lp16
I183
aI99
aI248
aI88
aI129
aI137
aI206
aI119
aI154
aI14
aI74
aI192
aI157
aI178
aI56
aI152
aI114
aI79
aI126
aI223
aI110
aI64
aI249
aI237
aI255
aI123
aI31
aI233
aI191
aI23
aI140
aI164
aI97
aI224
aI226
aI225
aI212
aI4
aI21
aI49
aI27
aI258
aI33
aI252
aI141
aI108
aI131
aI153
aI112
aI92
aI246
aI106
aI202
aI236
aI244
aI98
aI163
aI238
aI52
aI227
aI28
aI9
aI15
aI172
aI195
aI201
aI2
aI53
aI228
aI250
aI177
aI115
aI17
aI59
aI170
aI217
aI139
aI234
aI257
aI13
aI87
aI253
aI168
aI193
aI222
aI50
aI155
aI11
aI80
aI161
aI103
aI240
aI118
aI61
aI32
aI124
aI188
aI175
aI8
aI90
aI101
aI77
aI47
aI93
aI85
aI135
aI245
aI213
aI7
aI166
aI207
aI158
aI149
aI198
aI219
aI62
aI134
aI209
aI148
aI12
aI18
aI6
aI26
aI205
aI104
aI133
aI138
aI235
aI37
aI67
aI230
aI247
aI184
aI132
aI48
aI78
aI66
aI254
aI63
aI194
aI84
aI76
aI239
aI60
aI30
aI208
aI185
aI143
aI96
aI16
aI120
aI122
aI243
aI196
aI5
aI145
aI45
aI113
aI75
aI68
aI1
aI174
aI130
aI42
aI147
aI55
aI199
aI215
aI260
aI0
aI146
aI262
aI35
aI10
aI144
aI232
aI57
aI70
aI44
aI71
aI73
aI36
aI127
aI173
aI150
aI58
aI210
aI241
aI43
aI204
aI180
aI24
aI218
aI151
aI54
aI125
aI251
aI34
aI29
aI167
aI72
aI182
aI117
aI190
aI38
aI100
aI121
aI156
aI65
aI159
aI220
aI91
aI189
aI19
aI109
aI136
aI94
aI81
aI229
aI261
aI186
aI25
aI89
aI69
aI111
aI216
aI95
aI179
aI3
aI200
aI221
aI162
aI22
aI211
aI181
aI128
aI116
aI105
aI102
aI231
aI83
aI46
aI203
aI259
aI86
aI165
aI160
aI214
aI82
aI256
aI39
aI142
aI176
aI197
aI242
aI51
aI187
aI41
aI169
aI107
aI40
aI171
aI20
aa(lp17
I175
aI84
aI199
aI1
aI118
aI28
aI157
aI152
aI193
aI95
aI244
aI74
aI15
aI163
aI44
aI90
aI4
aI62
aI165
aI147
aI60
aI178
aI181
aI258
aI200
aI85
aI51
aI260
aI43
aI228
aI164
aI207
aI146
aI37
aI239
aI97
aI46
aI262
aI224
aI81
aI201
aI101
aI259
aI108
aI76
aI33
aI35
aI123
aI130
aI41
aI184
aI89
aI222
aI86
aI12
aI174
aI78
aI257
aI24
aI232
aI172
aI208
aI243
aI122
aI180
aI215
aI171
aI117
aI156
aI212
aI30
aI110
aI82
aI151
aI58
aI252
aI203
aI169
aI261
aI159
aI87
aI103
aI253
aI127
aI255
aI119
aI40
aI20
aI245
aI16
aI153
aI219
aI54
aI186
aI32
aI162
aI3
aI70
aI112
aI120
aI9
aI102
aI142
aI154
aI77
aI155
aI216
aI106
aI56
aI98
aI179
aI18
aI183
aI204
aI47
aI223
aI158
aI256
aI214
aI129
aI25
aI45
aI52
aI71
aI2
aI116
aI0
aI109
aI242
aI128
aI69
aI111
aI96
aI149
aI105
aI135
aI221
aI249
aI55
aI29
aI210
aI104
aI53
aI94
aI213
aI192
aI17
aI247
aI93
aI79
aI66
aI63
aI191
aI231
aI140
aI134
aI49
aI251
aI236
aI136
aI229
aI19
aI144
aI65
aI176
aI92
aI250
aI100
aI13
aI185
aI196
aI68
aI194
aI237
aI150
aI241
aI246
aI38
aI34
aI88
aI11
aI139
aI226
aI61
aI7
aI206
aI22
aI36
aI177
aI205
aI218
aI64
aI173
aI197
aI114
aI83
aI39
aI121
aI113
aI50
aI8
aI80
aI225
aI141
aI99
aI240
aI198
aI125
aI187
aI254
aI31
aI182
aI5
aI115
aI57
aI161
aI188
aI131
aI233
aI67
aI138
aI170
aI145
aI27
aI73
aI132
aI14
aI209
aI26
aI189
aI124
aI248
aI234
aI211
aI235
aI48
aI21
aI160
aI202
aI220
aI72
aI167
aI6
aI59
aI75
aI148
aI137
aI190
aI23
aI143
aI230
aI166
aI217
aI227
aI126
aI91
aI168
aI42
aI107
aI238
aI195
aI133
aI10
aa(lp18
I201
aI183
aI52
aI25
aI220
aI38
aI189
aI245
aI101
aI234
aI114
aI35
aI211
aI253
aI86
aI192
aI17
aI9
aI61
aI185
aI31
aI39
aI1
aI134
aI200
aI252
aI150
aI69
aI229
aI152
aI182
aI98
aI197
aI29
aI53
aI193
aI45
aI149
aI135
aI140
aI172
aI12
aI230
aI180
aI261
aI84
aI132
aI14
aI105
aI118
aI111
aI109
aI93
aI168
aI40
aI157
aI139
aI100
aI81
aI174
aI88
aI195
aI130
aI102
aI113
aI145
aI78
aI71
aI33
aI262
aI190
aI217
aI122
aI227
aI103
aI178
aI120
aI125
aI119
aI72
aI70
aI141
aI89
aI74
aI121
aI3
aI127
aI2
aI179
aI202
aI50
aI77
aI95
aI196
aI207
aI223
aI158
aI37
aI80
aI161
aI15
aI131
aI43
aI194
aI59
aI237
aI173
aI21
aI63
aI146
aI75
aI30
aI175
aI57
aI26
aI24
aI47
aI19
aI0
aI92
aI106
aI215
aI11
aI191
aI159
aI117
aI23
aI241
aI148
aI222
aI163
aI219
aI170
aI55
aI64
aI68
aI147
aI203
aI97
aI232
aI5
aI20
aI213
aI216
aI254
aI32
aI34
aI123
aI240
aI151
aI231
aI107
aI96
aI208
aI249
aI133
aI137
aI90
aI257
aI116
aI126
aI153
aI128
aI18
aI85
aI166
aI22
aI44
aI7
aI224
aI4
aI210
aI48
aI129
aI212
aI49
aI205
aI46
aI6
aI8
aI171
aI142
aI110
aI188
aI87
aI250
aI228
aI165
aI66
aI164
aI236
aI41
aI79
aI246
aI248
aI187
aI181
aI51
aI124
aI58
aI199
aI143
aI260
aI99
aI169
aI76
aI258
aI235
aI156
aI16
aI209
aI82
aI10
aI60
aI108
aI112
aI243
aI94
aI13
aI256
aI54
aI83
aI67
aI138
aI251
aI160
aI239
aI104
aI27
aI73
aI167
aI56
aI255
aI28
aI176
aI65
aI204
aI214
aI218
aI162
aI36
aI184
aI177
aI226
aI136
aI225
aI42
aI186
aI154
aI244
aI206
aI233
aI242
aI247
aI238
aI259
aI221
aI198
aI91
aI144
aI62
aI155
aI115
aa(lp19
I189
aI113
aI42
aI35
aI51
aI88
aI24
aI38
aI137
aI9
aI251
aI149
aI107
aI155
aI12
aI196
aI127
aI104
aI134
aI209
aI239
aI50
aI226
aI256
aI125
aI130
aI21
aI33
aI232
aI112
aI76
aI142
aI40
aI210
aI200
aI224
aI57
aI77
aI120
aI173
aI47
aI248
aI29
aI198
aI170
aI185
aI8
aI62
aI121
aI73
aI64
aI45
aI68
aI152
aI13
aI60
aI182
aI162
aI106
aI87
aI63
aI49
aI215
aI158
aI238
aI6
aI214
aI199
aI108
aI126
aI201
aI18
aI252
aI10
aI165
aI231
aI157
aI183
aI46
aI82
aI55
aI180
aI65
aI179
aI257
aI223
aI28
aI233
aI90
aI261
aI227
aI131
aI260
aI84
aI197
aI3
aI190
aI27
aI61
aI188
aI116
aI0
aI160
aI156
aI22
aI203
aI31
aI207
aI193
aI122
aI246
aI159
aI139
aI136
aI53
aI58
aI172
aI115
aI184
aI98
aI249
aI245
aI253
aI128
aI78
aI247
aI67
aI94
aI93
aI205
aI85
aI222
aI219
aI141
aI95
aI168
aI74
aI69
aI17
aI133
aI235
aI236
aI202
aI96
aI102
aI140
aI187
aI250
aI171
aI72
aI32
aI240
aI153
aI19
aI37
aI129
aI1
aI204
aI103
aI169
aI195
aI144
aI56
aI99
aI20
aI221
aI174
aI216
aI117
aI39
aI34
aI119
aI161
aI75
aI79
aI218
aI146
aI192
aI2
aI150
aI23
aI14
aI44
aI244
aI26
aI167
aI89
aI124
aI135
aI151
aI242
aI243
aI16
aI234
aI166
aI163
aI262
aI194
aI7
aI164
aI110
aI30
aI138
aI48
aI54
aI59
aI175
aI123
aI105
aI145
aI237
aI66
aI186
aI213
aI4
aI100
aI154
aI177
aI230
aI211
aI36
aI109
aI86
aI41
aI132
aI83
aI80
aI91
aI11
aI148
aI81
aI43
aI208
aI217
aI25
aI181
aI97
aI259
aI212
aI220
aI254
aI71
aI118
aI176
aI52
aI229
aI225
aI111
aI191
aI258
aI241
aI206
aI70
aI228
aI5
aI178
aI92
aI143
aI114
aI255
aI147
aI101
aI15
aa(lp20
I166
aI259
aI78
aI57
aI94
aI149
aI72
aI106
aI230
aI13
aI160
aI163
aI9
aI64
aI168
aI231
aI228
aI257
aI39
aI262
aI245
aI95
aI221
aI170
aI74
aI139
aI98
aI180
aI22
aI119
aI253
aI27
aI148
aI124
aI51
aI7
aI187
aI161
aI197
aI71
aI102
aI227
aI235
aI55
aI32
aI25
aI127
aI243
aI15
aI199
aI48
aI118
aI52
aI68
aI248
aI113
aI122
aI54
aI145
aI3
aI183
aI2
aI217
aI129
aI107
aI5
aI156
aI194
aI196
aI66
aI220
aI110
aI218
aI210
aI8
aI202
aI105
aI246
aI251
aI56
aI100
aI34
aI36
aI215
aI178
aI185
aI225
aI207
aI61
aI150
aI1
aI236
aI69
aI144
aI258
aI14
aI208
aI159
aI123
aI146
aI136
aI63
aI109
aI142
aI158
aI198
aI190
aI201
aI169
aI11
aI75
aI140
aI76
aI31
aI24
aI99
aI42
aI60
aI19
aI234
aI112
aI212
aI12
aI73
aI114
aI90
aI37
aI111
aI43
aI260
aI87
aI211
aI89
aI244
aI229
aI120
aI97
aI21
aI84
aI65
aI16
aI165
aI174
aI261
aI173
aI91
aI92
aI28
aI171
aI135
aI223
aI239
aI188
aI17
aI117
aI23
aI195
aI189
aI93
aI177
aI133
aI252
aI70
aI45
aI242
aI132
aI191
aI47
aI162
aI104
aI85
aI126
aI125
aI20
aI137
aI154
aI172
aI38
aI147
aI49
aI164
aI10
aI4
aI6
aI138
aI67
aI193
aI30
aI179
aI53
aI237
aI131
aI59
aI88
aI216
aI241
aI40
aI96
aI255
aI26
aI204
aI18
aI83
aI238
aI0
aI232
aI175
aI101
aI224
aI81
aI254
aI182
aI116
aI152
aI35
aI58
aI121
aI82
aI214
aI155
aI151
aI233
aI209
aI167
aI50
aI200
aI141
aI157
aI222
aI247
aI192
aI186
aI203
aI62
aI33
aI153
aI29
aI213
aI176
aI130
aI79
aI181
aI184
aI41
aI143
aI128
aI219
aI46
aI250
aI80
aI205
aI103
aI44
aI86
aI226
aI108
aI256
aI77
aI240
aI134
aI206
aI249
aI115
aa.