(lp0
(lp1
I116
aI78
aI79
aI134
aI75
aI143
aI130
aI82
aI118
aI59
aI107
aI52
aI117
aI8
aI91
aI127
aI54
aI131
aI70
aI85
aI124
aI93
aI102
aI7
aI112
aI48
aI104
aI71
aI11
aI46
aI101
aI28
aI58
aI64
aI92
aI13
aI3
aI26
aI144
aI47
aI88
aI36
aI125
aI114
aI103
aI24
aI95
aI98
aI87
aI38
aI128
aI51
aI140
aI141
aI73
aI16
aI12
aI96
aI62
aI138
aI122
aI135
aI43
aI65
aI106
aI44
aI69
aI110
aI53
aI81
aI139
aI5
aI108
aI49
aI76
aI35
aI99
aI77
aI136
aI40
aI23
aI57
aI67
aI129
aI18
aI2
aI19
aI31
aI115
aI4
aI1
aI15
aI86
aI45
aI33
aI113
aI132
aI97
aI84
aI94
aI21
aI142
aI121
aI10
aI100
aI6
aI72
aI14
aI109
aI50
aI123
aI126
aI42
aI27
aI80
aI63
aI20
aI66
aI111
aI32
aI25
aI133
aI9
aI68
aI89
aI22
aI60
aI74
aI120
aI56
aI29
aI119
aI34
aI55
aI39
aI83
aI37
aI30
aI41
aI0
aI90
aI61
aI17
aI105
aI137
aa(lp2
I42
aI29
aI44
aI91
aI115
aI54
aI106
aI135
aI64
aI30
aI60
aI126
aI100
aI47
aI132
aI82
aI120
aI140
aI6
aI136
aI40
aI123
aI88
aI16
aI81
aI22
aI89
aI18
aI144
aI92
aI113
aI122
aI7
aI20
aI85
aI0
aI24
aI15
aI130
aI59
aI108
aI127
aI102
aI118
aI62
aI117
aI19
aI84
aI90
aI67
aI75
aI95
aI70
aI119
aI55
aI4
aI139
aI10
aI12
aI25
aI1
aI11
aI5
aI46
aI134
aI143
aI101
aI39
aI66
aI61
aI8
aI87
aI104
aI63
aI142
aI34
aI71
aI27
aI53
aI68
aI124
aI56
aI69
aI112
aI35
aI14
aI45
aI129
aI36
aI97
aI33
aI116
aI28
aI26
aI96
aI32
aI2
aI31
aI38
aI78
aI125
aI73
aI3
aI74
aI86
aI98
aI79
aI99
aI111
aI93
aI50
aI133
aI65
aI21
aI114
aI141
aI9
aI37
aI51
aI41
aI80
aI138
aI58
aI13
aI76
aI128
aI105
aI48
aI94
aI110
aI107
aI77
aI43
aI72
aI52
aI121
aI23
aI131
aI83
aI109
aI49
aI103
aI17
aI137
aI57
aa(lp3
I26
aI97
aI45
aI53
aI5
aI39
aI74
aI16
aI141
aI77
aI70
aI123
aI31
aI3
aI89
aI65
aI69
aI30
aI25
aI88
aI76
aI121
aI119
aI99
aI112
aI87
aI32
aI66
aI1
aI7
aI55
aI90
aI106
aI133
aI79
aI59
aI54
aI34
aI117
aI14
aI84
aI35
aI18
aI9
aI131
aI93
aI122
aI20
aI36
aI78
aI105
aI33
aI125
aI124
aI118
aI12
aI43
aI68
aI104
aI56
aI142
aI109
aI132
aI101
aI49
aI130
aI98
aI136
aI37
aI51
aI19
aI134
aI11
aI42
aI115
aI44
aI126
aI6
aI137
aI23
aI67
aI108
aI80
aI0
aI38
aI86
aI2
aI47
aI102
aI135
aI41
aI27
aI40
aI85
aI138
aI21
aI28
aI29
aI62
aI17
aI83
aI75
aI52
aI58
aI64
aI140
aI107
aI111
aI82
aI91
aI73
aI144
aI116
aI113
aI72
aI61
aI50
aI46
aI120
aI94
aI71
aI95
aI103
aI110
aI139
aI4
aI13
aI114
aI8
aI60
aI22
aI92
aI48
aI96
aI63
aI57
aI10
aI128
aI81
aI127
aI143
aI15
aI24
aI100
aI129
aa(lp4
I76
aI12
aI130
aI81
aI68
aI29
aI137
aI108
aI46
aI124
aI21
aI30
aI63
aI33
aI70
aI116
aI119
aI100
aI55
aI96
aI128
aI49
aI136
aI126
aI135
aI11
aI144
aI17
aI61
aI71
aI38
aI94
aI24
aI142
aI54
aI112
aI1
aI58
aI117
aI18
aI80
aI23
aI118
aI36
aI82
aI90
aI85
aI59
aI86
aI104
aI60
aI62
aI16
aI73
aI42
aI69
aI2
aI22
aI121
aI10
aI101
aI122
aI40
aI74
aI75
aI48
aI44
aI98
aI103
aI106
aI8
aI84
aI5
aI14
aI56
aI51
aI26
aI52
aI115
aI93
aI127
aI9
aI107
aI131
aI50
aI37
aI67
aI133
aI28
aI7
aI6
aI72
aI57
aI97
aI138
aI83
aI3
aI143
aI32
aI25
aI132
aI140
aI141
aI99
aI91
aI47
aI129
aI92
aI134
aI4
aI66
aI110
aI109
aI125
aI31
aI111
aI45
aI114
aI65
aI19
aI102
aI88
aI79
aI139
aI13
aI39
aI123
aI34
aI78
aI87
aI77
aI35
aI43
aI41
aI89
aI27
aI53
aI105
aI0
aI64
aI113
aI15
aI20
aI95
aI120
aa(lp5
I13
aI3
aI20
aI132
aI86
aI143
aI80
aI98
aI89
aI33
aI28
aI24
aI138
aI100
aI4
aI122
aI52
aI51
aI108
aI18
aI129
aI118
aI55
aI139
aI103
aI68
aI34
aI90
aI130
aI27
aI58
aI140
aI25
aI121
aI127
aI84
aI0
aI144
aI22
aI99
aI32
aI97
aI5
aI87
aI41
aI112
aI113
aI54
aI141
aI106
aI63
aI44
aI117
aI71
aI19
aI12
aI111
aI116
aI107
aI123
aI45
aI60
aI78
aI62
aI82
aI37
aI88
aI79
aI40
aI128
aI59
aI137
aI30
aI2
aI95
aI46
aI61
aI101
aI66
aI39
aI49
aI17
aI57
aI26
aI38
aI47
aI6
aI74
aI104
aI43
aI69
aI35
aI136
aI83
aI16
aI76
aI65
aI126
aI114
aI135
aI1
aI21
aI125
aI120
aI7
aI124
aI11
aI81
aI91
aI75
aI50
aI119
aI23
aI105
aI115
aI72
aI67
aI73
aI77
aI93
aI102
aI70
aI31
aI64
aI134
aI94
aI109
aI42
aI29
aI8
aI131
aI48
aI92
aI133
aI85
aI142
aI15
aI10
aI96
aI14
aI53
aI9
aI110
aI36
aI56
aa(lp6
I16
aI114
aI67
aI83
aI4
aI24
aI72
aI130
aI121
aI140
aI65
aI40
aI110
aI119
aI100
aI6
aI131
aI87
aI133
aI141
aI99
aI49
aI58
aI46
aI90
aI103
aI53
aI13
aI84
aI38
aI35
aI112
aI18
aI79
aI106
aI55
aI138
aI2
aI20
aI85
aI78
aI144
aI143
aI42
aI125
aI136
aI61
aI54
aI44
aI96
aI93
aI57
aI88
aI15
aI98
aI3
aI52
aI80
aI11
aI81
aI17
aI21
aI25
aI116
aI27
aI59
aI51
aI34
aI94
aI43
aI39
aI104
aI109
aI86
aI23
aI69
aI137
aI36
aI142
aI28
aI8
aI126
aI9
aI19
aI5
aI41
aI117
aI82
aI63
aI30
aI22
aI120
aI10
aI47
aI75
aI122
aI107
aI134
aI66
aI127
aI0
aI92
aI105
aI62
aI56
aI33
aI48
aI76
aI26
aI139
aI108
aI29
aI128
aI12
aI129
aI118
aI89
aI97
aI60
aI37
aI45
aI115
aI50
aI124
aI68
aI132
aI91
aI14
aI64
aI95
aI123
aI111
aI7
aI73
aI70
aI102
aI74
aI1
aI71
aI113
aI32
aI135
aI77
aI31
aI101
aa(lp7
I71
aI129
aI102
aI136
aI81
aI124
aI19
aI89
aI112
aI110
aI4
aI88
aI128
aI11
aI93
aI79
aI3
aI80
aI113
aI67
aI7
aI41
aI16
aI83
aI14
aI65
aI132
aI58
aI135
aI115
aI144
aI98
aI95
aI72
aI52
aI121
aI82
aI62
aI63
aI103
aI53
aI137
aI48
aI18
aI114
aI55
aI104
aI92
aI76
aI86
aI117
aI12
aI31
aI123
aI78
aI77
aI74
aI105
aI21
aI108
aI22
aI90
aI61
aI101
aI119
aI96
aI43
aI70
aI29
aI100
aI39
aI143
aI9
aI25
aI54
aI60
aI1
aI2
aI10
aI8
aI44
aI47
aI24
aI106
aI111
aI6
aI28
aI97
aI127
aI109
aI107
aI42
aI37
aI20
aI15
aI33
aI23
aI17
aI131
aI35
aI91
aI38
aI32
aI122
aI139
aI45
aI46
aI99
aI57
aI64
aI75
aI142
aI84
aI66
aI0
aI125
aI126
aI5
aI130
aI141
aI68
aI13
aI26
aI27
aI116
aI69
aI40
aI138
aI73
aI118
aI34
aI134
aI56
aI120
aI85
aI133
aI36
aI30
aI49
aI87
aI140
aI51
aI59
aI94
aI50
aa(lp8
I106
aI35
aI16
aI56
aI40
aI135
aI4
aI78
aI19
aI107
aI51
aI0
aI44
aI27
aI143
aI71
aI142
aI17
aI75
aI120
aI67
aI90
aI105
aI81
aI137
aI66
aI140
aI79
aI21
aI108
aI130
aI59
aI132
aI111
aI24
aI109
aI124
aI110
aI73
aI15
aI11
aI83
aI1
aI134
aI14
aI49
aI93
aI10
aI133
aI129
aI70
aI102
aI76
aI88
aI91
aI57
aI63
aI23
aI95
aI52
aI41
aI48
aI97
aI34
aI53
aI65
aI25
aI114
aI139
aI118
aI92
aI13
aI84
aI12
aI55
aI99
aI87
aI112
aI2
aI38
aI86
aI119
aI116
aI45
aI32
aI131
aI5
aI128
aI100
aI123
aI136
aI3
aI28
aI103
aI80
aI144
aI74
aI26
aI47
aI77
aI37
aI89
aI121
aI58
aI68
aI117
aI20
aI96
aI62
aI98
aI42
aI126
aI101
aI22
aI72
aI18
aI54
aI7
aI43
aI36
aI29
aI104
aI30
aI82
aI46
aI127
aI64
aI94
aI115
aI61
aI39
aI138
aI8
aI33
aI9
aI141
aI31
aI125
aI60
aI69
aI113
aI85
aI6
aI122
aI50
aa(lp9
I70
aI43
aI7
aI24
aI63
aI49
aI6
aI51
aI130
aI122
aI139
aI23
aI26
aI28
aI59
aI131
aI99
aI64
aI93
aI77
aI36
aI19
aI32
aI94
aI98
aI10
aI58
aI31
aI109
aI125
aI97
aI123
aI66
aI107
aI61
aI69
aI67
aI86
aI137
aI135
aI20
aI143
aI45
aI15
aI9
aI85
aI80
aI112
aI83
aI65
aI33
aI73
aI57
aI92
aI105
aI44
aI111
aI75
aI56
aI88
aI132
aI52
aI29
aI54
aI25
aI22
aI116
aI89
aI11
aI16
aI55
aI124
aI53
aI110
aI8
aI96
aI115
aI46
aI118
aI76
aI114
aI39
aI48
aI74
aI37
aI78
aI82
aI68
aI47
aI50
aI72
aI13
aI129
aI35
aI21
aI0
aI140
aI141
aI128
aI90
aI134
aI127
aI133
aI30
aI102
aI2
aI79
aI91
aI119
aI17
aI12
aI3
aI104
aI100
aI71
aI81
aI101
aI113
aI106
aI41
aI62
aI18
aI117
aI126
aI60
aI144
aI136
aI87
aI108
aI4
aI120
aI27
aI5
aI42
aI138
aI121
aI40
aI84
aI1
aI142
aI34
aI103
aI38
aI95
aI14
aa(lp10
I94
aI20
aI38
aI65
aI42
aI50
aI81
aI118
aI122
aI140
aI5
aI32
aI87
aI75
aI72
aI68
aI47
aI41
aI7
aI138
aI139
aI53
aI30
aI114
aI112
aI56
aI135
aI91
aI13
aI85
aI26
aI105
aI49
aI73
aI25
aI45
aI125
aI37
aI77
aI40
aI144
aI98
aI136
aI10
aI121
aI134
aI28
aI82
aI36
aI17
aI103
aI34
aI61
aI57
aI108
aI83
aI137
aI70
aI132
aI24
aI96
aI19
aI126
aI71
aI6
aI44
aI69
aI4
aI97
aI9
aI100
aI31
aI86
aI113
aI130
aI0
aI39
aI2
aI115
aI16
aI123
aI46
aI101
aI23
aI3
aI143
aI62
aI119
aI8
aI58
aI141
aI12
aI35
aI89
aI127
aI22
aI54
aI106
aI88
aI80
aI131
aI90
aI29
aI60
aI59
aI92
aI1
aI14
aI51
aI43
aI48
aI109
aI55
aI124
aI117
aI120
aI84
aI74
aI116
aI78
aI52
aI142
aI129
aI33
aI76
aI133
aI99
aI27
aI21
aI95
aI102
aI64
aI66
aI104
aI93
aI11
aI111
aI110
aI15
aI18
aI67
aI107
aI63
aI128
aI79
aa(lp11
I88
aI76
aI67
aI113
aI117
aI71
aI135
aI94
aI41
aI80
aI138
aI127
aI66
aI21
aI142
aI1
aI106
aI134
aI85
aI51
aI124
aI18
aI15
aI110
aI83
aI7
aI95
aI46
aI37
aI6
aI9
aI47
aI62
aI108
aI53
aI144
aI27
aI40
aI77
aI69
aI36
aI86
aI92
aI2
aI125
aI141
aI143
aI48
aI20
aI79
aI73
aI23
aI98
aI81
aI59
aI60
aI50
aI49
aI30
aI63
aI112
aI116
aI93
aI74
aI78
aI61
aI97
aI139
aI13
aI3
aI33
aI22
aI90
aI99
aI8
aI91
aI42
aI5
aI140
aI105
aI55
aI131
aI136
aI45
aI4
aI11
aI38
aI25
aI26
aI87
aI84
aI107
aI115
aI109
aI19
aI122
aI44
aI17
aI129
aI103
aI100
aI128
aI68
aI75
aI56
aI0
aI123
aI114
aI28
aI14
aI52
aI102
aI130
aI72
aI104
aI10
aI96
aI119
aI132
aI89
aI12
aI24
aI64
aI32
aI121
aI16
aI39
aI31
aI82
aI34
aI101
aI111
aI43
aI126
aI118
aI57
aI137
aI120
aI133
aI35
aI70
aI54
aI29
aI58
aI65
aa(lp12
I2
aI111
aI61
aI114
aI7
aI138
aI28
aI37
aI129
aI74
aI22
aI125
aI108
aI90
aI21
aI39
aI142
aI105
aI35
aI122
aI116
aI10
aI107
aI77
aI12
aI45
aI25
aI36
aI67
aI139
aI18
aI40
aI64
aI130
aI84
aI100
aI68
aI97
aI98
aI127
aI119
aI53
aI43
aI30
aI123
aI47
aI93
aI48
aI4
aI8
aI82
aI75
aI73
aI63
aI9
aI132
aI33
aI60
aI27
aI20
aI87
aI16
aI15
aI41
aI1
aI51
aI31
aI124
aI69
aI19
aI79
aI112
aI55
aI137
aI57
aI115
aI126
aI5
aI120
aI13
aI62
aI49
aI26
aI32
aI141
aI91
aI50
aI81
aI3
aI102
aI134
aI136
aI14
aI95
aI70
aI113
aI85
aI71
aI66
aI76
aI65
aI0
aI118
aI89
aI56
aI78
aI17
aI86
aI54
aI106
aI99
aI58
aI144
aI52
aI72
aI131
aI103
aI128
aI11
aI46
aI59
aI83
aI104
aI143
aI140
aI101
aI24
aI29
aI42
aI109
aI121
aI117
aI23
aI34
aI96
aI133
aI6
aI135
aI110
aI92
aI38
aI94
aI88
aI80
aI44
aa(lp13
I132
aI101
aI95
aI78
aI22
aI25
aI140
aI8
aI120
aI118
aI49
aI108
aI0
aI68
aI119
aI66
aI80
aI133
aI27
aI39
aI87
aI40
aI45
aI96
aI6
aI114
aI1
aI56
aI137
aI127
aI55
aI131
aI94
aI103
aI33
aI141
aI67
aI82
aI32
aI134
aI62
aI79
aI77
aI81
aI69
aI107
aI116
aI15
aI48
aI3
aI73
aI19
aI110
aI26
aI138
aI65
aI28
aI126
aI129
aI143
aI5
aI124
aI85
aI17
aI43
aI121
aI97
aI71
aI93
aI105
aI50
aI7
aI35
aI29
aI86
aI21
aI142
aI61
aI139
aI88
aI31
aI64
aI76
aI104
aI47
aI54
aI24
aI42
aI136
aI38
aI2
aI72
aI41
aI23
aI37
aI90
aI128
aI30
aI4
aI92
aI36
aI100
aI130
aI89
aI18
aI46
aI117
aI111
aI144
aI60
aI53
aI113
aI109
aI14
aI34
aI99
aI106
aI74
aI115
aI102
aI20
aI58
aI98
aI10
aI75
aI70
aI125
aI12
aI122
aI9
aI11
aI57
aI52
aI83
aI16
aI135
aI51
aI63
aI13
aI91
aI59
aI84
aI123
aI44
aI112
aa(lp14
I85
aI70
aI46
aI101
aI29
aI33
aI39
aI138
aI82
aI37
aI41
aI10
aI119
aI143
aI93
aI76
aI118
aI94
aI47
aI62
aI50
aI142
aI92
aI73
aI95
aI2
aI106
aI4
aI38
aI137
aI51
aI64
aI12
aI65
aI66
aI69
aI115
aI44
aI125
aI56
aI63
aI17
aI11
aI136
aI14
aI18
aI5
aI135
aI77
aI24
aI74
aI88
aI117
aI86
aI59
aI141
aI132
aI42
aI107
aI122
aI31
aI127
aI140
aI130
aI126
aI0
aI131
aI81
aI52
aI6
aI25
aI67
aI116
aI49
aI80
aI8
aI61
aI7
aI79
aI91
aI60
aI83
aI102
aI45
aI120
aI105
aI58
aI68
aI1
aI32
aI133
aI15
aI98
aI72
aI23
aI36
aI113
aI121
aI89
aI96
aI43
aI34
aI3
aI108
aI13
aI114
aI124
aI112
aI9
aI100
aI20
aI75
aI134
aI90
aI54
aI110
aI55
aI57
aI40
aI53
aI84
aI99
aI123
aI21
aI104
aI139
aI144
aI26
aI28
aI19
aI35
aI97
aI27
aI71
aI48
aI128
aI22
aI129
aI103
aI16
aI109
aI111
aI78
aI30
aI87
aa(lp15
I6
aI107
aI127
aI55
aI105
aI7
aI118
aI98
aI64
aI13
aI116
aI27
aI39
aI24
aI66
aI97
aI0
aI128
aI112
aI10
aI4
aI67
aI82
aI94
aI124
aI81
aI63
aI84
aI90
aI61
aI95
aI9
aI28
aI58
aI92
aI2
aI115
aI29
aI119
aI101
aI117
aI137
aI130
aI102
aI41
aI3
aI121
aI34
aI71
aI86
aI141
aI108
aI123
aI38
aI80
aI11
aI89
aI133
aI120
aI65
aI122
aI93
aI132
aI40
aI44
aI57
aI74
aI144
aI43
aI16
aI68
aI126
aI78
aI135
aI5
aI50
aI136
aI106
aI87
aI33
aI91
aI48
aI139
aI79
aI129
aI70
aI76
aI59
aI96
aI140
aI104
aI26
aI52
aI99
aI20
aI25
aI36
aI18
aI138
aI69
aI51
aI111
aI23
aI46
aI21
aI42
aI19
aI131
aI110
aI73
aI62
aI88
aI47
aI113
aI125
aI1
aI15
aI17
aI56
aI114
aI100
aI75
aI143
aI12
aI32
aI37
aI8
aI109
aI60
aI31
aI85
aI77
aI53
aI45
aI103
aI14
aI49
aI134
aI35
aI83
aI72
aI22
aI54
aI142
aI30
aa(lp16
I119
aI103
aI137
aI120
aI45
aI95
aI102
aI116
aI12
aI92
aI62
aI131
aI82
aI109
aI126
aI4
aI55
aI51
aI5
aI25
aI89
aI34
aI59
aI84
aI57
aI46
aI49
aI107
aI2
aI54
aI142
aI6
aI30
aI22
aI75
aI16
aI118
aI21
aI26
aI66
aI29
aI43
aI27
aI52
aI13
aI104
aI18
aI141
aI128
aI14
aI133
aI94
aI79
aI144
aI80
aI96
aI20
aI143
aI88
aI136
aI121
aI122
aI42
aI1
aI58
aI91
aI35
aI72
aI73
aI41
aI114
aI97
aI106
aI138
aI113
aI32
aI87
aI76
aI85
aI70
aI69
aI111
aI48
aI117
aI99
aI140
aI65
aI130
aI24
aI93
aI67
aI71
aI90
aI105
aI36
aI108
aI98
aI81
aI129
aI53
aI37
aI44
aI139
aI0
aI112
aI9
aI60
aI17
aI40
aI101
aI28
aI78
aI86
aI125
aI68
aI124
aI7
aI8
aI77
aI56
aI83
aI100
aI33
aI11
aI63
aI31
aI135
aI50
aI115
aI127
aI15
aI74
aI123
aI110
aI19
aI64
aI38
aI134
aI47
aI61
aI39
aI132
aI23
aI10
aI3
aa(lp17
I41
aI56
aI5
aI1
aI114
aI116
aI128
aI109
aI112
aI105
aI11
aI13
aI69
aI67
aI65
aI97
aI77
aI76
aI8
aI36
aI49
aI72
aI124
aI95
aI15
aI39
aI22
aI121
aI125
aI101
aI60
aI4
aI130
aI19
aI18
aI27
aI59
aI102
aI31
aI111
aI21
aI90
aI34
aI100
aI119
aI71
aI10
aI84
aI62
aI45
aI64
aI133
aI137
aI98
aI86
aI74
aI58
aI75
aI23
aI106
aI78
aI87
aI37
aI89
aI93
aI50
aI12
aI80
aI6
aI91
aI88
aI52
aI83
aI25
aI144
aI96
aI139
aI94
aI110
aI33
aI63
aI70
aI28
aI42
aI30
aI16
aI53
aI43
aI120
aI35
aI103
aI134
aI20
aI126
aI3
aI85
aI24
aI54
aI135
aI32
aI117
aI108
aI107
aI131
aI55
aI141
aI81
aI136
aI57
aI127
aI2
aI122
aI38
aI44
aI40
aI132
aI138
aI48
aI123
aI82
aI61
aI29
aI115
aI118
aI113
aI26
aI73
aI143
aI99
aI51
aI14
aI17
aI68
aI140
aI66
aI79
aI129
aI46
aI104
aI0
aI92
aI7
aI142
aI9
aI47
aa(lp18
I16
aI57
aI102
aI65
aI112
aI45
aI71
aI127
aI39
aI92
aI99
aI53
aI35
aI117
aI64
aI108
aI77
aI90
aI125
aI88
aI141
aI36
aI130
aI38
aI44
aI61
aI5
aI25
aI118
aI131
aI2
aI98
aI120
aI69
aI43
aI73
aI111
aI12
aI135
aI74
aI7
aI13
aI115
aI134
aI75
aI4
aI41
aI3
aI34
aI10
aI32
aI31
aI116
aI80
aI129
aI114
aI54
aI84
aI89
aI133
aI96
aI11
aI37
aI85
aI119
aI122
aI66
aI86
aI82
aI0
aI47
aI51
aI28
aI104
aI142
aI140
aI9
aI55
aI70
aI18
aI68
aI110
aI132
aI40
aI143
aI30
aI100
aI94
aI29
aI101
aI76
aI95
aI144
aI22
aI106
aI42
aI83
aI26
aI137
aI46
aI58
aI20
aI49
aI14
aI138
aI62
aI52
aI126
aI136
aI21
aI1
aI78
aI97
aI8
aI81
aI128
aI72
aI123
aI107
aI139
aI23
aI109
aI59
aI33
aI93
aI103
aI124
aI105
aI6
aI15
aI121
aI79
aI50
aI60
aI91
aI56
aI24
aI19
aI17
aI113
aI27
aI67
aI48
aI87
aI63
aa(lp19
I71
aI6
aI82
aI101
aI86
aI24
aI139
aI28
aI0
aI94
aI100
aI21
aI31
aI11
aI132
aI80
aI34
aI104
aI122
aI127
aI95
aI130
aI78
aI107
aI8
aI106
aI7
aI72
aI89
aI70
aI74
aI92
aI25
aI48
aI134
aI66
aI112
aI4
aI52
aI83
aI111
aI64
aI110
aI51
aI22
aI77
aI62
aI99
aI140
aI109
aI46
aI124
aI1
aI38
aI93
aI96
aI45
aI37
aI43
aI12
aI54
aI123
aI60
aI19
aI18
aI44
aI47
aI67
aI13
aI3
aI103
aI29
aI125
aI81
aI98
aI17
aI32
aI15
aI16
aI56
aI57
aI137
aI142
aI126
aI90
aI35
aI88
aI108
aI102
aI5
aI63
aI39
aI91
aI27
aI14
aI129
aI121
aI20
aI59
aI76
aI26
aI114
aI135
aI131
aI120
aI85
aI49
aI65
aI50
aI79
aI144
aI119
aI128
aI75
aI10
aI53
aI73
aI2
aI97
aI87
aI58
aI23
aI61
aI113
aI33
aI115
aI138
aI133
aI118
aI84
aI36
aI41
aI141
aI117
aI40
aI42
aI136
aI105
aI116
aI69
aI68
aI9
aI143
aI30
aI55
aa(lp20
I31
aI75
aI9
aI68
aI33
aI127
aI76
aI120
aI54
aI51
aI71
aI59
aI16
aI19
aI20
aI39
aI139
aI122
aI89
aI52
aI47
aI0
aI78
aI99
aI130
aI69
aI83
aI103
aI128
aI58
aI84
aI142
aI62
aI129
aI15
aI21
aI18
aI1
aI118
aI56
aI2
aI42
aI82
aI10
aI12
aI7
aI113
aI133
aI22
aI102
aI73
aI67
aI27
aI97
aI91
aI141
aI125
aI108
aI36
aI112
aI135
aI87
aI70
aI109
aI34
aI123
aI57
aI66
aI100
aI37
aI116
aI143
aI8
aI26
aI50
aI49
aI46
aI132
aI131
aI45
aI64
aI24
aI65
aI105
aI23
aI134
aI104
aI5
aI74
aI124
aI40
aI86
aI25
aI106
aI137
aI107
aI79
aI117
aI88
aI60
aI32
aI85
aI96
aI114
aI140
aI90
aI119
aI126
aI48
aI61
aI41
aI43
aI44
aI4
aI13
aI81
aI138
aI14
aI136
aI121
aI30
aI63
aI98
aI115
aI35
aI101
aI110
aI29
aI144
aI17
aI3
aI72
aI53
aI6
aI80
aI11
aI38
aI93
aI28
aI94
aI55
aI111
aI77
aI92
aI95
aa.