(lp0
(lp1
I8
aI5
aI17
aI18
aI22
aI29
aI27
aI21
aI9
aI38
aI13
aI47
aI44
aI31
aI35
aI40
aI20
aI39
aI15
aI0
aI6
aI46
aI4
aI37
aI10
aI3
aI42
aI26
aI28
aI45
aI14
aI16
aI25
aI19
aI11
aI33
aI48
aI41
aI30
aI32
aI24
aI34
aI1
aI12
aI36
aI43
aI23
aI7
aI2
aa(lp2
I8
aI19
aI7
aI41
aI13
aI17
aI9
aI29
aI48
aI30
aI10
aI1
aI20
aI47
aI21
aI34
aI36
aI22
aI14
aI24
aI23
aI25
aI35
aI42
aI6
aI32
aI0
aI3
aI12
aI45
aI15
aI26
aI28
aI27
aI46
aI18
aI44
aI38
aI4
aI16
aI43
aI39
aI11
aI40
aI33
aI2
aI31
aI37
aI5
aa(lp3
I39
aI14
aI31
aI37
aI15
aI2
aI46
aI13
aI5
aI42
aI10
aI44
aI33
aI41
aI27
aI3
aI0
aI6
aI7
aI45
aI4
aI25
aI34
aI19
aI40
aI38
aI47
aI22
aI48
aI35
aI26
aI23
aI43
aI18
aI11
aI8
aI16
aI24
aI20
aI12
aI28
aI9
aI36
aI32
aI29
aI1
aI17
aI30
aI21
aa(lp4
I21
aI1
aI4
aI19
aI20
aI15
aI14
aI6
aI30
aI34
aI12
aI7
aI48
aI31
aI17
aI41
aI24
aI39
aI29
aI25
aI3
aI22
aI33
aI0
aI44
aI32
aI36
aI16
aI46
aI27
aI5
aI10
aI37
aI42
aI45
aI11
aI23
aI28
aI8
aI40
aI18
aI43
aI2
aI38
aI9
aI13
aI35
aI26
aI47
aa(lp5
I7
aI16
aI6
aI5
aI8
aI2
aI20
aI41
aI23
aI24
aI43
aI4
aI13
aI9
aI31
aI27
aI47
aI45
aI40
aI14
aI39
aI35
aI36
aI3
aI18
aI33
aI12
aI25
aI17
aI38
aI28
aI32
aI46
aI1
aI48
aI15
aI34
aI0
aI37
aI10
aI30
aI22
aI11
aI44
aI19
aI26
aI29
aI21
aI42
aa(lp6
I32
aI46
aI28
aI44
aI16
aI5
aI1
aI29
aI20
aI41
aI33
aI10
aI18
aI17
aI24
aI23
aI26
aI7
aI25
aI19
aI2
aI22
aI39
aI43
aI0
aI30
aI37
aI47
aI11
aI45
aI8
aI6
aI35
aI42
aI38
aI40
aI14
aI15
aI13
aI21
aI4
aI27
aI34
aI36
aI9
aI12
aI3
aI31
aI48
aa(lp7
I21
aI11
aI19
aI39
aI42
aI28
aI20
aI13
aI0
aI36
aI4
aI17
aI6
aI30
aI18
aI5
aI44
aI10
aI25
aI48
aI23
aI46
aI8
aI45
aI14
aI34
aI40
aI32
aI16
aI27
aI37
aI9
aI3
aI24
aI22
aI1
aI29
aI31
aI33
aI26
aI7
aI35
aI2
aI38
aI15
aI41
aI43
aI12
aI47
aa(lp8
I9
aI4
aI43
aI47
aI34
aI21
aI40
aI44
aI7
aI18
aI0
aI15
aI41
aI25
aI10
aI22
aI28
aI39
aI35
aI23
aI26
aI24
aI17
aI20
aI32
aI36
aI16
aI11
aI2
aI31
aI1
aI12
aI5
aI38
aI46
aI45
aI14
aI3
aI33
aI6
aI30
aI13
aI29
aI37
aI48
aI19
aI27
aI42
aI8
aa(lp9
I22
aI43
aI47
aI12
aI19
aI25
aI35
aI20
aI33
aI2
aI41
aI14
aI18
aI16
aI9
aI28
aI23
aI3
aI4
aI15
aI0
aI24
aI17
aI39
aI7
aI34
aI29
aI27
aI37
aI30
aI42
aI26
aI1
aI32
aI13
aI8
aI40
aI38
aI31
aI11
aI45
aI48
aI46
aI6
aI21
aI10
aI44
aI36
aI5
aa(lp10
I27
aI35
aI43
aI45
aI41
aI46
aI31
aI1
aI14
aI48
aI16
aI18
aI7
aI29
aI5
aI38
aI34
aI3
aI15
aI19
aI47
aI42
aI24
aI8
aI40
aI39
aI26
aI37
aI36
aI30
aI12
aI9
aI11
aI44
aI10
aI23
aI17
aI0
aI33
aI32
aI21
aI20
aI2
aI28
aI4
aI6
aI13
aI25
aI22
aa(lp11
I16
aI11
aI13
aI33
aI48
aI1
aI17
aI27
aI35
aI42
aI41
aI29
aI18
aI37
aI12
aI9
aI43
aI3
aI32
aI5
aI30
aI38
aI23
aI24
aI7
aI40
aI20
aI28
aI47
aI22
aI19
aI25
aI26
aI31
aI45
aI36
aI6
aI8
aI14
aI15
aI2
aI21
aI10
aI46
aI4
aI39
aI0
aI44
aI34
aa(lp12
I47
aI41
aI20
aI18
aI35
aI40
aI11
aI16
aI26
aI25
aI23
aI42
aI1
aI37
aI10
aI17
aI30
aI6
aI36
aI39
aI12
aI13
aI4
aI31
aI9
aI0
aI24
aI19
aI45
aI38
aI15
aI3
aI21
aI22
aI46
aI5
aI2
aI44
aI14
aI29
aI32
aI33
aI43
aI7
aI34
aI8
aI48
aI28
aI27
aa(lp13
I37
aI1
aI40
aI11
aI19
aI43
aI29
aI25
aI18
aI4
aI26
aI34
aI48
aI13
aI42
aI39
aI12
aI22
aI16
aI23
aI17
aI24
aI47
aI31
aI9
aI38
aI35
aI44
aI30
aI5
aI20
aI33
aI0
aI2
aI14
aI3
aI32
aI36
aI41
aI27
aI8
aI7
aI45
aI21
aI15
aI6
aI28
aI46
aI10
aa(lp14
I14
aI1
aI43
aI25
aI44
aI12
aI3
aI21
aI31
aI33
aI6
aI2
aI15
aI23
aI27
aI41
aI39
aI19
aI38
aI48
aI5
aI20
aI32
aI18
aI29
aI37
aI17
aI9
aI28
aI0
aI4
aI8
aI47
aI13
aI10
aI46
aI36
aI7
aI40
aI26
aI35
aI24
aI34
aI11
aI22
aI16
aI30
aI42
aI45
aa(lp15
I12
aI46
aI22
aI44
aI38
aI2
aI42
aI3
aI27
aI31
aI13
aI45
aI24
aI33
aI32
aI30
aI36
aI23
aI7
aI20
aI5
aI28
aI34
aI17
aI39
aI37
aI25
aI14
aI6
aI4
aI1
aI21
aI35
aI29
aI48
aI16
aI26
aI47
aI40
aI9
aI8
aI41
aI10
aI18
aI11
aI43
aI19
aI0
aI15
aa(lp16
I36
aI48
aI33
aI16
aI26
aI10
aI47
aI23
aI41
aI35
aI37
aI3
aI1
aI22
aI43
aI32
aI29
aI15
aI9
aI0
aI20
aI27
aI25
aI30
aI21
aI14
aI19
aI44
aI34
aI2
aI40
aI12
aI28
aI24
aI5
aI18
aI39
aI31
aI6
aI13
aI4
aI45
aI8
aI42
aI38
aI7
aI11
aI17
aI46
aa(lp17
I46
aI47
aI9
aI36
aI5
aI17
aI38
aI3
aI18
aI15
aI35
aI8
aI41
aI28
aI23
aI6
aI1
aI25
aI39
aI26
aI16
aI2
aI21
aI37
aI14
aI30
aI20
aI22
aI4
aI24
aI27
aI45
aI43
aI29
aI11
aI19
aI12
aI10
aI31
aI44
aI13
aI34
aI33
aI42
aI48
aI40
aI7
aI32
aI0
aa(lp18
I13
aI48
aI8
aI6
aI36
aI16
aI20
aI17
aI45
aI10
aI28
aI12
aI46
aI31
aI33
aI26
aI47
aI1
aI40
aI7
aI18
aI21
aI35
aI11
aI3
aI32
aI39
aI34
aI23
aI41
aI44
aI4
aI27
aI22
aI15
aI30
aI42
aI5
aI24
aI25
aI29
aI19
aI2
aI14
aI37
aI0
aI43
aI9
aI38
aa(lp19
I38
aI1
aI11
aI21
aI44
aI33
aI14
aI34
aI46
aI43
aI35
aI5
aI23
aI27
aI26
aI47
aI8
aI39
aI31
aI30
aI20
aI10
aI41
aI22
aI48
aI4
aI15
aI17
aI18
aI37
aI42
aI13
aI6
aI3
aI28
aI29
aI0
aI19
aI45
aI7
aI2
aI9
aI16
aI40
aI32
aI25
aI24
aI12
aI36
aa(lp20
I45
aI30
aI5
aI7
aI9
aI13
aI32
aI41
aI34
aI0
aI44
aI36
aI23
aI25
aI40
aI28
aI46
aI22
aI1
aI24
aI3
aI31
aI47
aI12
aI38
aI27
aI10
aI37
aI18
aI20
aI33
aI19
aI6
aI48
aI15
aI16
aI35
aI8
aI43
aI39
aI14
aI11
aI29
aI42
aI26
aI21
aI2
aI4
aI17
aa.