(lp0
(lp1
I8
aI34
aI18
aI29
aI37
aI19
aI25
aI17
aI48
aI41
aI32
aI20
aI4
aI11
aI10
aI46
aI47
aI0
aI27
aI35
aI24
aI5
aI15
aI45
aI16
aI1
aI49
aI31
aI21
aI44
aI30
aI9
aI39
aI12
aI43
aI28
aI2
aI7
aI40
aI38
aI36
aI6
aI33
aI3
aI23
aI26
aI22
aI42
aI13
aI14
aa(lp2
I31
aI38
aI33
aI46
aI25
aI37
aI43
aI0
aI6
aI13
aI8
aI23
aI44
aI32
aI48
aI24
aI27
aI16
aI40
aI41
aI14
aI17
aI18
aI34
aI45
aI10
aI2
aI47
aI35
aI39
aI28
aI15
aI29
aI49
aI19
aI1
aI26
aI7
aI21
aI30
aI36
aI11
aI20
aI22
aI5
aI12
aI3
aI9
aI42
aI4
aa(lp3
I21
aI28
aI3
aI24
aI19
aI6
aI11
aI47
aI9
aI46
aI39
aI18
aI12
aI41
aI27
aI16
aI44
aI42
aI22
aI4
aI23
aI45
aI34
aI25
aI13
aI15
aI26
aI40
aI10
aI17
aI8
aI49
aI14
aI48
aI36
aI32
aI1
aI30
aI38
aI5
aI0
aI35
aI2
aI37
aI29
aI31
aI20
aI43
aI33
aI7
aa(lp4
I47
aI8
aI34
aI15
aI5
aI35
aI7
aI24
aI42
aI2
aI28
aI12
aI46
aI4
aI38
aI40
aI27
aI3
aI49
aI31
aI30
aI39
aI41
aI19
aI43
aI14
aI21
aI45
aI9
aI44
aI17
aI16
aI11
aI18
aI1
aI22
aI33
aI6
aI10
aI26
aI25
aI13
aI48
aI23
aI20
aI36
aI32
aI29
aI0
aI37
aa(lp5
I21
aI15
aI2
aI22
aI1
aI43
aI39
aI33
aI18
aI41
aI11
aI48
aI24
aI5
aI19
aI40
aI44
aI29
aI49
aI9
aI3
aI30
aI17
aI12
aI20
aI27
aI8
aI47
aI10
aI16
aI32
aI23
aI38
aI6
aI42
aI14
aI45
aI37
aI0
aI7
aI28
aI31
aI46
aI36
aI34
aI13
aI35
aI26
aI4
aI25
aa(lp6
I19
aI20
aI12
aI43
aI21
aI17
aI40
aI0
aI28
aI15
aI33
aI26
aI30
aI3
aI11
aI9
aI6
aI37
aI4
aI23
aI8
aI48
aI34
aI13
aI29
aI22
aI49
aI32
aI14
aI46
aI27
aI2
aI18
aI41
aI35
aI36
aI39
aI10
aI38
aI44
aI47
aI25
aI5
aI31
aI7
aI1
aI24
aI42
aI45
aI16
aa(lp7
I44
aI33
aI2
aI38
aI48
aI6
aI8
aI22
aI13
aI9
aI21
aI36
aI24
aI49
aI3
aI27
aI10
aI41
aI11
aI19
aI7
aI29
aI40
aI31
aI37
aI28
aI1
aI46
aI32
aI0
aI47
aI17
aI15
aI20
aI4
aI35
aI42
aI5
aI45
aI14
aI12
aI18
aI39
aI30
aI25
aI16
aI26
aI23
aI34
aI43
aa(lp8
I38
aI1
aI4
aI30
aI47
aI11
aI39
aI17
aI26
aI13
aI8
aI32
aI0
aI22
aI48
aI34
aI16
aI41
aI27
aI37
aI33
aI20
aI2
aI10
aI29
aI35
aI25
aI3
aI28
aI40
aI23
aI14
aI18
aI7
aI24
aI9
aI42
aI49
aI5
aI46
aI19
aI15
aI44
aI6
aI45
aI21
aI31
aI36
aI12
aI43
aa(lp9
I20
aI45
aI25
aI33
aI39
aI19
aI1
aI26
aI8
aI34
aI42
aI48
aI7
aI36
aI21
aI9
aI16
aI27
aI3
aI10
aI49
aI15
aI23
aI35
aI28
aI41
aI31
aI37
aI12
aI29
aI38
aI40
aI47
aI44
aI43
aI2
aI13
aI30
aI14
aI46
aI32
aI17
aI11
aI6
aI4
aI22
aI5
aI24
aI18
aI0
aa(lp10
I21
aI9
aI15
aI27
aI35
aI11
aI26
aI8
aI28
aI3
aI30
aI37
aI44
aI18
aI41
aI14
aI42
aI45
aI24
aI40
aI22
aI47
aI48
aI19
aI38
aI12
aI16
aI32
aI36
aI25
aI33
aI20
aI43
aI13
aI29
aI2
aI34
aI17
aI5
aI49
aI6
aI4
aI1
aI7
aI10
aI31
aI39
aI46
aI23
aI0
aa(lp11
I20
aI36
aI24
aI44
aI10
aI7
aI21
aI41
aI46
aI31
aI22
aI23
aI38
aI45
aI12
aI39
aI16
aI37
aI27
aI25
aI28
aI48
aI15
aI0
aI4
aI18
aI30
aI32
aI3
aI1
aI17
aI29
aI8
aI43
aI6
aI49
aI5
aI2
aI14
aI19
aI26
aI42
aI11
aI34
aI33
aI40
aI35
aI9
aI47
aI13
aa(lp12
I49
aI43
aI27
aI1
aI38
aI6
aI2
aI31
aI36
aI5
aI33
aI48
aI3
aI41
aI42
aI13
aI18
aI35
aI14
aI25
aI7
aI8
aI4
aI29
aI45
aI40
aI23
aI11
aI22
aI37
aI44
aI12
aI26
aI20
aI15
aI10
aI34
aI24
aI28
aI9
aI0
aI30
aI19
aI46
aI16
aI21
aI17
aI32
aI39
aI47
aa(lp13
I18
aI47
aI10
aI31
aI49
aI17
aI12
aI36
aI30
aI7
aI44
aI11
aI32
aI9
aI24
aI22
aI23
aI45
aI15
aI6
aI38
aI16
aI33
aI40
aI21
aI34
aI19
aI4
aI39
aI48
aI5
aI20
aI43
aI1
aI3
aI42
aI13
aI46
aI14
aI26
aI41
aI29
aI35
aI0
aI37
aI8
aI28
aI25
aI2
aI27
aa(lp14
I32
aI38
aI21
aI10
aI25
aI4
aI41
aI26
aI17
aI1
aI43
aI27
aI6
aI7
aI20
aI22
aI34
aI29
aI49
aI23
aI0
aI14
aI40
aI5
aI11
aI28
aI36
aI35
aI48
aI16
aI13
aI24
aI47
aI9
aI2
aI45
aI42
aI3
aI46
aI12
aI30
aI19
aI18
aI15
aI39
aI33
aI8
aI44
aI31
aI37
aa(lp15
I45
aI16
aI29
aI35
aI1
aI26
aI12
aI19
aI44
aI18
aI40
aI17
aI43
aI31
aI10
aI5
aI28
aI0
aI36
aI25
aI2
aI49
aI3
aI9
aI38
aI33
aI20
aI23
aI27
aI21
aI7
aI6
aI47
aI8
aI15
aI13
aI22
aI4
aI46
aI42
aI41
aI24
aI14
aI39
aI30
aI32
aI34
aI11
aI37
aI48
aa(lp16
I13
aI2
aI27
aI23
aI9
aI24
aI34
aI12
aI6
aI4
aI8
aI0
aI35
aI39
aI10
aI1
aI30
aI46
aI48
aI31
aI16
aI36
aI29
aI42
aI40
aI25
aI18
aI43
aI32
aI41
aI28
aI37
aI44
aI3
aI7
aI21
aI22
aI38
aI20
aI17
aI26
aI5
aI15
aI19
aI47
aI33
aI11
aI49
aI45
aI14
aa(lp17
I7
aI34
aI3
aI38
aI14
aI15
aI6
aI26
aI8
aI29
aI10
aI44
aI40
aI2
aI31
aI18
aI33
aI35
aI20
aI25
aI12
aI16
aI19
aI41
aI32
aI46
aI21
aI5
aI23
aI17
aI37
aI39
aI45
aI24
aI1
aI13
aI11
aI27
aI49
aI4
aI43
aI9
aI48
aI28
aI47
aI30
aI22
aI0
aI36
aI42
aa(lp18
I1
aI30
aI47
aI43
aI34
aI36
aI21
aI24
aI10
aI12
aI13
aI8
aI9
aI18
aI7
aI20
aI41
aI49
aI44
aI0
aI38
aI5
aI16
aI19
aI26
aI17
aI2
aI35
aI31
aI48
aI23
aI42
aI39
aI4
aI6
aI14
aI3
aI11
aI33
aI29
aI40
aI45
aI32
aI27
aI37
aI15
aI25
aI46
aI22
aI28
aa(lp19
I42
aI11
aI39
aI17
aI16
aI3
aI0
aI45
aI23
aI35
aI14
aI40
aI6
aI29
aI49
aI32
aI12
aI2
aI44
aI48
aI28
aI30
aI19
aI18
aI41
aI34
aI43
aI7
aI38
aI13
aI15
aI36
aI5
aI8
aI37
aI4
aI20
aI9
aI24
aI47
aI10
aI1
aI31
aI22
aI26
aI46
aI27
aI33
aI25
aI21
aa(lp20
I24
aI16
aI31
aI29
aI27
aI14
aI43
aI15
aI4
aI18
aI38
aI23
aI44
aI39
aI32
aI9
aI3
aI33
aI36
aI26
aI0
aI12
aI47
aI37
aI45
aI48
aI17
aI49
aI46
aI13
aI10
aI6
aI35
aI28
aI41
aI21
aI1
aI25
aI2
aI22
aI34
aI7
aI20
aI19
aI11
aI8
aI40
aI42
aI5
aI30
aa.