(lp0
(lp1
I76
aI97
aI5
aI45
aI63
aI17
aI6
aI16
aI74
aI67
aI70
aI69
aI58
aI75
aI13
aI27
aI53
aI59
aI22
aI88
aI44
aI21
aI25
aI33
aI60
aI77
aI89
aI91
aI56
aI51
aI20
aI15
aI2
aI90
aI40
aI79
aI14
aI100
aI32
aI82
aI85
aI80
aI50
aI92
aI26
aI8
aI71
aI66
aI61
aI93
aI98
aI30
aI1
aI57
aI4
aI81
aI64
aI83
aI52
aI34
aI62
aI35
aI48
aI11
aI24
aI78
aI0
aI39
aI54
aI87
aI55
aI12
aI47
aI94
aI19
aI31
aI36
aI28
aI43
aI41
aI10
aI68
aI49
aI29
aI23
aI101
aI73
aI84
aI18
aI72
aI3
aI7
aI65
aI99
aI95
aI9
aI86
aI37
aI42
aI96
aI46
aI38
aa(lp2
I69
aI52
aI20
aI13
aI86
aI90
aI30
aI10
aI22
aI38
aI78
aI66
aI7
aI81
aI0
aI35
aI49
aI98
aI46
aI71
aI51
aI37
aI45
aI84
aI73
aI15
aI58
aI41
aI97
aI17
aI68
aI56
aI74
aI61
aI99
aI94
aI53
aI19
aI23
aI59
aI8
aI100
aI89
aI76
aI50
aI57
aI48
aI96
aI27
aI67
aI75
aI21
aI62
aI72
aI11
aI101
aI24
aI82
aI32
aI83
aI44
aI92
aI16
aI70
aI42
aI40
aI12
aI85
aI55
aI26
aI14
aI29
aI9
aI79
aI47
aI80
aI34
aI4
aI91
aI63
aI18
aI25
aI2
aI36
aI33
aI28
aI1
aI87
aI54
aI60
aI43
aI88
aI65
aI3
aI77
aI64
aI95
aI6
aI93
aI5
aI39
aI31
aa(lp3
I75
aI45
aI73
aI61
aI64
aI2
aI98
aI0
aI93
aI97
aI67
aI79
aI10
aI89
aI6
aI82
aI35
aI16
aI86
aI42
aI36
aI25
aI5
aI78
aI100
aI63
aI54
aI101
aI33
aI90
aI27
aI11
aI69
aI51
aI34
aI71
aI3
aI84
aI70
aI22
aI21
aI44
aI13
aI9
aI65
aI88
aI74
aI23
aI68
aI92
aI60
aI55
aI95
aI81
aI85
aI14
aI7
aI59
aI4
aI94
aI39
aI76
aI18
aI58
aI8
aI24
aI17
aI96
aI72
aI80
aI57
aI29
aI66
aI83
aI99
aI50
aI77
aI38
aI52
aI20
aI12
aI43
aI47
aI31
aI53
aI91
aI87
aI28
aI40
aI15
aI37
aI62
aI41
aI49
aI46
aI30
aI19
aI26
aI1
aI48
aI32
aI56
aa(lp4
I75
aI94
aI2
aI10
aI42
aI95
aI20
aI74
aI11
aI30
aI56
aI97
aI24
aI17
aI84
aI0
aI9
aI58
aI4
aI98
aI70
aI77
aI38
aI32
aI5
aI87
aI46
aI57
aI83
aI33
aI100
aI63
aI92
aI65
aI27
aI36
aI48
aI45
aI66
aI93
aI90
aI52
aI89
aI26
aI53
aI86
aI28
aI73
aI13
aI64
aI37
aI80
aI6
aI51
aI71
aI60
aI31
aI54
aI40
aI21
aI78
aI61
aI8
aI29
aI41
aI50
aI35
aI55
aI19
aI59
aI72
aI91
aI3
aI1
aI79
aI96
aI101
aI34
aI67
aI43
aI7
aI44
aI81
aI25
aI12
aI76
aI69
aI16
aI47
aI18
aI14
aI15
aI22
aI99
aI68
aI23
aI82
aI49
aI88
aI39
aI85
aI62
aa(lp5
I90
aI40
aI7
aI18
aI73
aI85
aI37
aI48
aI6
aI49
aI2
aI28
aI84
aI46
aI75
aI71
aI24
aI82
aI78
aI12
aI47
aI22
aI42
aI80
aI62
aI17
aI58
aI4
aI23
aI45
aI99
aI1
aI5
aI11
aI74
aI68
aI9
aI10
aI27
aI72
aI32
aI94
aI44
aI64
aI43
aI29
aI66
aI89
aI93
aI92
aI98
aI61
aI91
aI25
aI33
aI77
aI96
aI70
aI13
aI21
aI52
aI55
aI95
aI36
aI88
aI76
aI87
aI15
aI56
aI79
aI30
aI86
aI16
aI3
aI59
aI34
aI20
aI0
aI100
aI41
aI31
aI35
aI57
aI51
aI38
aI39
aI63
aI69
aI19
aI8
aI83
aI50
aI14
aI53
aI54
aI26
aI65
aI67
aI101
aI81
aI97
aI60
aa(lp6
I19
aI8
aI37
aI82
aI32
aI101
aI31
aI77
aI67
aI20
aI0
aI68
aI72
aI65
aI58
aI15
aI4
aI12
aI74
aI41
aI71
aI7
aI91
aI30
aI23
aI24
aI54
aI79
aI55
aI47
aI53
aI39
aI63
aI69
aI43
aI84
aI46
aI78
aI9
aI56
aI22
aI51
aI6
aI97
aI85
aI42
aI14
aI52
aI36
aI94
aI66
aI34
aI76
aI35
aI40
aI89
aI95
aI99
aI70
aI86
aI25
aI73
aI60
aI1
aI10
aI13
aI62
aI21
aI48
aI80
aI33
aI17
aI3
aI61
aI75
aI29
aI88
aI50
aI27
aI11
aI57
aI93
aI81
aI49
aI16
aI87
aI2
aI5
aI18
aI98
aI64
aI38
aI28
aI26
aI44
aI83
aI90
aI92
aI100
aI96
aI59
aI45
aa(lp7
I68
aI38
aI4
aI94
aI86
aI37
aI91
aI19
aI21
aI1
aI42
aI71
aI7
aI31
aI52
aI22
aI6
aI49
aI67
aI8
aI83
aI15
aI32
aI75
aI40
aI76
aI98
aI53
aI92
aI95
aI20
aI35
aI39
aI84
aI72
aI47
aI82
aI74
aI11
aI88
aI36
aI18
aI3
aI34
aI13
aI57
aI99
aI78
aI0
aI79
aI2
aI24
aI12
aI100
aI26
aI97
aI101
aI28
aI25
aI30
aI65
aI60
aI87
aI50
aI9
aI61
aI51
aI46
aI85
aI64
aI89
aI54
aI27
aI55
aI33
aI59
aI73
aI90
aI70
aI93
aI16
aI29
aI17
aI45
aI48
aI41
aI43
aI23
aI80
aI77
aI58
aI56
aI10
aI66
aI69
aI44
aI96
aI62
aI14
aI5
aI81
aI63
aa(lp8
I47
aI58
aI32
aI17
aI88
aI33
aI54
aI76
aI99
aI39
aI85
aI65
aI48
aI68
aI30
aI82
aI63
aI22
aI1
aI52
aI36
aI79
aI69
aI62
aI45
aI91
aI67
aI89
aI18
aI100
aI96
aI20
aI93
aI50
aI74
aI9
aI53
aI4
aI21
aI61
aI12
aI60
aI59
aI77
aI13
aI73
aI3
aI84
aI98
aI42
aI26
aI56
aI90
aI94
aI25
aI5
aI7
aI8
aI95
aI15
aI70
aI19
aI83
aI11
aI2
aI38
aI23
aI46
aI97
aI31
aI0
aI41
aI101
aI43
aI66
aI29
aI27
aI35
aI81
aI6
aI34
aI72
aI49
aI37
aI28
aI40
aI16
aI75
aI51
aI44
aI86
aI10
aI64
aI92
aI55
aI14
aI71
aI80
aI78
aI57
aI24
aI87
aa(lp9
I65
aI69
aI33
aI13
aI40
aI83
aI3
aI14
aI36
aI52
aI97
aI49
aI100
aI99
aI90
aI77
aI89
aI20
aI81
aI76
aI29
aI82
aI35
aI85
aI9
aI42
aI43
aI18
aI63
aI4
aI10
aI30
aI64
aI54
aI66
aI7
aI94
aI19
aI8
aI2
aI27
aI1
aI68
aI44
aI16
aI78
aI80
aI98
aI91
aI45
aI48
aI34
aI59
aI24
aI5
aI26
aI6
aI47
aI96
aI32
aI67
aI92
aI61
aI74
aI15
aI58
aI73
aI46
aI72
aI17
aI0
aI79
aI86
aI31
aI55
aI38
aI88
aI11
aI37
aI41
aI56
aI95
aI23
aI60
aI22
aI12
aI25
aI87
aI28
aI53
aI71
aI51
aI62
aI84
aI57
aI101
aI50
aI93
aI21
aI75
aI70
aI39
aa(lp10
I91
aI95
aI60
aI26
aI19
aI34
aI48
aI47
aI81
aI46
aI36
aI76
aI64
aI97
aI40
aI65
aI10
aI6
aI66
aI68
aI85
aI8
aI71
aI56
aI50
aI17
aI42
aI57
aI51
aI83
aI25
aI58
aI53
aI98
aI62
aI28
aI22
aI18
aI33
aI100
aI7
aI1
aI12
aI9
aI3
aI82
aI78
aI94
aI93
aI92
aI21
aI5
aI89
aI14
aI37
aI41
aI39
aI0
aI30
aI73
aI54
aI63
aI20
aI23
aI88
aI49
aI55
aI38
aI101
aI24
aI2
aI74
aI90
aI86
aI87
aI96
aI59
aI70
aI72
aI13
aI61
aI43
aI80
aI45
aI27
aI69
aI16
aI31
aI35
aI29
aI84
aI79
aI15
aI52
aI11
aI75
aI32
aI44
aI67
aI4
aI99
aI77
aa(lp11
I95
aI87
aI9
aI48
aI7
aI78
aI68
aI42
aI55
aI49
aI22
aI65
aI88
aI73
aI63
aI64
aI21
aI61
aI40
aI24
aI93
aI77
aI81
aI90
aI37
aI58
aI47
aI82
aI99
aI4
aI46
aI75
aI2
aI72
aI92
aI59
aI70
aI94
aI53
aI11
aI41
aI79
aI89
aI52
aI34
aI62
aI83
aI43
aI25
aI8
aI19
aI51
aI28
aI54
aI20
aI38
aI12
aI36
aI60
aI18
aI30
aI57
aI91
aI85
aI39
aI35
aI26
aI84
aI80
aI98
aI23
aI101
aI10
aI100
aI32
aI44
aI97
aI17
aI67
aI69
aI66
aI3
aI71
aI16
aI86
aI6
aI31
aI5
aI0
aI45
aI74
aI56
aI1
aI76
aI14
aI29
aI96
aI50
aI13
aI15
aI27
aI33
aa(lp12
I100
aI14
aI59
aI3
aI87
aI42
aI33
aI35
aI41
aI0
aI54
aI85
aI17
aI80
aI10
aI31
aI81
aI11
aI34
aI40
aI56
aI51
aI44
aI96
aI64
aI5
aI60
aI77
aI29
aI12
aI37
aI67
aI32
aI57
aI6
aI93
aI63
aI72
aI16
aI20
aI76
aI73
aI97
aI82
aI38
aI58
aI27
aI47
aI28
aI68
aI52
aI2
aI95
aI65
aI23
aI91
aI30
aI25
aI4
aI15
aI86
aI50
aI101
aI19
aI99
aI79
aI55
aI46
aI24
aI89
aI70
aI92
aI53
aI74
aI90
aI13
aI9
aI39
aI94
aI66
aI45
aI43
aI18
aI48
aI98
aI62
aI78
aI83
aI7
aI26
aI61
aI36
aI21
aI8
aI84
aI22
aI49
aI71
aI1
aI75
aI88
aI69
aa(lp13
I60
aI7
aI24
aI41
aI61
aI10
aI49
aI52
aI38
aI26
aI89
aI71
aI44
aI9
aI27
aI90
aI83
aI17
aI8
aI67
aI91
aI16
aI58
aI96
aI53
aI54
aI13
aI65
aI6
aI64
aI21
aI85
aI37
aI66
aI25
aI35
aI69
aI18
aI88
aI36
aI86
aI95
aI31
aI1
aI5
aI29
aI70
aI22
aI94
aI48
aI43
aI87
aI20
aI39
aI34
aI33
aI12
aI92
aI98
aI101
aI82
aI40
aI59
aI42
aI74
aI4
aI78
aI55
aI50
aI45
aI0
aI97
aI73
aI77
aI63
aI19
aI57
aI46
aI100
aI15
aI47
aI79
aI75
aI28
aI2
aI84
aI76
aI56
aI72
aI3
aI80
aI93
aI99
aI30
aI32
aI51
aI11
aI62
aI81
aI68
aI14
aI23
aa(lp14
I54
aI92
aI51
aI93
aI6
aI10
aI2
aI43
aI42
aI40
aI34
aI13
aI52
aI89
aI3
aI48
aI62
aI97
aI86
aI36
aI38
aI91
aI16
aI60
aI5
aI68
aI33
aI17
aI44
aI0
aI15
aI18
aI65
aI31
aI19
aI58
aI98
aI55
aI50
aI75
aI7
aI99
aI94
aI88
aI85
aI20
aI84
aI25
aI66
aI11
aI69
aI12
aI27
aI90
aI23
aI72
aI81
aI63
aI24
aI56
aI26
aI73
aI96
aI53
aI59
aI21
aI45
aI95
aI74
aI79
aI78
aI47
aI37
aI76
aI22
aI71
aI41
aI35
aI30
aI67
aI9
aI32
aI64
aI4
aI29
aI82
aI39
aI61
aI83
aI70
aI77
aI101
aI80
aI46
aI49
aI87
aI57
aI14
aI100
aI28
aI1
aI8
aa(lp15
I39
aI67
aI63
aI42
aI44
aI1
aI23
aI71
aI0
aI4
aI94
aI76
aI88
aI43
aI93
aI72
aI90
aI68
aI60
aI65
aI57
aI13
aI49
aI53
aI82
aI64
aI7
aI95
aI85
aI34
aI40
aI96
aI92
aI58
aI6
aI52
aI24
aI87
aI99
aI70
aI55
aI32
aI16
aI25
aI28
aI20
aI12
aI18
aI26
aI80
aI22
aI21
aI8
aI101
aI37
aI89
aI46
aI62
aI15
aI10
aI45
aI19
aI66
aI69
aI75
aI14
aI56
aI61
aI50
aI41
aI35
aI51
aI81
aI5
aI100
aI98
aI2
aI38
aI74
aI86
aI79
aI29
aI47
aI27
aI83
aI9
aI11
aI77
aI54
aI33
aI59
aI31
aI17
aI78
aI48
aI91
aI73
aI36
aI3
aI30
aI84
aI97
aa(lp16
I71
aI27
aI6
aI45
aI7
aI87
aI43
aI77
aI85
aI79
aI72
aI44
aI26
aI55
aI42
aI59
aI57
aI4
aI58
aI35
aI73
aI37
aI52
aI41
aI56
aI1
aI64
aI10
aI83
aI46
aI50
aI34
aI14
aI18
aI88
aI65
aI16
aI11
aI12
aI94
aI5
aI60
aI29
aI92
aI63
aI67
aI90
aI61
aI0
aI23
aI75
aI19
aI96
aI3
aI78
aI20
aI40
aI31
aI48
aI28
aI49
aI100
aI53
aI22
aI74
aI15
aI24
aI84
aI70
aI36
aI47
aI54
aI80
aI95
aI13
aI66
aI39
aI9
aI99
aI30
aI2
aI76
aI8
aI51
aI86
aI89
aI97
aI81
aI69
aI93
aI32
aI62
aI91
aI98
aI82
aI38
aI33
aI25
aI21
aI68
aI101
aI17
aa(lp17
I7
aI96
aI16
aI23
aI4
aI77
aI8
aI43
aI66
aI81
aI58
aI93
aI55
aI36
aI60
aI67
aI40
aI9
aI13
aI52
aI47
aI79
aI18
aI17
aI12
aI86
aI84
aI69
aI91
aI14
aI64
aI95
aI100
aI97
aI90
aI61
aI70
aI19
aI62
aI68
aI29
aI1
aI75
aI71
aI6
aI49
aI31
aI78
aI83
aI59
aI72
aI94
aI33
aI88
aI99
aI85
aI22
aI57
aI89
aI53
aI10
aI101
aI63
aI3
aI0
aI38
aI48
aI26
aI20
aI82
aI28
aI27
aI76
aI54
aI50
aI25
aI15
aI11
aI80
aI51
aI34
aI74
aI32
aI37
aI24
aI5
aI2
aI98
aI46
aI65
aI87
aI35
aI39
aI30
aI56
aI41
aI45
aI44
aI21
aI92
aI42
aI73
aa(lp18
I81
aI36
aI1
aI77
aI65
aI24
aI13
aI30
aI87
aI85
aI73
aI40
aI78
aI93
aI21
aI80
aI31
aI37
aI88
aI34
aI44
aI29
aI28
aI68
aI95
aI4
aI16
aI51
aI38
aI71
aI69
aI90
aI22
aI42
aI33
aI14
aI98
aI23
aI61
aI100
aI94
aI49
aI50
aI67
aI59
aI20
aI19
aI92
aI66
aI17
aI62
aI84
aI43
aI53
aI52
aI39
aI64
aI25
aI2
aI5
aI7
aI35
aI27
aI76
aI58
aI63
aI3
aI11
aI15
aI99
aI41
aI56
aI57
aI72
aI70
aI89
aI9
aI83
aI6
aI47
aI91
aI54
aI86
aI32
aI26
aI60
aI96
aI18
aI8
aI82
aI12
aI0
aI75
aI48
aI46
aI97
aI79
aI10
aI45
aI55
aI101
aI74
aa(lp19
I15
aI22
aI12
aI11
aI0
aI19
aI66
aI61
aI88
aI101
aI86
aI81
aI40
aI42
aI97
aI77
aI5
aI2
aI78
aI96
aI36
aI18
aI100
aI30
aI94
aI93
aI39
aI6
aI46
aI50
aI84
aI9
aI98
aI79
aI13
aI74
aI60
aI28
aI58
aI4
aI91
aI73
aI71
aI25
aI65
aI52
aI95
aI32
aI17
aI83
aI57
aI23
aI49
aI41
aI26
aI7
aI62
aI16
aI37
aI38
aI24
aI44
aI89
aI68
aI35
aI48
aI27
aI1
aI59
aI31
aI87
aI75
aI64
aI63
aI8
aI54
aI70
aI72
aI14
aI92
aI82
aI90
aI34
aI3
aI47
aI53
aI10
aI69
aI76
aI29
aI56
aI21
aI85
aI45
aI20
aI99
aI55
aI67
aI33
aI80
aI51
aI43
aa(lp20
I37
aI60
aI61
aI39
aI93
aI79
aI75
aI88
aI32
aI40
aI9
aI18
aI80
aI59
aI89
aI33
aI97
aI22
aI21
aI15
aI96
aI66
aI35
aI53
aI7
aI95
aI6
aI62
aI45
aI23
aI11
aI27
aI25
aI73
aI2
aI48
aI68
aI69
aI77
aI17
aI57
aI4
aI49
aI99
aI44
aI63
aI81
aI65
aI19
aI42
aI29
aI10
aI0
aI76
aI30
aI41
aI64
aI16
aI47
aI51
aI94
aI24
aI84
aI82
aI28
aI46
aI100
aI85
aI101
aI72
aI54
aI52
aI8
aI1
aI3
aI90
aI83
aI13
aI86
aI87
aI14
aI36
aI38
aI43
aI74
aI12
aI26
aI67
aI71
aI20
aI50
aI98
aI56
aI78
aI91
aI55
aI58
aI92
aI5
aI34
aI31
aI70
aa.