(lp0
(lp1
I37
aI39
aI35
aI2
aI19
aI36
aI9
aI25
aI43
aI18
aI27
aI41
aI1
aI13
aI40
aI26
aI14
aI0
aI30
aI34
aI20
aI33
aI29
aI45
aI8
aI16
aI7
aI23
aI10
aI44
aI17
aI21
aI3
aI31
aI38
aI24
aI15
aI47
aI46
aI28
aI12
aI42
aI32
aI22
aI6
aI4
aI48
aI5
aI11
aa(lp2
I5
aI2
aI3
aI35
aI37
aI11
aI14
aI6
aI27
aI42
aI38
aI17
aI45
aI26
aI46
aI23
aI33
aI0
aI13
aI43
aI21
aI28
aI16
aI12
aI29
aI10
aI15
aI34
aI1
aI41
aI9
aI48
aI47
aI22
aI19
aI44
aI20
aI32
aI8
aI24
aI39
aI4
aI25
aI40
aI31
aI36
aI30
aI18
aI7
aa(lp3
I23
aI46
aI6
aI9
aI12
aI24
aI11
aI20
aI33
aI17
aI48
aI40
aI39
aI13
aI19
aI0
aI42
aI36
aI32
aI43
aI28
aI15
aI38
aI47
aI21
aI4
aI5
aI29
aI45
aI3
aI1
aI7
aI37
aI25
aI44
aI31
aI8
aI14
aI10
aI41
aI18
aI2
aI26
aI27
aI34
aI35
aI30
aI16
aI22
aa(lp4
I42
aI34
aI35
aI17
aI48
aI30
aI31
aI13
aI43
aI8
aI10
aI4
aI28
aI36
aI26
aI38
aI33
aI11
aI15
aI0
aI19
aI23
aI6
aI14
aI39
aI40
aI29
aI37
aI12
aI9
aI41
aI44
aI32
aI46
aI45
aI47
aI18
aI25
aI1
aI21
aI3
aI16
aI24
aI2
aI27
aI20
aI7
aI5
aI22
aa(lp5
I42
aI1
aI48
aI9
aI44
aI0
aI41
aI43
aI26
aI34
aI7
aI28
aI15
aI14
aI46
aI11
aI37
aI5
aI12
aI29
aI19
aI10
aI13
aI20
aI25
aI27
aI23
aI39
aI3
aI8
aI18
aI45
aI30
aI33
aI6
aI35
aI17
aI21
aI31
aI16
aI38
aI4
aI40
aI36
aI47
aI2
aI32
aI22
aI24
aa(lp6
I9
aI11
aI5
aI12
aI27
aI3
aI39
aI43
aI32
aI38
aI26
aI4
aI10
aI37
aI7
aI30
aI0
aI15
aI14
aI42
aI22
aI24
aI48
aI16
aI20
aI44
aI13
aI8
aI21
aI6
aI29
aI23
aI33
aI2
aI18
aI36
aI19
aI40
aI41
aI47
aI34
aI28
aI35
aI46
aI25
aI1
aI17
aI31
aI45
aa(lp7
I33
aI30
aI6
aI27
aI3
aI29
aI22
aI5
aI2
aI17
aI0
aI7
aI34
aI25
aI28
aI41
aI26
aI35
aI46
aI45
aI20
aI15
aI11
aI44
aI32
aI18
aI48
aI42
aI19
aI14
aI1
aI38
aI23
aI40
aI13
aI37
aI8
aI9
aI4
aI16
aI12
aI10
aI21
aI36
aI39
aI24
aI47
aI31
aI43
aa(lp8
I11
aI17
aI13
aI8
aI44
aI41
aI10
aI9
aI46
aI27
aI31
aI16
aI21
aI39
aI47
aI1
aI20
aI40
aI32
aI14
aI48
aI36
aI29
aI19
aI24
aI28
aI37
aI30
aI42
aI0
aI23
aI6
aI2
aI38
aI25
aI22
aI26
aI34
aI7
aI3
aI5
aI15
aI45
aI18
aI4
aI35
aI12
aI43
aI33
aa(lp9
I3
aI27
aI33
aI6
aI16
aI39
aI47
aI20
aI9
aI14
aI19
aI23
aI43
aI46
aI1
aI29
aI8
aI26
aI41
aI12
aI25
aI5
aI28
aI13
aI31
aI36
aI10
aI24
aI44
aI18
aI7
aI4
aI35
aI32
aI34
aI42
aI15
aI17
aI11
aI38
aI0
aI30
aI21
aI45
aI48
aI22
aI40
aI37
aI2
aa(lp10
I17
aI22
aI4
aI45
aI24
aI30
aI0
aI37
aI13
aI14
aI25
aI12
aI40
aI27
aI26
aI33
aI19
aI9
aI20
aI39
aI28
aI10
aI31
aI11
aI15
aI16
aI8
aI5
aI23
aI44
aI2
aI46
aI1
aI36
aI3
aI43
aI34
aI35
aI41
aI7
aI18
aI38
aI29
aI47
aI6
aI32
aI21
aI48
aI42
aa(lp11
I47
aI32
aI24
aI10
aI40
aI15
aI37
aI42
aI9
aI31
aI11
aI16
aI20
aI34
aI18
aI6
aI28
aI44
aI19
aI39
aI43
aI48
aI25
aI14
aI26
aI22
aI4
aI36
aI0
aI17
aI12
aI27
aI29
aI41
aI30
aI2
aI3
aI45
aI35
aI21
aI8
aI13
aI5
aI7
aI38
aI46
aI1
aI33
aI23
aa(lp12
I10
aI19
aI42
aI28
aI32
aI12
aI48
aI36
aI20
aI34
aI24
aI41
aI0
aI8
aI39
aI2
aI21
aI6
aI14
aI17
aI22
aI4
aI35
aI43
aI33
aI37
aI15
aI38
aI3
aI11
aI46
aI7
aI30
aI40
aI26
aI47
aI45
aI29
aI27
aI44
aI16
aI9
aI1
aI18
aI23
aI31
aI5
aI13
aI25
aa(lp13
I44
aI11
aI40
aI23
aI29
aI3
aI18
aI33
aI19
aI2
aI39
aI24
aI31
aI42
aI0
aI47
aI28
aI34
aI30
aI36
aI26
aI16
aI1
aI32
aI4
aI10
aI21
aI15
aI25
aI48
aI22
aI41
aI5
aI27
aI14
aI37
aI46
aI12
aI13
aI8
aI9
aI20
aI17
aI7
aI35
aI6
aI45
aI43
aI38
aa(lp14
I14
aI22
aI17
aI18
aI1
aI28
aI16
aI44
aI36
aI41
aI9
aI40
aI39
aI15
aI7
aI32
aI33
aI6
aI46
aI45
aI10
aI23
aI2
aI34
aI43
aI27
aI37
aI12
aI48
aI20
aI38
aI24
aI5
aI21
aI26
aI8
aI13
aI25
aI31
aI4
aI29
aI11
aI3
aI42
aI30
aI0
aI35
aI19
aI47
aa(lp15
I42
aI0
aI23
aI11
aI48
aI21
aI14
aI24
aI34
aI1
aI4
aI43
aI46
aI2
aI35
aI5
aI18
aI30
aI16
aI7
aI38
aI32
aI6
aI31
aI33
aI37
aI10
aI20
aI29
aI12
aI22
aI17
aI40
aI47
aI27
aI3
aI26
aI41
aI25
aI45
aI36
aI39
aI44
aI9
aI15
aI19
aI8
aI28
aI13
aa(lp16
I17
aI21
aI27
aI4
aI38
aI11
aI33
aI16
aI13
aI29
aI20
aI10
aI7
aI34
aI36
aI12
aI15
aI25
aI41
aI6
aI32
aI35
aI45
aI37
aI48
aI42
aI1
aI8
aI43
aI46
aI9
aI14
aI26
aI3
aI5
aI47
aI40
aI30
aI44
aI22
aI24
aI31
aI23
aI0
aI39
aI19
aI28
aI18
aI2
aa(lp17
I18
aI14
aI32
aI6
aI25
aI10
aI36
aI40
aI7
aI35
aI37
aI0
aI13
aI34
aI48
aI42
aI2
aI27
aI8
aI46
aI39
aI23
aI9
aI44
aI21
aI28
aI38
aI22
aI19
aI17
aI30
aI45
aI41
aI3
aI31
aI33
aI29
aI12
aI43
aI1
aI20
aI24
aI11
aI47
aI16
aI15
aI26
aI4
aI5
aa(lp18
I14
aI47
aI44
aI42
aI32
aI28
aI2
aI34
aI11
aI43
aI29
aI1
aI48
aI6
aI13
aI36
aI18
aI4
aI39
aI3
aI25
aI17
aI16
aI8
aI46
aI5
aI35
aI27
aI0
aI23
aI22
aI20
aI30
aI7
aI41
aI31
aI40
aI19
aI15
aI9
aI26
aI45
aI21
aI10
aI24
aI12
aI33
aI37
aI38
aa(lp19
I44
aI3
aI21
aI13
aI28
aI12
aI4
aI15
aI18
aI1
aI45
aI33
aI34
aI42
aI48
aI14
aI7
aI5
aI2
aI26
aI40
aI23
aI36
aI27
aI16
aI17
aI8
aI31
aI37
aI39
aI25
aI38
aI41
aI30
aI20
aI46
aI47
aI32
aI19
aI29
aI22
aI35
aI6
aI0
aI11
aI10
aI43
aI24
aI9
aa(lp20
I48
aI38
aI10
aI13
aI41
aI24
aI47
aI25
aI35
aI11
aI12
aI34
aI3
aI18
aI8
aI20
aI42
aI0
aI21
aI43
aI30
aI26
aI44
aI23
aI19
aI27
aI16
aI14
aI33
aI17
aI22
aI7
aI37
aI40
aI2
aI45
aI4
aI9
aI6
aI46
aI29
aI15
aI32
aI28
aI31
aI36
aI1
aI5
aI39
aa.