(lp0
(lp1
I15
aI206
aI203
aI60
aI191
aI181
aI48
aI173
aI41
aI57
aI182
aI171
aI77
aI29
aI1
aI75
aI91
aI195
aI112
aI31
aI153
aI20
aI131
aI212
aI125
aI167
aI114
aI115
aI136
aI189
aI156
aI168
aI39
aI120
aI104
aI194
aI98
aI180
aI37
aI208
aI178
aI155
aI33
aI196
aI111
aI42
aI209
aI147
aI95
aI221
aI204
aI30
aI154
aI185
aI65
aI137
aI22
aI165
aI35
aI68
aI21
aI46
aI25
aI27
aI157
aI216
aI188
aI56
aI17
aI93
aI67
aI87
aI197
aI128
aI175
aI99
aI61
aI218
aI92
aI51
aI18
aI152
aI84
aI201
aI143
aI24
aI40
aI13
aI53
aI6
aI82
aI117
aI158
aI149
aI45
aI102
aI202
aI78
aI150
aI184
aI79
aI12
aI172
aI129
aI161
aI34
aI5
aI141
aI69
aI139
aI116
aI83
aI52
aI85
aI220
aI166
aI210
aI88
aI151
aI80
aI55
aI36
aI54
aI213
aI59
aI103
aI126
aI118
aI146
aI162
aI192
aI11
aI96
aI135
aI205
aI217
aI123
aI44
aI138
aI66
aI159
aI132
aI86
aI8
aI28
aI160
aI219
aI76
aI72
aI163
aI145
aI19
aI119
aI144
aI222
aI63
aI130
aI43
aI64
aI176
aI121
aI106
aI107
aI49
aI16
aI179
aI214
aI70
aI101
aI133
aI89
aI148
aI170
aI113
aI164
aI215
aI198
aI3
aI26
aI32
aI71
aI73
aI74
aI50
aI177
aI62
aI122
aI169
aI211
aI200
aI2
aI94
aI0
aI100
aI187
aI47
aI174
aI110
aI97
aI124
aI127
aI183
aI10
aI134
aI9
aI142
aI193
aI186
aI38
aI140
aI190
aI207
aI199
aI90
aI14
aI81
aI58
aI23
aI7
aI108
aI105
aI109
aI4
aa(lp2
I144
aI170
aI82
aI122
aI123
aI219
aI15
aI7
aI55
aI148
aI17
aI207
aI57
aI101
aI161
aI73
aI196
aI2
aI171
aI114
aI156
aI87
aI119
aI162
aI37
aI172
aI34
aI104
aI150
aI167
aI191
aI36
aI184
aI40
aI49
aI60
aI47
aI168
aI134
aI120
aI153
aI140
aI145
aI189
aI77
aI218
aI24
aI75
aI214
aI97
aI166
aI79
aI66
aI106
aI58
aI155
aI126
aI59
aI213
aI197
aI212
aI23
aI208
aI53
aI68
aI200
aI180
aI181
aI62
aI151
aI26
aI41
aI124
aI71
aI159
aI211
aI3
aI96
aI12
aI38
aI21
aI51
aI48
aI1
aI44
aI131
aI130
aI141
aI110
aI28
aI116
aI198
aI216
aI63
aI29
aI90
aI176
aI52
aI194
aI175
aI201
aI220
aI202
aI74
aI70
aI81
aI115
aI173
aI100
aI192
aI127
aI18
aI42
aI125
aI107
aI13
aI205
aI193
aI5
aI117
aI164
aI222
aI136
aI95
aI109
aI143
aI10
aI179
aI149
aI69
aI56
aI20
aI22
aI89
aI165
aI27
aI121
aI142
aI9
aI92
aI76
aI221
aI169
aI113
aI11
aI182
aI210
aI54
aI112
aI19
aI39
aI137
aI85
aI138
aI16
aI102
aI154
aI6
aI199
aI186
aI31
aI43
aI30
aI147
aI152
aI78
aI108
aI163
aI135
aI158
aI133
aI46
aI0
aI103
aI160
aI88
aI105
aI14
aI84
aI99
aI94
aI86
aI98
aI64
aI209
aI45
aI118
aI203
aI206
aI128
aI25
aI132
aI215
aI177
aI187
aI190
aI157
aI174
aI35
aI129
aI185
aI50
aI217
aI83
aI93
aI188
aI67
aI80
aI195
aI139
aI72
aI204
aI183
aI146
aI32
aI61
aI8
aI111
aI4
aI33
aI65
aI91
aI178
aa(lp3
I193
aI20
aI114
aI86
aI57
aI147
aI131
aI90
aI218
aI30
aI138
aI211
aI113
aI122
aI8
aI204
aI7
aI175
aI29
aI126
aI141
aI58
aI177
aI178
aI81
aI217
aI143
aI158
aI97
aI174
aI136
aI192
aI66
aI99
aI38
aI109
aI112
aI9
aI25
aI13
aI6
aI166
aI11
aI191
aI115
aI149
aI134
aI24
aI12
aI108
aI117
aI216
aI196
aI127
aI205
aI203
aI171
aI96
aI72
aI54
aI62
aI68
aI4
aI52
aI28
aI168
aI219
aI144
aI106
aI82
aI80
aI79
aI155
aI130
aI107
aI200
aI129
aI156
aI128
aI101
aI111
aI137
aI140
aI110
aI160
aI124
aI182
aI197
aI55
aI78
aI22
aI87
aI133
aI165
aI118
aI220
aI100
aI163
aI51
aI15
aI215
aI139
aI32
aI173
aI206
aI49
aI221
aI185
aI39
aI151
aI154
aI202
aI150
aI17
aI59
aI35
aI98
aI44
aI19
aI167
aI2
aI73
aI10
aI74
aI31
aI46
aI146
aI213
aI5
aI83
aI157
aI67
aI60
aI186
aI123
aI85
aI94
aI65
aI84
aI21
aI214
aI194
aI42
aI69
aI198
aI36
aI116
aI16
aI153
aI212
aI37
aI201
aI1
aI164
aI88
aI0
aI104
aI48
aI176
aI63
aI119
aI161
aI103
aI207
aI3
aI190
aI93
aI45
aI41
aI91
aI210
aI180
aI75
aI208
aI89
aI162
aI43
aI64
aI56
aI189
aI105
aI199
aI132
aI135
aI125
aI34
aI187
aI152
aI179
aI61
aI183
aI76
aI120
aI18
aI33
aI121
aI95
aI181
aI159
aI40
aI142
aI71
aI148
aI170
aI26
aI23
aI70
aI53
aI195
aI184
aI145
aI222
aI47
aI14
aI102
aI209
aI50
aI27
aI169
aI92
aI172
aI188
aI77
aa(lp4
I128
aI97
aI91
aI147
aI168
aI192
aI151
aI71
aI79
aI59
aI92
aI32
aI215
aI139
aI70
aI203
aI35
aI90
aI167
aI164
aI134
aI11
aI198
aI140
aI4
aI99
aI39
aI154
aI34
aI96
aI115
aI118
aI67
aI152
aI63
aI101
aI47
aI19
aI205
aI196
aI157
aI48
aI1
aI98
aI110
aI43
aI57
aI82
aI145
aI80
aI170
aI107
aI37
aI21
aI156
aI103
aI180
aI85
aI133
aI195
aI114
aI221
aI50
aI121
aI179
aI155
aI122
aI131
aI158
aI130
aI58
aI3
aI210
aI197
aI207
aI109
aI100
aI186
aI200
aI174
aI7
aI160
aI66
aI211
aI22
aI143
aI162
aI116
aI190
aI212
aI8
aI62
aI60
aI65
aI15
aI163
aI148
aI169
aI182
aI31
aI124
aI209
aI2
aI42
aI94
aI219
aI83
aI185
aI126
aI188
aI165
aI159
aI41
aI9
aI56
aI204
aI125
aI181
aI77
aI40
aI13
aI61
aI208
aI194
aI45
aI129
aI176
aI184
aI172
aI201
aI132
aI142
aI102
aI144
aI84
aI93
aI68
aI222
aI30
aI25
aI88
aI73
aI153
aI187
aI202
aI28
aI171
aI105
aI16
aI0
aI214
aI146
aI199
aI177
aI150
aI18
aI76
aI183
aI51
aI44
aI216
aI36
aI89
aI5
aI178
aI191
aI24
aI10
aI95
aI206
aI141
aI38
aI14
aI137
aI64
aI123
aI26
aI175
aI23
aI173
aI87
aI119
aI166
aI120
aI104
aI53
aI86
aI220
aI161
aI217
aI54
aI72
aI189
aI81
aI74
aI33
aI49
aI213
aI218
aI12
aI69
aI112
aI75
aI136
aI106
aI135
aI6
aI55
aI113
aI127
aI78
aI46
aI108
aI17
aI20
aI149
aI117
aI52
aI27
aI111
aI193
aI138
aI29
aa(lp5
I125
aI90
aI32
aI21
aI102
aI66
aI101
aI38
aI136
aI36
aI112
aI78
aI141
aI12
aI195
aI129
aI0
aI174
aI39
aI181
aI190
aI8
aI27
aI200
aI189
aI180
aI176
aI6
aI60
aI61
aI134
aI147
aI14
aI140
aI81
aI159
aI57
aI70
aI131
aI71
aI86
aI124
aI114
aI100
aI110
aI48
aI111
aI30
aI151
aI53
aI98
aI161
aI220
aI144
aI44
aI72
aI206
aI85
aI34
aI18
aI54
aI7
aI167
aI143
aI88
aI191
aI117
aI142
aI145
aI137
aI182
aI82
aI99
aI148
aI84
aI166
aI65
aI87
aI198
aI3
aI63
aI132
aI73
aI216
aI126
aI153
aI211
aI25
aI203
aI47
aI204
aI79
aI109
aI138
aI80
aI127
aI74
aI185
aI62
aI93
aI135
aI1
aI202
aI16
aI17
aI91
aI52
aI49
aI64
aI168
aI130
aI2
aI177
aI33
aI175
aI122
aI95
aI178
aI105
aI187
aI96
aI45
aI165
aI5
aI83
aI4
aI28
aI222
aI154
aI106
aI207
aI29
aI173
aI104
aI212
aI208
aI128
aI183
aI55
aI9
aI103
aI218
aI113
aI213
aI76
aI192
aI201
aI121
aI158
aI97
aI119
aI209
aI77
aI13
aI197
aI149
aI221
aI118
aI194
aI164
aI196
aI188
aI108
aI26
aI41
aI171
aI75
aI116
aI160
aI92
aI115
aI163
aI169
aI157
aI31
aI20
aI139
aI156
aI23
aI94
aI51
aI69
aI214
aI199
aI184
aI186
aI10
aI68
aI40
aI35
aI24
aI58
aI217
aI120
aI56
aI123
aI42
aI89
aI215
aI22
aI193
aI179
aI19
aI11
aI210
aI133
aI67
aI170
aI155
aI59
aI15
aI205
aI219
aI43
aI172
aI150
aI162
aI152
aI37
aI46
aI107
aI50
aI146
aa(lp6
I35
aI128
aI145
aI150
aI196
aI44
aI37
aI105
aI103
aI108
aI66
aI24
aI177
aI188
aI25
aI90
aI170
aI155
aI168
aI91
aI30
aI142
aI31
aI113
aI95
aI102
aI220
aI176
aI147
aI64
aI2
aI15
aI70
aI222
aI207
aI173
aI111
aI118
aI67
aI62
aI198
aI183
aI160
aI39
aI104
aI53
aI96
aI13
aI208
aI87
aI54
aI174
aI148
aI161
aI216
aI82
aI29
aI163
aI88
aI68
aI137
aI139
aI41
aI5
aI58
aI129
aI42
aI14
aI33
aI106
aI180
aI158
aI76
aI193
aI65
aI79
aI151
aI140
aI59
aI152
aI130
aI81
aI109
aI213
aI3
aI186
aI164
aI101
aI124
aI184
aI171
aI122
aI181
aI202
aI0
aI11
aI191
aI26
aI204
aI215
aI187
aI80
aI127
aI97
aI56
aI143
aI197
aI60
aI159
aI50
aI185
aI166
aI20
aI51
aI114
aI4
aI195
aI75
aI169
aI153
aI107
aI6
aI133
aI219
aI167
aI45
aI110
aI21
aI200
aI212
aI119
aI85
aI16
aI156
aI34
aI120
aI38
aI194
aI92
aI146
aI61
aI19
aI157
aI132
aI94
aI182
aI43
aI125
aI72
aI74
aI172
aI10
aI89
aI221
aI165
aI8
aI162
aI112
aI217
aI93
aI55
aI149
aI126
aI9
aI47
aI28
aI210
aI36
aI135
aI117
aI214
aI12
aI154
aI211
aI46
aI190
aI134
aI99
aI49
aI201
aI100
aI86
aI17
aI1
aI138
aI40
aI123
aI98
aI141
aI32
aI136
aI206
aI199
aI73
aI203
aI63
aI77
aI179
aI48
aI189
aI144
aI18
aI78
aI84
aI218
aI209
aI205
aI175
aI52
aI116
aI121
aI192
aI178
aI23
aI57
aI27
aI69
aI83
aI7
aI131
aI71
aI115
aI22
aa(lp7
I171
aI143
aI208
aI87
aI109
aI183
aI30
aI37
aI204
aI23
aI112
aI202
aI155
aI120
aI194
aI189
aI163
aI85
aI100
aI123
aI219
aI200
aI90
aI48
aI168
aI75
aI220
aI104
aI215
aI73
aI63
aI196
aI5
aI165
aI72
aI147
aI151
aI10
aI145
aI116
aI173
aI191
aI162
aI33
aI12
aI122
aI88
aI177
aI205
aI56
aI187
aI218
aI61
aI94
aI149
aI22
aI27
aI105
aI211
aI156
aI221
aI127
aI142
aI60
aI0
aI59
aI166
aI146
aI108
aI89
aI69
aI210
aI110
aI38
aI174
aI9
aI31
aI192
aI52
aI199
aI6
aI119
aI50
aI53
aI26
aI74
aI113
aI1
aI212
aI101
aI214
aI160
aI124
aI42
aI222
aI54
aI125
aI209
aI206
aI41
aI141
aI216
aI178
aI11
aI98
aI129
aI32
aI169
aI81
aI195
aI91
aI76
aI51
aI106
aI25
aI39
aI117
aI150
aI80
aI170
aI180
aI92
aI19
aI96
aI118
aI34
aI7
aI15
aI131
aI175
aI130
aI207
aI58
aI78
aI28
aI99
aI14
aI67
aI154
aI121
aI18
aI198
aI157
aI102
aI181
aI82
aI133
aI186
aI111
aI84
aI2
aI64
aI65
aI114
aI45
aI138
aI139
aI35
aI21
aI46
aI57
aI17
aI161
aI152
aI4
aI107
aI217
aI193
aI176
aI93
aI144
aI77
aI43
aI95
aI44
aI79
aI179
aI159
aI213
aI137
aI86
aI135
aI158
aI164
aI167
aI20
aI103
aI148
aI36
aI140
aI126
aI184
aI47
aI40
aI203
aI182
aI153
aI70
aI66
aI115
aI55
aI201
aI185
aI49
aI8
aI172
aI190
aI24
aI62
aI128
aI68
aI197
aI97
aI13
aI132
aI188
aI16
aI71
aI134
aI29
aI3
aI136
aI83
aa(lp8
I108
aI150
aI66
aI119
aI47
aI153
aI97
aI19
aI151
aI10
aI190
aI111
aI59
aI75
aI158
aI205
aI8
aI120
aI221
aI11
aI167
aI49
aI96
aI121
aI89
aI100
aI42
aI88
aI43
aI159
aI46
aI17
aI139
aI57
aI13
aI73
aI54
aI142
aI53
aI191
aI124
aI161
aI45
aI204
aI103
aI145
aI99
aI12
aI154
aI16
aI137
aI193
aI156
aI182
aI3
aI127
aI112
aI128
aI202
aI184
aI22
aI24
aI20
aI118
aI92
aI186
aI198
aI51
aI163
aI160
aI32
aI87
aI201
aI98
aI86
aI33
aI76
aI171
aI110
aI131
aI210
aI44
aI82
aI152
aI90
aI2
aI194
aI61
aI68
aI122
aI134
aI79
aI126
aI72
aI212
aI50
aI48
aI130
aI165
aI64
aI31
aI214
aI25
aI83
aI52
aI132
aI15
aI188
aI143
aI26
aI56
aI209
aI138
aI30
aI135
aI28
aI21
aI170
aI9
aI55
aI81
aI208
aI219
aI23
aI93
aI65
aI113
aI39
aI129
aI34
aI41
aI218
aI85
aI192
aI71
aI78
aI40
aI62
aI109
aI175
aI196
aI115
aI58
aI177
aI168
aI60
aI116
aI222
aI215
aI136
aI213
aI169
aI123
aI155
aI29
aI146
aI217
aI203
aI185
aI144
aI166
aI189
aI174
aI70
aI141
aI35
aI206
aI104
aI102
aI80
aI181
aI69
aI157
aI36
aI133
aI63
aI162
aI183
aI199
aI147
aI18
aI27
aI216
aI172
aI107
aI149
aI1
aI4
aI38
aI180
aI101
aI207
aI176
aI74
aI67
aI125
aI105
aI94
aI195
aI148
aI95
aI6
aI179
aI211
aI91
aI37
aI178
aI200
aI7
aI14
aI84
aI140
aI164
aI117
aI77
aI114
aI220
aI106
aI197
aI173
aI0
aI5
aI187
aa(lp9
I55
aI170
aI221
aI222
aI98
aI188
aI10
aI160
aI181
aI130
aI64
aI138
aI148
aI57
aI141
aI147
aI144
aI192
aI116
aI47
aI2
aI150
aI90
aI100
aI161
aI112
aI56
aI211
aI48
aI171
aI82
aI1
aI84
aI43
aI49
aI13
aI131
aI89
aI73
aI129
aI174
aI5
aI18
aI77
aI27
aI58
aI213
aI185
aI120
aI24
aI22
aI165
aI152
aI35
aI23
aI97
aI85
aI102
aI113
aI208
aI96
aI62
aI124
aI108
aI177
aI127
aI212
aI37
aI95
aI214
aI16
aI182
aI15
aI158
aI53
aI107
aI194
aI123
aI80
aI179
aI219
aI25
aI0
aI19
aI36
aI205
aI175
aI109
aI52
aI111
aI173
aI94
aI93
aI155
aI176
aI143
aI31
aI9
aI134
aI220
aI159
aI44
aI70
aI11
aI78
aI137
aI128
aI88
aI215
aI67
aI99
aI17
aI63
aI140
aI145
aI110
aI42
aI91
aI216
aI83
aI79
aI146
aI30
aI6
aI76
aI33
aI209
aI46
aI103
aI191
aI202
aI60
aI180
aI153
aI196
aI21
aI183
aI69
aI92
aI203
aI135
aI20
aI71
aI193
aI172
aI162
aI125
aI200
aI218
aI50
aI75
aI66
aI28
aI122
aI142
aI45
aI117
aI157
aI12
aI178
aI168
aI114
aI206
aI104
aI115
aI184
aI139
aI132
aI65
aI74
aI68
aI61
aI189
aI51
aI3
aI7
aI34
aI187
aI167
aI29
aI81
aI119
aI8
aI198
aI190
aI156
aI14
aI4
aI195
aI204
aI197
aI169
aI201
aI210
aI38
aI164
aI54
aI39
aI199
aI186
aI166
aI149
aI126
aI59
aI154
aI106
aI87
aI101
aI163
aI217
aI136
aI41
aI207
aI118
aI40
aI26
aI86
aI121
aI32
aI151
aI105
aI72
aI133
aa(lp10
I180
aI46
aI77
aI199
aI50
aI86
aI207
aI63
aI136
aI14
aI189
aI17
aI170
aI166
aI109
aI1
aI7
aI113
aI93
aI71
aI169
aI117
aI102
aI118
aI75
aI145
aI66
aI110
aI83
aI3
aI157
aI198
aI79
aI171
aI11
aI35
aI140
aI203
aI144
aI130
aI167
aI25
aI38
aI172
aI15
aI8
aI177
aI42
aI67
aI88
aI135
aI204
aI196
aI141
aI155
aI24
aI147
aI119
aI154
aI159
aI194
aI87
aI153
aI9
aI84
aI190
aI108
aI89
aI34
aI56
aI74
aI55
aI160
aI193
aI125
aI208
aI188
aI200
aI212
aI6
aI168
aI28
aI179
aI78
aI94
aI49
aI95
aI5
aI48
aI76
aI111
aI213
aI21
aI91
aI106
aI27
aI178
aI96
aI143
aI30
aI18
aI47
aI222
aI191
aI184
aI105
aI134
aI22
aI132
aI202
aI70
aI183
aI128
aI211
aI181
aI197
aI162
aI2
aI90
aI152
aI73
aI192
aI122
aI220
aI115
aI150
aI205
aI164
aI31
aI59
aI221
aI176
aI0
aI4
aI156
aI126
aI114
aI120
aI72
aI131
aI80
aI216
aI146
aI210
aI58
aI68
aI85
aI65
aI218
aI99
aI26
aI44
aI32
aI151
aI195
aI19
aI23
aI51
aI158
aI185
aI13
aI16
aI107
aI37
aI209
aI64
aI214
aI112
aI149
aI163
aI36
aI165
aI206
aI148
aI138
aI40
aI142
aI33
aI101
aI182
aI187
aI98
aI121
aI69
aI127
aI161
aI52
aI173
aI129
aI186
aI62
aI174
aI81
aI201
aI217
aI175
aI92
aI45
aI60
aI116
aI43
aI139
aI20
aI124
aI215
aI54
aI104
aI29
aI53
aI12
aI61
aI133
aI219
aI10
aI39
aI103
aI123
aI82
aI41
aI57
aI100
aI97
aI137
aa(lp11
I196
aI216
aI149
aI220
aI138
aI208
aI81
aI139
aI10
aI171
aI29
aI126
aI169
aI108
aI53
aI34
aI135
aI74
aI21
aI184
aI154
aI99
aI51
aI217
aI23
aI214
aI132
aI18
aI102
aI28
aI95
aI205
aI222
aI134
aI66
aI117
aI49
aI158
aI137
aI206
aI85
aI68
aI176
aI103
aI31
aI163
aI62
aI191
aI35
aI16
aI71
aI213
aI201
aI39
aI11
aI143
aI116
aI119
aI183
aI17
aI131
aI130
aI33
aI192
aI87
aI128
aI209
aI89
aI127
aI112
aI194
aI181
aI160
aI20
aI59
aI24
aI145
aI82
aI175
aI136
aI133
aI91
aI114
aI67
aI167
aI41
aI15
aI148
aI109
aI69
aI172
aI147
aI94
aI125
aI106
aI218
aI9
aI45
aI113
aI78
aI123
aI1
aI70
aI84
aI187
aI203
aI56
aI188
aI25
aI207
aI182
aI13
aI50
aI97
aI73
aI157
aI107
aI118
aI179
aI140
aI152
aI185
aI215
aI55
aI111
aI110
aI129
aI177
aI168
aI170
aI101
aI5
aI90
aI83
aI219
aI32
aI96
aI7
aI77
aI30
aI22
aI162
aI166
aI155
aI46
aI142
aI189
aI93
aI156
aI61
aI12
aI6
aI186
aI173
aI200
aI98
aI193
aI64
aI8
aI63
aI37
aI164
aI115
aI54
aI105
aI212
aI190
aI178
aI79
aI198
aI0
aI150
aI121
aI153
aI26
aI120
aI144
aI141
aI60
aI27
aI210
aI104
aI195
aI199
aI197
aI165
aI86
aI80
aI44
aI204
aI100
aI88
aI3
aI43
aI52
aI146
aI58
aI159
aI19
aI76
aI40
aI57
aI174
aI38
aI36
aI48
aI202
aI92
aI221
aI151
aI75
aI47
aI4
aI14
aI161
aI211
aI180
aI65
aI124
aI2
aI42
aI72
aI122
aa(lp12
I54
aI147
aI91
aI185
aI143
aI137
aI172
aI134
aI73
aI221
aI211
aI123
aI44
aI92
aI21
aI213
aI210
aI171
aI203
aI117
aI193
aI68
aI46
aI81
aI188
aI128
aI90
aI84
aI179
aI66
aI101
aI165
aI204
aI38
aI124
aI45
aI155
aI198
aI127
aI8
aI173
aI219
aI160
aI212
aI152
aI116
aI163
aI154
aI30
aI131
aI0
aI7
aI146
aI41
aI94
aI56
aI184
aI37
aI135
aI167
aI187
aI177
aI136
aI130
aI79
aI55
aI20
aI51
aI3
aI170
aI175
aI22
aI24
aI190
aI65
aI201
aI59
aI142
aI108
aI25
aI118
aI126
aI220
aI162
aI176
aI105
aI215
aI9
aI168
aI120
aI180
aI125
aI174
aI49
aI182
aI100
aI114
aI166
aI74
aI88
aI76
aI129
aI109
aI217
aI107
aI178
aI4
aI111
aI2
aI47
aI70
aI42
aI102
aI40
aI156
aI158
aI36
aI58
aI192
aI28
aI222
aI17
aI98
aI132
aI75
aI78
aI48
aI53
aI13
aI205
aI62
aI141
aI87
aI34
aI23
aI133
aI10
aI140
aI199
aI197
aI80
aI67
aI183
aI113
aI122
aI26
aI145
aI151
aI63
aI144
aI69
aI148
aI119
aI207
aI103
aI150
aI209
aI161
aI208
aI43
aI61
aI115
aI99
aI169
aI77
aI110
aI200
aI214
aI52
aI149
aI83
aI96
aI164
aI159
aI60
aI206
aI19
aI194
aI138
aI11
aI97
aI35
aI139
aI181
aI57
aI195
aI157
aI202
aI191
aI196
aI95
aI6
aI50
aI29
aI33
aI12
aI5
aI104
aI31
aI93
aI153
aI89
aI218
aI186
aI216
aI16
aI189
aI86
aI71
aI18
aI85
aI39
aI27
aI64
aI106
aI14
aI15
aI72
aI1
aI112
aI32
aI82
aI121
aa(lp13
I142
aI101
aI143
aI65
aI33
aI81
aI174
aI110
aI45
aI54
aI24
aI181
aI103
aI41
aI122
aI85
aI46
aI52
aI47
aI158
aI194
aI203
aI18
aI145
aI135
aI159
aI217
aI68
aI118
aI221
aI107
aI31
aI3
aI25
aI184
aI32
aI90
aI152
aI69
aI44
aI78
aI77
aI84
aI7
aI38
aI61
aI205
aI99
aI199
aI98
aI125
aI94
aI96
aI70
aI37
aI62
aI169
aI157
aI222
aI22
aI57
aI153
aI149
aI19
aI146
aI186
aI75
aI28
aI112
aI14
aI74
aI136
aI117
aI109
aI4
aI0
aI151
aI215
aI50
aI36
aI16
aI193
aI163
aI55
aI208
aI216
aI126
aI11
aI141
aI171
aI218
aI20
aI53
aI113
aI202
aI213
aI76
aI64
aI8
aI195
aI119
aI21
aI83
aI207
aI116
aI71
aI180
aI35
aI79
aI137
aI182
aI176
aI42
aI88
aI6
aI214
aI154
aI192
aI173
aI206
aI168
aI100
aI164
aI73
aI204
aI66
aI148
aI5
aI10
aI130
aI40
aI30
aI26
aI39
aI59
aI93
aI172
aI162
aI185
aI60
aI1
aI167
aI138
aI13
aI120
aI49
aI150
aI111
aI129
aI220
aI95
aI115
aI58
aI191
aI165
aI108
aI179
aI187
aI132
aI196
aI219
aI9
aI155
aI105
aI201
aI144
aI87
aI183
aI188
aI160
aI212
aI166
aI121
aI17
aI82
aI210
aI91
aI209
aI198
aI80
aI124
aI48
aI67
aI92
aI43
aI72
aI177
aI51
aI128
aI131
aI104
aI134
aI97
aI147
aI106
aI12
aI29
aI175
aI2
aI170
aI23
aI89
aI123
aI189
aI56
aI102
aI211
aI34
aI156
aI15
aI63
aI114
aI178
aI139
aI127
aI197
aI140
aI27
aI86
aI190
aI200
aI133
aI161
aa(lp14
I23
aI101
aI178
aI68
aI205
aI146
aI167
aI221
aI174
aI8
aI121
aI215
aI196
aI81
aI51
aI222
aI209
aI148
aI184
aI9
aI19
aI93
aI57
aI27
aI42
aI197
aI14
aI190
aI134
aI187
aI139
aI45
aI26
aI162
aI104
aI66
aI188
aI129
aI161
aI52
aI74
aI132
aI13
aI147
aI94
aI204
aI172
aI159
aI86
aI7
aI207
aI12
aI47
aI214
aI164
aI216
aI98
aI130
aI48
aI111
aI76
aI87
aI189
aI152
aI20
aI59
aI177
aI55
aI212
aI126
aI208
aI133
aI79
aI108
aI137
aI107
aI192
aI198
aI36
aI58
aI34
aI156
aI176
aI200
aI89
aI217
aI60
aI143
aI116
aI75
aI91
aI6
aI160
aI61
aI38
aI115
aI40
aI56
aI175
aI71
aI41
aI193
aI135
aI128
aI31
aI21
aI120
aI220
aI218
aI17
aI206
aI151
aI37
aI169
aI82
aI33
aI72
aI145
aI219
aI213
aI153
aI124
aI125
aI112
aI168
aI35
aI103
aI1
aI96
aI28
aI22
aI15
aI185
aI62
aI2
aI186
aI16
aI191
aI114
aI70
aI69
aI18
aI142
aI80
aI163
aI131
aI170
aI92
aI53
aI117
aI122
aI88
aI119
aI95
aI44
aI10
aI157
aI63
aI43
aI84
aI100
aI11
aI158
aI78
aI49
aI180
aI181
aI201
aI77
aI149
aI202
aI24
aI183
aI118
aI65
aI30
aI165
aI32
aI64
aI110
aI73
aI136
aI154
aI102
aI144
aI83
aI123
aI39
aI109
aI46
aI166
aI171
aI211
aI195
aI97
aI25
aI3
aI138
aI140
aI113
aI194
aI179
aI173
aI67
aI5
aI155
aI182
aI54
aI29
aI0
aI85
aI127
aI141
aI203
aI50
aI106
aI90
aI210
aI4
aI105
aI150
aI99
aI199
aa(lp15
I85
aI178
aI84
aI181
aI13
aI222
aI86
aI125
aI83
aI113
aI79
aI192
aI22
aI177
aI191
aI139
aI78
aI61
aI59
aI129
aI74
aI8
aI17
aI145
aI149
aI16
aI65
aI147
aI12
aI75
aI217
aI143
aI128
aI184
aI2
aI115
aI87
aI33
aI182
aI55
aI130
aI53
aI32
aI90
aI161
aI94
aI3
aI109
aI169
aI142
aI150
aI103
aI212
aI165
aI158
aI135
aI141
aI91
aI67
aI221
aI21
aI101
aI119
aI82
aI68
aI38
aI174
aI7
aI118
aI163
aI117
aI133
aI15
aI136
aI190
aI219
aI14
aI151
aI197
aI203
aI162
aI120
aI193
aI160
aI0
aI207
aI106
aI127
aI98
aI6
aI28
aI45
aI107
aI164
aI26
aI206
aI10
aI29
aI71
aI72
aI199
aI183
aI39
aI77
aI63
aI198
aI180
aI168
aI144
aI194
aI58
aI80
aI20
aI202
aI11
aI185
aI42
aI131
aI123
aI157
aI66
aI88
aI200
aI60
aI5
aI62
aI56
aI171
aI204
aI146
aI46
aI27
aI209
aI220
aI64
aI195
aI1
aI57
aI35
aI51
aI124
aI187
aI215
aI19
aI100
aI34
aI50
aI172
aI18
aI186
aI47
aI102
aI96
aI104
aI214
aI153
aI122
aI70
aI43
aI121
aI208
aI210
aI196
aI99
aI37
aI175
aI114
aI170
aI216
aI134
aI108
aI205
aI159
aI40
aI138
aI167
aI36
aI30
aI81
aI132
aI152
aI69
aI166
aI76
aI97
aI112
aI211
aI25
aI9
aI52
aI156
aI176
aI111
aI54
aI201
aI179
aI140
aI95
aI126
aI24
aI188
aI44
aI189
aI110
aI41
aI105
aI173
aI89
aI48
aI116
aI31
aI137
aI154
aI213
aI93
aI155
aI73
aI49
aI23
aI218
aI92
aI148
aI4
aa(lp16
I173
aI114
aI134
aI63
aI174
aI137
aI116
aI148
aI9
aI106
aI132
aI15
aI189
aI64
aI165
aI102
aI2
aI200
aI198
aI52
aI81
aI157
aI75
aI209
aI213
aI203
aI163
aI124
aI168
aI46
aI67
aI95
aI16
aI158
aI48
aI146
aI60
aI191
aI90
aI147
aI122
aI28
aI154
aI32
aI39
aI53
aI18
aI159
aI96
aI79
aI8
aI13
aI93
aI186
aI6
aI34
aI100
aI82
aI61
aI204
aI0
aI222
aI211
aI161
aI180
aI187
aI87
aI84
aI143
aI199
aI139
aI205
aI117
aI194
aI69
aI66
aI123
aI219
aI103
aI107
aI214
aI105
aI101
aI45
aI190
aI145
aI109
aI166
aI193
aI35
aI170
aI115
aI196
aI7
aI138
aI201
aI164
aI179
aI3
aI58
aI99
aI83
aI76
aI22
aI72
aI160
aI206
aI77
aI208
aI121
aI130
aI182
aI37
aI136
aI26
aI133
aI149
aI24
aI4
aI98
aI110
aI141
aI172
aI155
aI36
aI176
aI119
aI62
aI1
aI88
aI33
aI94
aI177
aI135
aI197
aI142
aI23
aI140
aI44
aI47
aI56
aI221
aI71
aI153
aI91
aI185
aI50
aI19
aI129
aI127
aI73
aI5
aI17
aI188
aI183
aI216
aI41
aI78
aI113
aI167
aI51
aI57
aI151
aI217
aI181
aI112
aI11
aI150
aI12
aI86
aI65
aI215
aI49
aI104
aI70
aI27
aI74
aI92
aI218
aI175
aI30
aI128
aI207
aI68
aI29
aI126
aI152
aI38
aI212
aI125
aI171
aI42
aI210
aI220
aI118
aI178
aI40
aI195
aI25
aI21
aI54
aI156
aI169
aI184
aI89
aI144
aI80
aI131
aI120
aI55
aI97
aI14
aI10
aI31
aI202
aI108
aI111
aI43
aI20
aI192
aI162
aI59
aI85
aa(lp17
I90
aI22
aI2
aI128
aI169
aI98
aI7
aI174
aI175
aI78
aI36
aI149
aI5
aI97
aI82
aI161
aI142
aI188
aI140
aI25
aI3
aI198
aI56
aI172
aI84
aI153
aI131
aI220
aI146
aI135
aI208
aI65
aI29
aI148
aI61
aI209
aI32
aI68
aI35
aI160
aI39
aI58
aI17
aI182
aI107
aI26
aI55
aI184
aI138
aI34
aI33
aI81
aI123
aI102
aI100
aI12
aI132
aI133
aI187
aI164
aI155
aI219
aI136
aI186
aI130
aI194
aI151
aI191
aI114
aI16
aI200
aI52
aI48
aI92
aI96
aI41
aI112
aI77
aI145
aI69
aI83
aI40
aI211
aI119
aI171
aI197
aI74
aI50
aI152
aI190
aI23
aI129
aI158
aI201
aI51
aI46
aI30
aI199
aI180
aI80
aI185
aI166
aI73
aI24
aI217
aI207
aI43
aI10
aI144
aI143
aI87
aI122
aI124
aI113
aI94
aI203
aI15
aI126
aI150
aI75
aI109
aI115
aI79
aI0
aI42
aI88
aI218
aI212
aI170
aI60
aI183
aI66
aI95
aI59
aI127
aI214
aI120
aI63
aI189
aI93
aI28
aI165
aI18
aI205
aI91
aI86
aI154
aI177
aI6
aI213
aI37
aI141
aI64
aI121
aI89
aI134
aI168
aI196
aI4
aI206
aI44
aI147
aI157
aI163
aI137
aI116
aI106
aI20
aI108
aI19
aI195
aI31
aI21
aI204
aI179
aI104
aI215
aI85
aI45
aI117
aI9
aI99
aI1
aI27
aI221
aI76
aI14
aI13
aI173
aI38
aI47
aI181
aI54
aI57
aI103
aI176
aI62
aI178
aI159
aI118
aI67
aI49
aI8
aI71
aI110
aI162
aI125
aI101
aI53
aI202
aI167
aI193
aI139
aI210
aI11
aI156
aI105
aI192
aI216
aI72
aI222
aI111
aI70
aa(lp18
I37
aI13
aI7
aI66
aI110
aI51
aI198
aI21
aI9
aI155
aI42
aI24
aI169
aI184
aI193
aI174
aI220
aI58
aI59
aI177
aI128
aI126
aI136
aI82
aI0
aI108
aI191
aI57
aI97
aI197
aI53
aI50
aI204
aI176
aI112
aI71
aI205
aI109
aI125
aI203
aI120
aI74
aI43
aI86
aI94
aI154
aI219
aI69
aI30
aI160
aI192
aI215
aI85
aI89
aI19
aI208
aI81
aI18
aI68
aI61
aI102
aI105
aI142
aI143
aI175
aI130
aI161
aI90
aI138
aI52
aI150
aI122
aI3
aI170
aI62
aI218
aI139
aI212
aI113
aI222
aI209
aI121
aI114
aI180
aI211
aI36
aI23
aI199
aI63
aI60
aI2
aI201
aI107
aI182
aI96
aI158
aI217
aI183
aI8
aI213
aI38
aI133
aI156
aI134
aI17
aI111
aI83
aI171
aI29
aI200
aI164
aI47
aI22
aI27
aI115
aI95
aI129
aI25
aI45
aI131
aI132
aI98
aI162
aI140
aI146
aI64
aI153
aI88
aI141
aI216
aI46
aI167
aI35
aI32
aI207
aI195
aI67
aI91
aI103
aI106
aI117
aI72
aI76
aI104
aI14
aI6
aI188
aI163
aI39
aI87
aI166
aI84
aI73
aI77
aI189
aI16
aI185
aI186
aI54
aI48
aI49
aI147
aI92
aI159
aI178
aI34
aI206
aI119
aI194
aI78
aI41
aI116
aI65
aI31
aI210
aI20
aI151
aI40
aI173
aI137
aI10
aI214
aI1
aI196
aI118
aI202
aI33
aI179
aI26
aI144
aI165
aI181
aI123
aI28
aI100
aI148
aI135
aI80
aI55
aI79
aI168
aI15
aI99
aI101
aI124
aI145
aI172
aI127
aI11
aI93
aI5
aI190
aI70
aI44
aI157
aI12
aI187
aI149
aI152
aI75
aI4
aI56
aI221
aa(lp19
I82
aI182
aI12
aI9
aI207
aI1
aI192
aI57
aI129
aI43
aI102
aI85
aI197
aI77
aI27
aI59
aI39
aI103
aI65
aI79
aI95
aI205
aI84
aI46
aI213
aI183
aI157
aI168
aI26
aI166
aI134
aI144
aI64
aI15
aI199
aI110
aI127
aI172
aI83
aI203
aI18
aI184
aI160
aI99
aI159
aI25
aI132
aI126
aI185
aI174
aI130
aI146
aI69
aI4
aI163
aI34
aI120
aI116
aI97
aI145
aI56
aI41
aI149
aI179
aI89
aI193
aI202
aI48
aI22
aI32
aI139
aI0
aI119
aI91
aI66
aI140
aI80
aI13
aI21
aI61
aI212
aI121
aI105
aI54
aI60
aI200
aI36
aI128
aI107
aI55
aI188
aI38
aI108
aI186
aI124
aI137
aI53
aI118
aI195
aI17
aI11
aI187
aI218
aI214
aI70
aI51
aI40
aI115
aI222
aI175
aI158
aI75
aI62
aI201
aI178
aI142
aI165
aI143
aI87
aI162
aI125
aI156
aI194
aI58
aI68
aI33
aI78
aI181
aI109
aI219
aI98
aI3
aI94
aI150
aI167
aI37
aI71
aI28
aI198
aI138
aI208
aI131
aI49
aI23
aI6
aI177
aI196
aI204
aI50
aI29
aI81
aI114
aI209
aI161
aI20
aI45
aI122
aI44
aI63
aI123
aI92
aI67
aI100
aI153
aI217
aI16
aI112
aI86
aI106
aI30
aI221
aI154
aI2
aI191
aI101
aI216
aI47
aI176
aI155
aI19
aI151
aI180
aI111
aI90
aI220
aI170
aI52
aI211
aI141
aI96
aI72
aI190
aI8
aI14
aI104
aI169
aI10
aI173
aI74
aI117
aI136
aI133
aI76
aI42
aI35
aI164
aI147
aI189
aI93
aI171
aI7
aI135
aI152
aI31
aI215
aI24
aI73
aI88
aI206
aI5
aI210
aI148
aI113
aa(lp20
I210
aI82
aI153
aI98
aI113
aI96
aI11
aI26
aI189
aI190
aI30
aI164
aI86
aI194
aI60
aI46
aI40
aI67
aI198
aI141
aI75
aI132
aI16
aI39
aI66
aI152
aI63
aI79
aI22
aI145
aI54
aI31
aI65
aI52
aI28
aI196
aI107
aI147
aI76
aI58
aI69
aI9
aI128
aI5
aI178
aI137
aI180
aI195
aI62
aI80
aI118
aI38
aI95
aI129
aI45
aI133
aI44
aI97
aI151
aI83
aI221
aI179
aI212
aI171
aI193
aI202
aI109
aI122
aI15
aI85
aI111
aI150
aI77
aI117
aI89
aI64
aI177
aI47
aI144
aI35
aI6
aI206
aI175
aI110
aI20
aI155
aI18
aI197
aI21
aI55
aI182
aI104
aI209
aI170
aI17
aI61
aI8
aI115
aI29
aI14
aI211
aI10
aI33
aI201
aI216
aI90
aI143
aI217
aI93
aI43
aI121
aI102
aI219
aI88
aI205
aI124
aI136
aI4
aI173
aI99
aI70
aI134
aI84
aI87
aI3
aI204
aI92
aI142
aI2
aI183
aI119
aI203
aI41
aI103
aI50
aI112
aI135
aI158
aI78
aI74
aI19
aI174
aI49
aI140
aI156
aI27
aI56
aI100
aI51
aI220
aI167
aI138
aI7
aI116
aI168
aI186
aI185
aI53
aI59
aI94
aI23
aI159
aI120
aI25
aI32
aI72
aI154
aI73
aI215
aI114
aI12
aI149
aI176
aI222
aI108
aI172
aI162
aI181
aI0
aI148
aI139
aI200
aI188
aI165
aI36
aI187
aI1
aI184
aI127
aI213
aI71
aI24
aI123
aI146
aI208
aI81
aI13
aI57
aI106
aI68
aI37
aI157
aI207
aI214
aI48
aI166
aI160
aI91
aI131
aI42
aI126
aI105
aI130
aI199
aI125
aI163
aI191
aI34
aI218
aI169
aI101
aI161
aI192
aa.