(lp0
(lp1
I29
aI23
aI47
aI83
aI78
aI57
aI56
aI94
aI49
aI33
aI93
aI66
aI40
aI45
aI27
aI99
aI87
aI77
aI81
aI42
aI50
aI20
aI37
aI30
aI70
aI12
aI35
aI15
aI76
aI44
aI75
aI64
aI26
aI16
aI80
aI38
aI2
aI96
aI97
aI91
aI74
aI73
aI62
aI41
aI89
aI86
aI54
aI60
aI52
aI51
aI13
aI65
aI6
aI24
aI53
aI0
aI55
aI4
aI79
aI68
aI71
aI21
aI85
aI22
aI34
aI58
aI3
aI5
aI95
aI46
aI61
aI1
aI11
aI10
aI14
aI43
aI36
aI69
aI84
aI9
aI19
aI39
aI88
aI31
aI28
aI48
aI17
aI67
aI8
aI72
aI82
aI92
aI63
aI59
aI90
aI25
aI32
aI98
aI7
aI18
aa(lp2
I33
aI61
aI58
aI59
aI23
aI19
aI86
aI26
aI11
aI85
aI43
aI55
aI34
aI53
aI72
aI37
aI49
aI84
aI7
aI9
aI73
aI48
aI20
aI64
aI44
aI32
aI63
aI54
aI89
aI81
aI1
aI92
aI62
aI56
aI57
aI8
aI35
aI66
aI25
aI47
aI24
aI88
aI97
aI80
aI78
aI69
aI13
aI70
aI18
aI38
aI67
aI3
aI45
aI79
aI15
aI76
aI71
aI21
aI5
aI60
aI95
aI99
aI90
aI0
aI27
aI94
aI51
aI22
aI4
aI29
aI82
aI31
aI77
aI96
aI12
aI40
aI2
aI98
aI75
aI68
aI91
aI36
aI52
aI65
aI41
aI74
aI39
aI83
aI14
aI17
aI87
aI30
aI28
aI50
aI10
aI46
aI42
aI16
aI93
aI6
aa(lp3
I51
aI41
aI44
aI47
aI90
aI21
aI72
aI49
aI20
aI82
aI54
aI14
aI88
aI62
aI56
aI11
aI33
aI97
aI26
aI46
aI60
aI66
aI87
aI93
aI28
aI84
aI18
aI78
aI39
aI65
aI40
aI7
aI57
aI34
aI0
aI69
aI68
aI58
aI16
aI9
aI76
aI70
aI8
aI3
aI10
aI13
aI95
aI23
aI81
aI31
aI79
aI83
aI32
aI5
aI4
aI35
aI43
aI63
aI48
aI59
aI92
aI24
aI22
aI71
aI52
aI98
aI2
aI85
aI77
aI67
aI38
aI89
aI64
aI50
aI15
aI75
aI17
aI55
aI45
aI36
aI12
aI96
aI37
aI99
aI42
aI94
aI86
aI61
aI91
aI6
aI74
aI27
aI73
aI29
aI19
aI80
aI53
aI1
aI30
aI25
aa(lp4
I64
aI54
aI48
aI74
aI41
aI44
aI22
aI91
aI26
aI75
aI14
aI2
aI90
aI66
aI37
aI53
aI81
aI30
aI12
aI40
aI3
aI87
aI25
aI34
aI68
aI63
aI46
aI76
aI97
aI39
aI35
aI65
aI6
aI71
aI13
aI93
aI80
aI24
aI72
aI82
aI18
aI62
aI94
aI27
aI1
aI70
aI51
aI11
aI50
aI67
aI95
aI10
aI19
aI56
aI58
aI79
aI61
aI60
aI15
aI57
aI69
aI96
aI7
aI23
aI49
aI9
aI36
aI4
aI73
aI88
aI31
aI86
aI89
aI92
aI52
aI28
aI38
aI47
aI59
aI0
aI84
aI45
aI98
aI20
aI78
aI55
aI32
aI83
aI77
aI43
aI21
aI17
aI5
aI16
aI85
aI99
aI33
aI8
aI42
aI29
aa(lp5
I66
aI74
aI69
aI41
aI52
aI68
aI79
aI0
aI37
aI97
aI80
aI46
aI5
aI48
aI11
aI17
aI94
aI2
aI24
aI45
aI7
aI42
aI58
aI91
aI44
aI19
aI47
aI65
aI35
aI33
aI16
aI81
aI1
aI13
aI57
aI36
aI64
aI98
aI90
aI55
aI20
aI49
aI75
aI92
aI76
aI18
aI78
aI85
aI38
aI27
aI72
aI88
aI71
aI12
aI60
aI56
aI67
aI40
aI25
aI82
aI83
aI15
aI4
aI29
aI31
aI3
aI23
aI96
aI51
aI73
aI9
aI43
aI77
aI53
aI61
aI30
aI28
aI8
aI95
aI70
aI84
aI21
aI26
aI22
aI34
aI93
aI62
aI14
aI10
aI32
aI6
aI63
aI89
aI99
aI54
aI59
aI86
aI87
aI39
aI50
aa(lp6
I28
aI91
aI42
aI51
aI49
aI35
aI92
aI21
aI13
aI45
aI43
aI65
aI56
aI27
aI2
aI82
aI25
aI9
aI53
aI32
aI29
aI81
aI79
aI36
aI24
aI6
aI11
aI26
aI47
aI15
aI7
aI83
aI44
aI37
aI8
aI22
aI78
aI80
aI39
aI19
aI77
aI16
aI34
aI40
aI88
aI89
aI62
aI31
aI30
aI4
aI18
aI97
aI1
aI87
aI94
aI20
aI72
aI17
aI84
aI33
aI58
aI98
aI5
aI14
aI52
aI68
aI50
aI99
aI48
aI41
aI55
aI95
aI67
aI70
aI12
aI75
aI66
aI73
aI96
aI38
aI57
aI64
aI85
aI23
aI90
aI60
aI59
aI3
aI93
aI69
aI63
aI74
aI61
aI46
aI10
aI71
aI0
aI76
aI54
aI86
aa(lp7
I84
aI88
aI86
aI16
aI20
aI96
aI61
aI99
aI33
aI5
aI48
aI9
aI40
aI6
aI80
aI74
aI39
aI47
aI0
aI69
aI2
aI1
aI78
aI12
aI85
aI94
aI49
aI38
aI32
aI27
aI73
aI62
aI50
aI52
aI72
aI10
aI41
aI89
aI90
aI66
aI95
aI30
aI57
aI29
aI97
aI54
aI92
aI23
aI60
aI53
aI65
aI75
aI17
aI15
aI77
aI58
aI42
aI71
aI67
aI79
aI98
aI44
aI63
aI59
aI25
aI11
aI43
aI91
aI26
aI56
aI4
aI13
aI21
aI81
aI14
aI22
aI36
aI37
aI76
aI70
aI46
aI64
aI24
aI3
aI55
aI45
aI82
aI8
aI18
aI87
aI28
aI93
aI31
aI51
aI7
aI19
aI83
aI34
aI68
aI35
aa(lp8
I91
aI92
aI73
aI49
aI85
aI25
aI44
aI96
aI97
aI87
aI48
aI10
aI90
aI53
aI39
aI6
aI83
aI0
aI47
aI79
aI81
aI75
aI19
aI71
aI34
aI64
aI27
aI20
aI95
aI14
aI41
aI43
aI74
aI69
aI33
aI78
aI99
aI55
aI65
aI7
aI16
aI62
aI68
aI32
aI76
aI52
aI93
aI46
aI17
aI59
aI13
aI38
aI84
aI70
aI4
aI30
aI86
aI50
aI60
aI58
aI80
aI24
aI54
aI5
aI72
aI51
aI77
aI82
aI88
aI21
aI35
aI45
aI26
aI98
aI8
aI15
aI12
aI28
aI37
aI94
aI29
aI66
aI22
aI18
aI1
aI63
aI9
aI61
aI42
aI23
aI57
aI56
aI89
aI3
aI2
aI36
aI31
aI67
aI40
aI11
aa(lp9
I36
aI91
aI83
aI24
aI80
aI76
aI86
aI78
aI13
aI26
aI81
aI51
aI33
aI98
aI2
aI16
aI65
aI62
aI82
aI94
aI20
aI27
aI19
aI55
aI17
aI39
aI89
aI63
aI41
aI73
aI54
aI66
aI88
aI48
aI87
aI77
aI7
aI21
aI38
aI1
aI95
aI12
aI22
aI34
aI49
aI79
aI6
aI70
aI37
aI32
aI50
aI71
aI18
aI31
aI85
aI96
aI84
aI30
aI69
aI97
aI8
aI57
aI58
aI99
aI59
aI43
aI0
aI29
aI92
aI68
aI40
aI64
aI60
aI23
aI67
aI5
aI44
aI11
aI15
aI75
aI42
aI47
aI3
aI53
aI52
aI45
aI25
aI10
aI4
aI93
aI14
aI74
aI90
aI61
aI35
aI72
aI9
aI28
aI56
aI46
aa(lp10
I80
aI64
aI5
aI52
aI28
aI89
aI83
aI32
aI59
aI15
aI41
aI86
aI57
aI1
aI17
aI45
aI53
aI77
aI55
aI73
aI26
aI81
aI34
aI14
aI58
aI61
aI75
aI16
aI8
aI92
aI91
aI22
aI85
aI24
aI21
aI46
aI88
aI29
aI95
aI62
aI87
aI2
aI93
aI67
aI70
aI66
aI76
aI11
aI60
aI51
aI90
aI94
aI98
aI4
aI3
aI19
aI12
aI31
aI35
aI84
aI36
aI47
aI79
aI42
aI43
aI56
aI39
aI37
aI65
aI23
aI68
aI40
aI50
aI48
aI54
aI49
aI0
aI33
aI30
aI18
aI69
aI63
aI71
aI6
aI97
aI25
aI44
aI99
aI27
aI96
aI7
aI74
aI38
aI9
aI20
aI78
aI72
aI10
aI13
aI82
aa(lp11
I42
aI67
aI77
aI7
aI40
aI30
aI81
aI78
aI44
aI72
aI84
aI54
aI3
aI9
aI37
aI49
aI8
aI38
aI10
aI17
aI34
aI57
aI91
aI94
aI74
aI41
aI97
aI65
aI12
aI32
aI45
aI48
aI26
aI14
aI83
aI98
aI28
aI19
aI60
aI11
aI76
aI62
aI56
aI2
aI1
aI73
aI92
aI39
aI89
aI58
aI70
aI13
aI36
aI90
aI66
aI24
aI47
aI43
aI61
aI20
aI35
aI87
aI95
aI99
aI68
aI27
aI21
aI59
aI18
aI82
aI55
aI50
aI5
aI86
aI53
aI85
aI96
aI0
aI15
aI6
aI80
aI63
aI71
aI88
aI29
aI52
aI51
aI33
aI46
aI69
aI25
aI93
aI16
aI75
aI31
aI64
aI4
aI79
aI22
aI23
aa(lp12
I34
aI17
aI63
aI91
aI33
aI69
aI26
aI15
aI30
aI84
aI49
aI14
aI65
aI46
aI93
aI75
aI86
aI2
aI20
aI25
aI68
aI83
aI36
aI27
aI21
aI98
aI4
aI18
aI73
aI23
aI22
aI77
aI38
aI81
aI7
aI31
aI57
aI92
aI95
aI61
aI51
aI1
aI59
aI5
aI76
aI45
aI0
aI3
aI48
aI19
aI10
aI47
aI94
aI96
aI88
aI64
aI60
aI90
aI99
aI12
aI40
aI9
aI71
aI11
aI87
aI13
aI79
aI28
aI58
aI8
aI78
aI56
aI32
aI16
aI37
aI85
aI35
aI72
aI50
aI74
aI41
aI29
aI42
aI80
aI24
aI44
aI89
aI6
aI43
aI82
aI66
aI67
aI39
aI70
aI97
aI54
aI62
aI53
aI52
aI55
aa(lp13
I45
aI82
aI18
aI99
aI36
aI81
aI32
aI3
aI93
aI67
aI15
aI51
aI89
aI71
aI97
aI96
aI17
aI57
aI42
aI1
aI80
aI86
aI84
aI69
aI16
aI76
aI29
aI9
aI75
aI38
aI2
aI52
aI79
aI47
aI63
aI19
aI30
aI8
aI7
aI58
aI50
aI5
aI94
aI14
aI73
aI23
aI33
aI37
aI68
aI49
aI26
aI60
aI46
aI27
aI31
aI28
aI87
aI35
aI74
aI83
aI88
aI20
aI70
aI24
aI59
aI41
aI54
aI13
aI21
aI25
aI72
aI62
aI91
aI22
aI11
aI66
aI61
aI0
aI44
aI6
aI4
aI55
aI95
aI40
aI10
aI92
aI12
aI53
aI64
aI43
aI77
aI90
aI56
aI34
aI78
aI85
aI65
aI39
aI48
aI98
aa(lp14
I34
aI5
aI17
aI82
aI65
aI0
aI89
aI64
aI25
aI94
aI21
aI26
aI48
aI33
aI56
aI38
aI45
aI4
aI32
aI74
aI59
aI20
aI1
aI7
aI52
aI3
aI36
aI22
aI27
aI18
aI46
aI75
aI70
aI43
aI71
aI42
aI69
aI35
aI93
aI73
aI13
aI9
aI97
aI29
aI72
aI16
aI60
aI92
aI31
aI30
aI12
aI99
aI58
aI83
aI68
aI87
aI90
aI49
aI8
aI50
aI95
aI88
aI86
aI28
aI44
aI78
aI77
aI23
aI2
aI40
aI62
aI67
aI54
aI57
aI76
aI37
aI6
aI55
aI14
aI85
aI24
aI53
aI10
aI84
aI11
aI61
aI91
aI63
aI51
aI98
aI80
aI79
aI15
aI47
aI81
aI96
aI19
aI39
aI41
aI66
aa(lp15
I38
aI99
aI44
aI32
aI78
aI91
aI28
aI73
aI18
aI92
aI71
aI58
aI22
aI61
aI50
aI86
aI67
aI96
aI95
aI25
aI36
aI9
aI79
aI26
aI27
aI84
aI11
aI14
aI66
aI69
aI51
aI34
aI24
aI42
aI45
aI56
aI75
aI49
aI35
aI64
aI41
aI23
aI48
aI5
aI72
aI70
aI52
aI3
aI90
aI43
aI40
aI65
aI88
aI39
aI6
aI89
aI94
aI1
aI54
aI7
aI29
aI20
aI59
aI19
aI53
aI37
aI12
aI57
aI8
aI2
aI85
aI62
aI74
aI97
aI10
aI13
aI16
aI21
aI98
aI55
aI76
aI77
aI63
aI81
aI80
aI33
aI46
aI31
aI93
aI60
aI47
aI82
aI15
aI30
aI4
aI17
aI87
aI83
aI0
aI68
aa(lp16
I15
aI62
aI70
aI30
aI24
aI51
aI23
aI81
aI76
aI66
aI90
aI84
aI5
aI43
aI21
aI94
aI9
aI92
aI74
aI38
aI26
aI45
aI10
aI33
aI87
aI99
aI39
aI28
aI61
aI2
aI97
aI55
aI18
aI13
aI83
aI50
aI27
aI85
aI52
aI56
aI58
aI25
aI1
aI32
aI96
aI36
aI11
aI77
aI7
aI34
aI95
aI63
aI46
aI60
aI73
aI65
aI82
aI57
aI19
aI71
aI91
aI54
aI40
aI48
aI3
aI67
aI42
aI80
aI4
aI47
aI31
aI68
aI37
aI16
aI89
aI17
aI53
aI14
aI12
aI75
aI29
aI44
aI0
aI20
aI72
aI69
aI86
aI8
aI35
aI59
aI98
aI93
aI88
aI78
aI79
aI41
aI49
aI6
aI64
aI22
aa(lp17
I49
aI98
aI40
aI18
aI56
aI79
aI73
aI20
aI37
aI26
aI53
aI87
aI5
aI61
aI36
aI55
aI2
aI48
aI72
aI35
aI41
aI89
aI97
aI32
aI22
aI23
aI31
aI70
aI33
aI19
aI30
aI64
aI8
aI43
aI13
aI1
aI28
aI81
aI78
aI66
aI21
aI77
aI57
aI11
aI85
aI38
aI96
aI44
aI34
aI68
aI71
aI29
aI17
aI80
aI52
aI24
aI46
aI10
aI74
aI92
aI15
aI6
aI47
aI0
aI65
aI9
aI75
aI62
aI94
aI4
aI99
aI76
aI90
aI25
aI60
aI84
aI63
aI7
aI59
aI12
aI16
aI95
aI42
aI82
aI3
aI93
aI58
aI45
aI14
aI67
aI54
aI83
aI27
aI69
aI51
aI86
aI39
aI50
aI88
aI91
aa(lp18
I2
aI95
aI17
aI5
aI54
aI18
aI21
aI87
aI46
aI78
aI55
aI65
aI47
aI60
aI76
aI75
aI35
aI28
aI33
aI85
aI3
aI25
aI50
aI44
aI70
aI69
aI38
aI59
aI91
aI94
aI67
aI20
aI1
aI90
aI6
aI77
aI45
aI81
aI15
aI23
aI40
aI34
aI10
aI86
aI64
aI7
aI22
aI31
aI53
aI39
aI74
aI52
aI56
aI26
aI24
aI32
aI80
aI27
aI63
aI98
aI41
aI42
aI88
aI62
aI48
aI11
aI51
aI92
aI73
aI84
aI30
aI49
aI14
aI66
aI36
aI61
aI19
aI13
aI89
aI9
aI83
aI29
aI96
aI43
aI16
aI57
aI82
aI12
aI4
aI8
aI58
aI68
aI99
aI71
aI79
aI97
aI37
aI93
aI0
aI72
aa(lp19
I79
aI53
aI69
aI10
aI95
aI12
aI87
aI48
aI43
aI86
aI3
aI98
aI63
aI32
aI9
aI41
aI21
aI26
aI31
aI81
aI72
aI52
aI45
aI61
aI57
aI14
aI20
aI29
aI65
aI4
aI74
aI39
aI93
aI82
aI64
aI83
aI25
aI36
aI55
aI44
aI89
aI49
aI22
aI1
aI19
aI13
aI50
aI51
aI90
aI67
aI38
aI96
aI84
aI11
aI54
aI75
aI8
aI77
aI28
aI17
aI7
aI0
aI58
aI62
aI94
aI37
aI60
aI73
aI66
aI40
aI24
aI88
aI34
aI76
aI46
aI35
aI30
aI47
aI59
aI91
aI2
aI23
aI85
aI18
aI97
aI92
aI71
aI33
aI15
aI78
aI16
aI80
aI70
aI68
aI6
aI42
aI56
aI27
aI99
aI5
aa(lp20
I21
aI47
aI92
aI65
aI19
aI39
aI25
aI60
aI40
aI42
aI23
aI54
aI95
aI91
aI94
aI28
aI84
aI86
aI4
aI51
aI43
aI85
aI66
aI0
aI71
aI31
aI29
aI38
aI77
aI27
aI67
aI99
aI58
aI81
aI41
aI49
aI37
aI69
aI79
aI53
aI26
aI64
aI52
aI73
aI93
aI9
aI20
aI88
aI11
aI97
aI30
aI24
aI36
aI46
aI56
aI62
aI5
aI17
aI16
aI1
aI18
aI48
aI87
aI96
aI68
aI57
aI50
aI32
aI90
aI70
aI78
aI33
aI35
aI14
aI59
aI3
aI83
aI2
aI75
aI8
aI74
aI76
aI13
aI72
aI61
aI10
aI82
aI89
aI45
aI7
aI55
aI15
aI80
aI22
aI44
aI34
aI98
aI12
aI6
aI63
aa.