(lp0
(lp1
I47
aI2
aI86
aI28
aI30
aI10
aI27
aI1
aI34
aI70
aI53
aI5
aI41
aI45
aI62
aI82
aI77
aI26
aI42
aI31
aI65
aI68
aI29
aI33
aI25
aI12
aI0
aI35
aI54
aI40
aI80
aI74
aI15
aI64
aI18
aI52
aI23
aI3
aI57
aI37
aI36
aI51
aI58
aI7
aI81
aI39
aI84
aI67
aI59
aI66
aI87
aI60
aI73
aI55
aI16
aI14
aI4
aI19
aI61
aI11
aI69
aI9
aI24
aI71
aI63
aI79
aI20
aI75
aI8
aI49
aI38
aI32
aI13
aI46
aI22
aI21
aI72
aI85
aI44
aI50
aI48
aI76
aI83
aI17
aI6
aI56
aI78
aI43
aa(lp2
I41
aI67
aI84
aI4
aI9
aI30
aI22
aI2
aI33
aI25
aI40
aI57
aI61
aI62
aI54
aI32
aI37
aI85
aI14
aI51
aI60
aI58
aI16
aI55
aI3
aI13
aI66
aI74
aI43
aI26
aI75
aI11
aI20
aI68
aI36
aI81
aI21
aI47
aI63
aI56
aI86
aI6
aI53
aI69
aI72
aI44
aI73
aI0
aI34
aI45
aI80
aI50
aI29
aI82
aI1
aI10
aI83
aI76
aI8
aI52
aI28
aI70
aI42
aI79
aI24
aI48
aI5
aI87
aI23
aI39
aI7
aI35
aI19
aI64
aI59
aI17
aI77
aI31
aI46
aI15
aI49
aI12
aI65
aI71
aI18
aI78
aI27
aI38
aa(lp3
I8
aI21
aI61
aI62
aI32
aI2
aI51
aI5
aI29
aI78
aI42
aI13
aI58
aI43
aI4
aI15
aI65
aI14
aI12
aI54
aI16
aI76
aI74
aI67
aI52
aI50
aI69
aI46
aI84
aI71
aI19
aI55
aI48
aI31
aI44
aI75
aI79
aI85
aI6
aI30
aI66
aI34
aI0
aI68
aI86
aI9
aI27
aI28
aI77
aI1
aI36
aI39
aI57
aI40
aI63
aI7
aI11
aI80
aI41
aI22
aI3
aI60
aI73
aI18
aI72
aI47
aI10
aI26
aI38
aI37
aI81
aI45
aI82
aI23
aI83
aI64
aI17
aI70
aI33
aI59
aI24
aI20
aI25
aI49
aI56
aI53
aI35
aI87
aa(lp4
I54
aI72
aI57
aI12
aI58
aI6
aI28
aI42
aI19
aI0
aI27
aI76
aI13
aI73
aI65
aI71
aI75
aI87
aI38
aI31
aI64
aI25
aI17
aI7
aI22
aI47
aI26
aI1
aI53
aI45
aI43
aI59
aI29
aI78
aI63
aI34
aI2
aI32
aI60
aI30
aI23
aI5
aI46
aI52
aI18
aI67
aI83
aI21
aI50
aI40
aI37
aI74
aI61
aI68
aI10
aI49
aI36
aI70
aI41
aI51
aI33
aI9
aI66
aI20
aI44
aI15
aI16
aI24
aI55
aI81
aI14
aI11
aI82
aI77
aI80
aI86
aI62
aI35
aI48
aI85
aI3
aI79
aI56
aI39
aI4
aI8
aI69
aI84
aa(lp5
I76
aI1
aI5
aI57
aI14
aI63
aI61
aI54
aI25
aI33
aI66
aI9
aI85
aI45
aI32
aI26
aI78
aI43
aI73
aI47
aI83
aI17
aI2
aI35
aI8
aI19
aI49
aI31
aI70
aI20
aI75
aI46
aI84
aI71
aI37
aI44
aI53
aI41
aI67
aI18
aI6
aI65
aI81
aI40
aI10
aI22
aI13
aI11
aI51
aI55
aI79
aI27
aI74
aI72
aI64
aI69
aI30
aI21
aI7
aI39
aI42
aI16
aI77
aI50
aI23
aI86
aI60
aI58
aI68
aI36
aI62
aI87
aI48
aI34
aI80
aI24
aI0
aI56
aI82
aI59
aI29
aI52
aI4
aI15
aI38
aI12
aI28
aI3
aa(lp6
I54
aI77
aI35
aI14
aI62
aI70
aI7
aI2
aI48
aI53
aI29
aI34
aI21
aI4
aI1
aI82
aI73
aI23
aI25
aI45
aI37
aI40
aI80
aI0
aI12
aI27
aI83
aI44
aI16
aI59
aI26
aI24
aI68
aI15
aI9
aI61
aI28
aI20
aI75
aI3
aI19
aI52
aI69
aI5
aI66
aI47
aI46
aI56
aI32
aI84
aI17
aI63
aI78
aI55
aI6
aI50
aI85
aI76
aI60
aI81
aI86
aI57
aI36
aI79
aI43
aI58
aI38
aI22
aI33
aI49
aI65
aI72
aI13
aI42
aI8
aI18
aI11
aI74
aI39
aI30
aI64
aI71
aI41
aI87
aI51
aI31
aI67
aI10
aa(lp7
I63
aI30
aI69
aI60
aI73
aI22
aI46
aI81
aI65
aI53
aI8
aI84
aI33
aI87
aI80
aI17
aI79
aI42
aI27
aI28
aI85
aI23
aI10
aI13
aI77
aI83
aI43
aI72
aI11
aI2
aI52
aI40
aI51
aI0
aI86
aI66
aI21
aI75
aI67
aI50
aI54
aI25
aI58
aI68
aI14
aI37
aI12
aI29
aI49
aI39
aI5
aI82
aI15
aI48
aI70
aI71
aI61
aI76
aI64
aI57
aI34
aI56
aI7
aI45
aI24
aI38
aI26
aI55
aI62
aI1
aI3
aI47
aI19
aI36
aI74
aI35
aI41
aI32
aI6
aI44
aI31
aI20
aI4
aI78
aI9
aI59
aI18
aI16
aa(lp8
I75
aI40
aI47
aI49
aI10
aI25
aI78
aI21
aI53
aI37
aI43
aI64
aI2
aI80
aI61
aI48
aI20
aI71
aI9
aI54
aI60
aI77
aI51
aI55
aI0
aI38
aI79
aI81
aI69
aI72
aI30
aI52
aI35
aI14
aI12
aI42
aI66
aI63
aI83
aI15
aI26
aI56
aI27
aI82
aI13
aI39
aI17
aI19
aI85
aI29
aI32
aI76
aI84
aI36
aI44
aI18
aI11
aI5
aI74
aI41
aI87
aI4
aI28
aI68
aI65
aI33
aI24
aI8
aI3
aI45
aI57
aI1
aI86
aI22
aI7
aI62
aI23
aI34
aI16
aI58
aI73
aI50
aI31
aI6
aI70
aI46
aI67
aI59
aa(lp9
I39
aI32
aI78
aI33
aI75
aI49
aI43
aI12
aI51
aI2
aI14
aI18
aI72
aI81
aI13
aI21
aI47
aI67
aI22
aI37
aI20
aI64
aI30
aI68
aI87
aI70
aI66
aI45
aI11
aI73
aI77
aI8
aI1
aI7
aI83
aI54
aI16
aI19
aI28
aI26
aI80
aI55
aI61
aI52
aI27
aI50
aI63
aI44
aI3
aI24
aI57
aI74
aI9
aI79
aI76
aI41
aI40
aI71
aI35
aI17
aI48
aI38
aI65
aI84
aI5
aI62
aI29
aI53
aI34
aI36
aI59
aI60
aI23
aI58
aI4
aI10
aI86
aI6
aI46
aI15
aI56
aI31
aI82
aI42
aI69
aI0
aI85
aI25
aa(lp10
I55
aI13
aI17
aI35
aI72
aI82
aI76
aI37
aI2
aI44
aI69
aI83
aI22
aI48
aI24
aI46
aI5
aI58
aI8
aI49
aI6
aI12
aI50
aI30
aI18
aI34
aI26
aI29
aI57
aI41
aI73
aI25
aI81
aI63
aI43
aI32
aI21
aI71
aI59
aI42
aI10
aI87
aI36
aI1
aI54
aI14
aI77
aI80
aI27
aI78
aI38
aI53
aI74
aI11
aI19
aI85
aI4
aI66
aI52
aI75
aI68
aI39
aI16
aI0
aI67
aI56
aI23
aI64
aI33
aI3
aI40
aI79
aI31
aI65
aI47
aI15
aI61
aI60
aI51
aI70
aI45
aI86
aI84
aI62
aI7
aI28
aI20
aI9
aa(lp11
I57
aI28
aI71
aI73
aI0
aI17
aI22
aI23
aI10
aI62
aI5
aI80
aI12
aI2
aI72
aI54
aI65
aI70
aI9
aI45
aI77
aI6
aI52
aI27
aI25
aI76
aI18
aI56
aI86
aI87
aI11
aI16
aI49
aI7
aI30
aI85
aI3
aI68
aI84
aI60
aI4
aI69
aI59
aI67
aI74
aI41
aI40
aI53
aI64
aI75
aI20
aI29
aI43
aI36
aI38
aI47
aI35
aI33
aI37
aI31
aI15
aI1
aI39
aI8
aI26
aI48
aI63
aI79
aI55
aI83
aI50
aI51
aI82
aI34
aI24
aI58
aI14
aI81
aI42
aI19
aI32
aI78
aI66
aI44
aI21
aI46
aI61
aI13
aa(lp12
I65
aI21
aI20
aI17
aI38
aI68
aI37
aI82
aI16
aI59
aI1
aI3
aI23
aI0
aI26
aI84
aI63
aI50
aI44
aI31
aI5
aI11
aI6
aI12
aI72
aI51
aI77
aI80
aI4
aI10
aI58
aI70
aI43
aI53
aI15
aI79
aI66
aI78
aI71
aI13
aI73
aI7
aI33
aI25
aI62
aI48
aI2
aI74
aI39
aI69
aI8
aI54
aI67
aI36
aI60
aI46
aI32
aI56
aI81
aI64
aI28
aI47
aI75
aI14
aI85
aI42
aI24
aI19
aI34
aI45
aI55
aI61
aI9
aI76
aI41
aI22
aI49
aI40
aI27
aI57
aI83
aI30
aI87
aI29
aI18
aI52
aI86
aI35
aa(lp13
I70
aI1
aI38
aI8
aI85
aI82
aI25
aI84
aI75
aI51
aI46
aI77
aI55
aI61
aI19
aI40
aI6
aI4
aI54
aI78
aI18
aI69
aI47
aI62
aI65
aI29
aI57
aI28
aI26
aI60
aI67
aI83
aI22
aI11
aI53
aI87
aI86
aI42
aI74
aI32
aI30
aI0
aI13
aI10
aI66
aI24
aI45
aI72
aI21
aI43
aI14
aI63
aI64
aI71
aI58
aI20
aI39
aI44
aI56
aI76
aI50
aI23
aI48
aI81
aI15
aI36
aI73
aI49
aI12
aI9
aI3
aI31
aI2
aI17
aI5
aI68
aI79
aI80
aI34
aI16
aI33
aI27
aI41
aI59
aI37
aI52
aI7
aI35
aa(lp14
I18
aI10
aI37
aI25
aI58
aI86
aI87
aI26
aI53
aI82
aI45
aI24
aI78
aI63
aI19
aI39
aI13
aI32
aI59
aI23
aI57
aI64
aI14
aI8
aI9
aI67
aI50
aI0
aI79
aI35
aI75
aI62
aI11
aI41
aI30
aI42
aI81
aI61
aI17
aI65
aI6
aI7
aI5
aI68
aI12
aI2
aI83
aI4
aI16
aI43
aI74
aI70
aI44
aI28
aI38
aI22
aI49
aI31
aI27
aI52
aI69
aI1
aI56
aI40
aI48
aI34
aI55
aI3
aI71
aI20
aI84
aI15
aI47
aI66
aI46
aI21
aI72
aI73
aI76
aI36
aI85
aI60
aI33
aI51
aI29
aI80
aI54
aI77
aa(lp15
I35
aI79
aI12
aI18
aI71
aI13
aI32
aI69
aI44
aI15
aI42
aI33
aI68
aI78
aI20
aI63
aI74
aI59
aI48
aI45
aI86
aI84
aI81
aI70
aI66
aI30
aI54
aI21
aI7
aI76
aI53
aI5
aI22
aI43
aI23
aI47
aI1
aI83
aI34
aI3
aI77
aI52
aI10
aI29
aI38
aI64
aI73
aI61
aI50
aI72
aI75
aI27
aI17
aI56
aI9
aI28
aI0
aI25
aI41
aI19
aI8
aI87
aI31
aI26
aI51
aI80
aI85
aI82
aI67
aI62
aI40
aI24
aI57
aI6
aI65
aI4
aI14
aI16
aI36
aI60
aI46
aI55
aI11
aI39
aI2
aI37
aI49
aI58
aa(lp16
I69
aI1
aI3
aI85
aI17
aI28
aI84
aI87
aI4
aI34
aI46
aI21
aI24
aI49
aI12
aI79
aI2
aI44
aI81
aI31
aI83
aI77
aI47
aI32
aI68
aI8
aI39
aI38
aI80
aI63
aI11
aI19
aI71
aI0
aI14
aI10
aI35
aI67
aI42
aI65
aI75
aI86
aI6
aI18
aI48
aI29
aI78
aI61
aI7
aI16
aI40
aI25
aI41
aI43
aI22
aI26
aI45
aI54
aI76
aI73
aI52
aI60
aI20
aI64
aI53
aI70
aI66
aI51
aI55
aI33
aI15
aI27
aI62
aI57
aI72
aI30
aI56
aI23
aI37
aI5
aI36
aI58
aI9
aI59
aI82
aI50
aI74
aI13
aa(lp17
I28
aI12
aI50
aI83
aI1
aI36
aI69
aI81
aI7
aI84
aI11
aI41
aI64
aI26
aI9
aI63
aI23
aI80
aI82
aI49
aI32
aI73
aI78
aI34
aI31
aI55
aI4
aI33
aI46
aI87
aI15
aI18
aI38
aI35
aI72
aI75
aI62
aI30
aI53
aI40
aI27
aI51
aI85
aI45
aI19
aI3
aI2
aI39
aI24
aI54
aI52
aI13
aI66
aI8
aI10
aI57
aI37
aI29
aI60
aI17
aI59
aI21
aI42
aI6
aI0
aI47
aI71
aI61
aI44
aI48
aI58
aI70
aI74
aI20
aI56
aI43
aI68
aI16
aI79
aI77
aI67
aI5
aI22
aI76
aI25
aI65
aI14
aI86
aa(lp18
I76
aI7
aI12
aI6
aI18
aI46
aI33
aI45
aI21
aI78
aI23
aI86
aI27
aI77
aI69
aI26
aI15
aI74
aI66
aI10
aI37
aI35
aI49
aI44
aI58
aI3
aI63
aI8
aI2
aI34
aI43
aI29
aI82
aI62
aI55
aI80
aI65
aI52
aI50
aI22
aI67
aI87
aI51
aI53
aI57
aI60
aI25
aI41
aI36
aI38
aI42
aI40
aI85
aI31
aI17
aI64
aI28
aI20
aI16
aI83
aI1
aI39
aI24
aI13
aI79
aI9
aI68
aI19
aI84
aI61
aI47
aI32
aI72
aI70
aI0
aI56
aI59
aI75
aI71
aI54
aI11
aI5
aI14
aI4
aI48
aI81
aI73
aI30
aa(lp19
I80
aI39
aI2
aI12
aI76
aI83
aI25
aI74
aI3
aI50
aI30
aI1
aI42
aI75
aI85
aI16
aI55
aI64
aI38
aI49
aI7
aI18
aI24
aI6
aI29
aI79
aI37
aI65
aI71
aI26
aI72
aI68
aI52
aI31
aI73
aI23
aI58
aI59
aI11
aI27
aI86
aI54
aI87
aI43
aI84
aI46
aI34
aI19
aI4
aI32
aI60
aI61
aI13
aI57
aI70
aI47
aI17
aI21
aI44
aI0
aI40
aI66
aI9
aI51
aI69
aI5
aI41
aI15
aI33
aI22
aI36
aI82
aI20
aI81
aI14
aI62
aI53
aI35
aI45
aI8
aI28
aI63
aI48
aI78
aI56
aI67
aI77
aI10
aa(lp20
I60
aI79
aI71
aI32
aI25
aI34
aI9
aI52
aI3
aI44
aI19
aI70
aI29
aI28
aI66
aI48
aI23
aI84
aI42
aI46
aI62
aI43
aI21
aI54
aI7
aI82
aI58
aI78
aI33
aI31
aI53
aI64
aI11
aI68
aI87
aI56
aI27
aI4
aI73
aI55
aI38
aI65
aI8
aI85
aI49
aI80
aI75
aI5
aI16
aI22
aI59
aI83
aI40
aI6
aI10
aI51
aI72
aI39
aI77
aI69
aI63
aI36
aI24
aI45
aI26
aI1
aI20
aI41
aI61
aI12
aI47
aI57
aI2
aI37
aI18
aI13
aI86
aI0
aI76
aI35
aI74
aI17
aI14
aI67
aI30
aI15
aI50
aI81
aa.