(lp0
(lp1
I219
aI188
aI201
aI73
aI262
aI179
aI75
aI171
aI37
aI182
aI108
aI55
aI17
aI264
aI34
aI26
aI156
aI82
aI225
aI129
aI222
aI197
aI45
aI134
aI151
aI191
aI30
aI183
aI124
aI153
aI140
aI270
aI22
aI236
aI20
aI224
aI194
aI100
aI98
aI199
aI141
aI193
aI228
aI95
aI133
aI38
aI128
aI109
aI244
aI71
aI160
aI258
aI157
aI94
aI135
aI214
aI115
aI195
aI233
aI212
aI163
aI155
aI67
aI4
aI249
aI200
aI110
aI42
aI208
aI165
aI52
aI266
aI121
aI107
aI125
aI126
aI120
aI220
aI77
aI158
aI215
aI68
aI118
aI278
aI14
aI256
aI268
aI189
aI207
aI16
aI89
aI274
aI47
aI265
aI209
aI272
aI97
aI54
aI230
aI255
aI146
aI276
aI113
aI280
aI10
aI7
aI231
aI229
aI70
aI84
aI170
aI145
aI60
aI2
aI166
aI190
aI275
aI216
aI167
aI227
aI198
aI92
aI243
aI96
aI159
aI29
aI87
aI164
aI260
aI59
aI130
aI114
aI18
aI74
aI174
aI93
aI149
aI142
aI9
aI143
aI206
aI91
aI53
aI24
aI203
aI211
aI69
aI169
aI40
aI127
aI72
aI88
aI150
aI245
aI161
aI112
aI247
aI56
aI242
aI5
aI253
aI263
aI0
aI257
aI36
aI43
aI186
aI117
aI232
aI217
aI181
aI192
aI79
aI173
aI78
aI269
aI64
aI83
aI8
aI131
aI240
aI21
aI202
aI226
aI46
aI147
aI144
aI1
aI250
aI32
aI246
aI49
aI41
aI218
aI178
aI204
aI81
aI57
aI19
aI90
aI237
aI80
aI28
aI65
aI139
aI35
aI196
aI11
aI105
aI281
aI76
aI13
aI25
aI63
aI279
aI254
aI210
aI205
aI239
aI137
aI152
aI44
aI168
aI86
aI99
aI221
aI234
aI103
aI104
aI66
aI85
aI267
aI23
aI175
aI223
aI138
aI185
aI6
aI33
aI48
aI238
aI213
aI162
aI252
aI172
aI51
aI15
aI12
aI176
aI102
aI271
aI111
aI180
aI122
aI259
aI148
aI251
aI119
aI50
aI123
aI116
aI235
aI187
aI106
aI101
aI39
aI136
aI62
aI261
aI177
aI61
aI184
aI58
aI277
aI154
aI27
aI31
aI132
aI241
aI273
aI248
aI3
aa(lp2
I61
aI10
aI41
aI57
aI264
aI280
aI82
aI154
aI47
aI30
aI258
aI255
aI117
aI12
aI233
aI250
aI111
aI208
aI44
aI50
aI235
aI276
aI248
aI37
aI260
aI60
aI252
aI269
aI20
aI93
aI114
aI95
aI257
aI259
aI194
aI8
aI160
aI254
aI163
aI83
aI24
aI199
aI21
aI74
aI279
aI132
aI58
aI277
aI247
aI225
aI153
aI193
aI215
aI203
aI256
aI178
aI11
aI230
aI87
aI162
aI172
aI25
aI70
aI181
aI62
aI15
aI220
aI113
aI183
aI169
aI221
aI211
aI152
aI274
aI197
aI249
aI85
aI224
aI253
aI69
aI66
aI150
aI138
aI32
aI109
aI0
aI182
aI104
aI133
aI18
aI143
aI36
aI26
aI151
aI100
aI134
aI266
aI46
aI128
aI51
aI174
aI149
aI9
aI206
aI89
aI1
aI213
aI52
aI53
aI125
aI115
aI137
aI171
aI278
aI145
aI146
aI118
aI185
aI170
aI55
aI80
aI179
aI156
aI222
aI167
aI13
aI161
aI190
aI88
aI204
aI268
aI188
aI49
aI107
aI19
aI192
aI68
aI196
aI5
aI175
aI110
aI123
aI136
aI148
aI78
aI142
aI200
aI229
aI22
aI227
aI231
aI219
aI7
aI34
aI3
aI184
aI164
aI43
aI71
aI217
aI201
aI236
aI23
aI207
aI246
aI16
aI67
aI165
aI131
aI263
aI210
aI267
aI99
aI140
aI135
aI273
aI39
aI158
aI33
aI130
aI177
aI168
aI124
aI147
aI212
aI141
aI63
aI191
aI14
aI35
aI59
aI265
aI76
aI101
aI98
aI17
aI2
aI240
aI97
aI281
aI244
aI86
aI64
aI29
aI176
aI92
aI205
aI180
aI216
aI245
aI119
aI116
aI129
aI122
aI75
aI4
aI186
aI232
aI42
aI106
aI234
aI228
aI226
aI65
aI223
aI139
aI27
aI77
aI102
aI238
aI214
aI112
aI189
aI239
aI261
aI91
aI96
aI144
aI237
aI262
aI81
aI72
aI251
aI103
aI243
aI157
aI127
aI48
aI272
aI218
aI275
aI166
aI108
aI56
aI271
aI195
aI198
aI94
aI31
aI6
aI45
aI38
aI54
aI270
aI90
aI159
aI173
aI241
aI79
aI105
aI121
aI40
aI187
aI28
aI84
aI155
aI209
aI120
aI73
aI202
aI126
aI242
aa(lp3
I84
aI75
aI232
aI118
aI0
aI43
aI199
aI260
aI278
aI250
aI163
aI107
aI116
aI77
aI32
aI184
aI52
aI182
aI91
aI156
aI187
aI149
aI49
aI134
aI193
aI19
aI269
aI85
aI89
aI238
aI127
aI7
aI275
aI279
aI228
aI70
aI157
aI146
aI154
aI38
aI65
aI216
aI42
aI169
aI6
aI212
aI80
aI10
aI147
aI109
aI266
aI128
aI190
aI205
aI92
aI122
aI57
aI173
aI179
aI3
aI8
aI93
aI248
aI40
aI27
aI50
aI256
aI211
aI246
aI137
aI255
aI148
aI35
aI227
aI1
aI90
aI143
aI58
aI82
aI230
aI113
aI22
aI152
aI155
aI120
aI23
aI176
aI4
aI69
aI24
aI259
aI202
aI172
aI78
aI15
aI237
aI79
aI25
aI222
aI138
aI117
aI39
aI151
aI258
aI110
aI213
aI178
aI31
aI139
aI215
aI231
aI235
aI221
aI239
aI61
aI55
aI268
aI16
aI48
aI36
aI174
aI224
aI197
aI153
aI86
aI123
aI96
aI81
aI46
aI251
aI150
aI126
aI200
aI97
aI108
aI51
aI34
aI111
aI252
aI194
aI114
aI249
aI162
aI56
aI44
aI210
aI214
aI135
aI245
aI121
aI144
aI223
aI242
aI26
aI192
aI195
aI280
aI129
aI106
aI170
aI171
aI233
aI14
aI83
aI265
aI276
aI17
aI257
aI104
aI243
aI71
aI115
aI100
aI20
aI165
aI198
aI203
aI281
aI196
aI177
aI166
aI168
aI274
aI180
aI158
aI133
aI244
aI136
aI130
aI263
aI9
aI30
aI241
aI2
aI76
aI254
aI101
aI236
aI219
aI264
aI63
aI234
aI99
aI98
aI5
aI267
aI87
aI72
aI270
aI207
aI60
aI41
aI208
aI102
aI66
aI204
aI220
aI95
aI21
aI131
aI64
aI271
aI201
aI45
aI247
aI13
aI62
aI68
aI74
aI217
aI112
aI272
aI88
aI73
aI209
aI277
aI226
aI185
aI47
aI240
aI206
aI253
aI191
aI181
aI125
aI132
aI161
aI261
aI105
aI141
aI29
aI67
aI189
aI183
aI18
aI167
aI33
aI188
aI142
aI37
aI225
aI159
aI124
aI218
aI175
aI59
aI53
aI262
aI54
aI94
aI11
aI103
aI273
aI12
aI119
aI140
aI28
aI164
aI145
aI160
aI186
aI229
aa(lp4
I76
aI60
aI44
aI273
aI214
aI23
aI18
aI72
aI62
aI141
aI210
aI113
aI178
aI247
aI43
aI276
aI89
aI39
aI34
aI168
aI274
aI14
aI103
aI167
aI54
aI180
aI259
aI8
aI116
aI270
aI59
aI256
aI73
aI245
aI30
aI239
aI123
aI158
aI99
aI65
aI171
aI230
aI20
aI206
aI42
aI15
aI150
aI138
aI266
aI220
aI148
aI136
aI218
aI115
aI31
aI203
aI110
aI48
aI56
aI202
aI212
aI119
aI189
aI157
aI243
aI88
aI128
aI174
aI279
aI172
aI198
aI97
aI246
aI74
aI127
aI105
aI175
aI117
aI235
aI193
aI64
aI258
aI155
aI160
aI135
aI154
aI280
aI87
aI109
aI17
aI29
aI217
aI187
aI242
aI137
aI130
aI164
aI225
aI162
aI186
aI26
aI169
aI122
aI52
aI6
aI85
aI264
aI84
aI96
aI176
aI166
aI159
aI100
aI254
aI250
aI238
aI201
aI278
aI263
aI181
aI16
aI132
aI269
aI208
aI71
aI111
aI161
aI151
aI163
aI53
aI252
aI204
aI37
aI265
aI165
aI90
aI98
aI194
aI152
aI226
aI255
aI237
aI79
aI36
aI240
aI129
aI67
aI184
aI75
aI120
aI104
aI143
aI63
aI272
aI58
aI124
aI19
aI91
aI2
aI170
aI101
aI260
aI107
aI222
aI108
aI196
aI146
aI219
aI68
aI81
aI145
aI21
aI233
aI32
aI106
aI205
aI216
aI77
aI41
aI12
aI1
aI69
aI114
aI45
aI144
aI102
aI257
aI80
aI224
aI25
aI249
aI213
aI49
aI191
aI232
aI209
aI133
aI9
aI271
aI27
aI215
aI229
aI92
aI241
aI179
aI38
aI275
aI228
aI185
aI147
aI261
aI50
aI94
aI190
aI192
aI236
aI197
aI183
aI195
aI177
aI3
aI125
aI140
aI139
aI134
aI11
aI93
aI82
aI78
aI227
aI121
aI188
aI231
aI221
aI211
aI173
aI149
aI0
aI7
aI70
aI268
aI262
aI156
aI131
aI142
aI126
aI51
aI112
aI4
aI281
aI13
aI153
aI118
aI199
aI61
aI253
aI251
aI40
aI5
aI223
aI182
aI35
aI207
aI22
aI244
aI33
aI267
aI66
aI95
aI86
aI277
aI55
aI83
aI47
aI234
aI28
aI46
aI10
aI248
aI200
aI57
aI24
aa(lp5
I32
aI154
aI64
aI276
aI58
aI186
aI227
aI109
aI99
aI193
aI204
aI4
aI36
aI245
aI273
aI17
aI180
aI251
aI6
aI281
aI2
aI211
aI103
aI255
aI5
aI117
aI78
aI29
aI38
aI155
aI59
aI41
aI76
aI138
aI56
aI146
aI205
aI150
aI74
aI129
aI22
aI28
aI68
aI178
aI121
aI30
aI254
aI33
aI221
aI278
aI91
aI177
aI136
aI90
aI25
aI1
aI35
aI113
aI19
aI102
aI88
aI189
aI51
aI256
aI21
aI71
aI149
aI223
aI187
aI236
aI75
aI238
aI159
aI265
aI87
aI128
aI120
aI162
aI92
aI160
aI145
aI244
aI85
aI163
aI50
aI200
aI23
aI53
aI54
aI280
aI144
aI116
aI212
aI40
aI82
aI279
aI262
aI89
aI16
aI210
aI72
aI169
aI172
aI181
aI110
aI167
aI274
aI182
aI9
aI277
aI101
aI45
aI83
aI199
aI217
aI65
aI220
aI100
aI257
aI147
aI235
aI130
aI249
aI234
aI26
aI126
aI272
aI79
aI248
aI84
aI264
aI214
aI247
aI0
aI246
aI260
aI133
aI11
aI259
aI266
aI20
aI195
aI228
aI269
aI131
aI106
aI39
aI275
aI213
aI157
aI7
aI67
aI253
aI46
aI97
aI44
aI225
aI12
aI242
aI263
aI96
aI239
aI37
aI63
aI123
aI161
aI241
aI3
aI184
aI203
aI209
aI47
aI77
aI49
aI8
aI115
aI31
aI81
aI164
aI201
aI24
aI267
aI156
aI34
aI198
aI52
aI191
aI73
aI108
aI250
aI190
aI122
aI118
aI62
aI218
aI86
aI258
aI196
aI14
aI27
aI148
aI216
aI42
aI166
aI230
aI124
aI135
aI55
aI132
aI69
aI219
aI125
aI134
aI192
aI142
aI261
aI98
aI18
aI206
aI229
aI107
aI114
aI174
aI233
aI57
aI127
aI70
aI141
aI93
aI194
aI243
aI153
aI94
aI176
aI60
aI188
aI15
aI185
aI165
aI158
aI252
aI224
aI268
aI151
aI43
aI175
aI232
aI104
aI111
aI231
aI270
aI179
aI139
aI173
aI222
aI240
aI168
aI202
aI215
aI119
aI140
aI48
aI66
aI143
aI170
aI152
aI10
aI13
aI61
aI207
aI226
aI105
aI237
aI80
aI197
aI271
aI137
aI171
aI95
aI112
aI183
aI208
aa(lp6
I211
aI99
aI123
aI39
aI152
aI223
aI192
aI133
aI76
aI94
aI60
aI246
aI269
aI217
aI224
aI109
aI9
aI203
aI259
aI251
aI186
aI214
aI73
aI207
aI163
aI231
aI16
aI261
aI245
aI48
aI276
aI266
aI112
aI194
aI125
aI68
aI201
aI272
aI256
aI46
aI262
aI25
aI148
aI265
aI110
aI12
aI40
aI132
aI195
aI254
aI241
aI280
aI161
aI281
aI14
aI55
aI20
aI100
aI64
aI244
aI205
aI220
aI18
aI130
aI114
aI250
aI189
aI70
aI166
aI129
aI277
aI59
aI72
aI103
aI2
aI171
aI124
aI221
aI232
aI145
aI126
aI181
aI91
aI66
aI258
aI237
aI141
aI63
aI107
aI193
aI197
aI118
aI191
aI227
aI98
aI255
aI92
aI90
aI111
aI252
aI160
aI128
aI274
aI135
aI88
aI10
aI29
aI61
aI240
aI226
aI49
aI57
aI222
aI74
aI75
aI235
aI143
aI101
aI77
aI113
aI116
aI151
aI87
aI146
aI249
aI53
aI120
aI188
aI150
aI170
aI45
aI28
aI97
aI15
aI44
aI149
aI138
aI243
aI84
aI147
aI131
aI33
aI134
aI182
aI219
aI136
aI86
aI78
aI174
aI218
aI6
aI225
aI164
aI154
aI199
aI239
aI242
aI279
aI42
aI169
aI34
aI187
aI184
aI139
aI96
aI104
aI264
aI23
aI228
aI158
aI80
aI62
aI238
aI79
aI3
aI263
aI180
aI202
aI144
aI7
aI32
aI108
aI165
aI267
aI215
aI142
aI198
aI17
aI172
aI13
aI30
aI167
aI159
aI115
aI206
aI83
aI209
aI208
aI71
aI185
aI155
aI22
aI50
aI56
aI117
aI168
aI179
aI105
aI157
aI270
aI52
aI1
aI65
aI122
aI156
aI119
aI0
aI51
aI177
aI93
aI36
aI178
aI278
aI19
aI95
aI236
aI47
aI85
aI54
aI176
aI24
aI38
aI183
aI58
aI89
aI41
aI275
aI67
aI273
aI27
aI200
aI190
aI137
aI248
aI233
aI257
aI5
aI173
aI216
aI31
aI35
aI8
aI204
aI268
aI234
aI153
aI253
aI102
aI106
aI247
aI213
aI11
aI230
aI127
aI81
aI196
aI21
aI162
aI4
aI82
aI175
aI260
aI271
aI69
aI140
aI212
aI210
aI121
aI43
aI229
aI26
aI37
aa(lp7
I255
aI201
aI25
aI119
aI73
aI170
aI168
aI271
aI126
aI0
aI91
aI207
aI54
aI156
aI191
aI46
aI236
aI262
aI173
aI47
aI197
aI77
aI94
aI189
aI275
aI232
aI186
aI74
aI138
aI179
aI193
aI107
aI155
aI144
aI125
aI63
aI29
aI165
aI111
aI79
aI10
aI204
aI162
aI83
aI96
aI166
aI187
aI151
aI198
aI267
aI118
aI141
aI117
aI23
aI50
aI171
aI106
aI208
aI35
aI2
aI212
aI272
aI127
aI214
aI215
aI252
aI169
aI123
aI67
aI32
aI248
aI28
aI112
aI92
aI256
aI241
aI209
aI143
aI202
aI147
aI225
aI242
aI265
aI69
aI205
aI211
aI231
aI159
aI40
aI4
aI30
aI41
aI7
aI174
aI51
aI71
aI157
aI245
aI56
aI131
aI200
aI76
aI229
aI78
aI263
aI113
aI264
aI163
aI61
aI167
aI68
aI246
aI124
aI238
aI254
aI222
aI235
aI269
aI65
aI260
aI206
aI142
aI89
aI234
aI164
aI109
aI12
aI85
aI223
aI140
aI101
aI128
aI103
aI64
aI48
aI181
aI273
aI11
aI153
aI57
aI203
aI75
aI49
aI230
aI161
aI115
aI9
aI16
aI38
aI146
aI132
aI70
aI114
aI139
aI58
aI99
aI102
aI276
aI5
aI134
aI129
aI135
aI42
aI194
aI137
aI243
aI150
aI239
aI24
aI98
aI216
aI257
aI158
aI237
aI33
aI182
aI72
aI148
aI175
aI1
aI217
aI183
aI86
aI277
aI60
aI226
aI261
aI190
aI93
aI258
aI21
aI274
aI213
aI259
aI192
aI221
aI160
aI34
aI145
aI95
aI228
aI14
aI184
aI121
aI279
aI3
aI218
aI45
aI178
aI152
aI120
aI80
aI176
aI59
aI136
aI43
aI249
aI133
aI81
aI270
aI220
aI90
aI6
aI240
aI31
aI100
aI278
aI62
aI154
aI108
aI104
aI110
aI247
aI199
aI188
aI281
aI39
aI22
aI116
aI20
aI177
aI19
aI105
aI172
aI18
aI195
aI224
aI8
aI82
aI17
aI15
aI88
aI27
aI250
aI66
aI44
aI55
aI149
aI36
aI244
aI268
aI122
aI84
aI26
aI97
aI233
aI13
aI280
aI253
aI37
aI210
aI130
aI251
aI266
aI219
aI53
aI185
aI180
aI196
aI87
aI227
aI52
aa(lp8
I70
aI215
aI17
aI169
aI199
aI223
aI236
aI75
aI258
aI90
aI226
aI57
aI131
aI95
aI231
aI147
aI154
aI216
aI50
aI228
aI96
aI206
aI177
aI238
aI193
aI52
aI5
aI230
aI108
aI102
aI12
aI54
aI71
aI2
aI253
aI279
aI251
aI66
aI144
aI149
aI8
aI229
aI73
aI214
aI188
aI158
aI119
aI118
aI246
aI211
aI174
aI89
aI122
aI47
aI185
aI267
aI252
aI189
aI141
aI21
aI278
aI36
aI183
aI111
aI176
aI85
aI88
aI125
aI56
aI9
aI166
aI110
aI34
aI106
aI280
aI197
aI271
aI181
aI93
aI261
aI6
aI179
aI61
aI161
aI172
aI145
aI25
aI117
aI26
aI173
aI146
aI242
aI264
aI13
aI72
aI233
aI243
aI273
aI250
aI219
aI20
aI11
aI272
aI168
aI78
aI124
aI175
aI29
aI227
aI196
aI234
aI220
aI123
aI10
aI130
aI249
aI69
aI33
aI112
aI265
aI84
aI1
aI60
aI86
aI134
aI48
aI23
aI113
aI240
aI190
aI92
aI121
aI157
aI79
aI19
aI224
aI218
aI0
aI83
aI275
aI104
aI55
aI126
aI116
aI148
aI98
aI94
aI159
aI127
aI107
aI139
aI128
aI59
aI152
aI137
aI200
aI163
aI225
aI151
aI217
aI269
aI244
aI114
aI260
aI140
aI184
aI135
aI43
aI254
aI195
aI27
aI68
aI182
aI274
aI49
aI277
aI241
aI99
aI203
aI209
aI3
aI133
aI207
aI194
aI38
aI187
aI268
aI205
aI14
aI65
aI37
aI263
aI276
aI221
aI35
aI191
aI160
aI62
aI100
aI30
aI4
aI120
aI256
aI248
aI103
aI101
aI212
aI153
aI171
aI186
aI53
aI7
aI180
aI136
aI63
aI44
aI132
aI266
aI81
aI262
aI142
aI129
aI76
aI46
aI204
aI16
aI259
aI80
aI67
aI210
aI32
aI15
aI165
aI155
aI58
aI31
aI109
aI41
aI170
aI24
aI150
aI198
aI201
aI232
aI281
aI202
aI64
aI39
aI40
aI138
aI178
aI235
aI270
aI247
aI213
aI105
aI255
aI239
aI22
aI257
aI77
aI18
aI208
aI91
aI82
aI74
aI245
aI87
aI97
aI51
aI156
aI222
aI115
aI192
aI143
aI42
aI45
aI237
aI167
aI164
aI28
aI162
aa(lp9
I19
aI92
aI159
aI40
aI227
aI180
aI124
aI252
aI73
aI14
aI189
aI202
aI209
aI145
aI250
aI123
aI240
aI15
aI45
aI210
aI219
aI109
aI213
aI63
aI27
aI57
aI156
aI168
aI29
aI130
aI103
aI49
aI147
aI247
aI186
aI175
aI132
aI16
aI277
aI154
aI197
aI201
aI166
aI264
aI151
aI8
aI267
aI117
aI194
aI274
aI100
aI235
aI158
aI48
aI122
aI153
aI108
aI275
aI155
aI53
aI259
aI265
aI41
aI85
aI179
aI25
aI231
aI206
aI77
aI4
aI190
aI171
aI172
aI176
aI88
aI216
aI111
aI5
aI256
aI65
aI79
aI98
aI205
aI161
aI3
aI251
aI12
aI164
aI127
aI255
aI112
aI241
aI228
aI237
aI119
aI142
aI260
aI273
aI170
aI191
aI67
aI141
aI222
aI242
aI23
aI54
aI9
aI149
aI178
aI243
aI281
aI120
aI192
aI87
aI160
aI110
aI26
aI181
aI46
aI258
aI83
aI118
aI82
aI177
aI248
aI208
aI272
aI271
aI249
aI183
aI234
aI146
aI68
aI6
aI126
aI198
aI270
aI13
aI140
aI2
aI59
aI128
aI199
aI278
aI230
aI52
aI157
aI44
aI173
aI38
aI104
aI69
aI224
aI115
aI129
aI31
aI138
aI121
aI81
aI136
aI184
aI152
aI204
aI212
aI195
aI93
aI70
aI144
aI246
aI193
aI236
aI150
aI94
aI84
aI34
aI232
aI105
aI134
aI221
aI280
aI133
aI74
aI17
aI200
aI72
aI36
aI137
aI58
aI131
aI78
aI244
aI188
aI225
aI62
aI76
aI80
aI66
aI35
aI262
aI214
aI174
aI261
aI207
aI263
aI185
aI75
aI56
aI245
aI196
aI28
aI51
aI0
aI95
aI55
aI220
aI101
aI162
aI7
aI266
aI257
aI135
aI113
aI24
aI60
aI50
aI169
aI233
aI268
aI238
aI116
aI99
aI21
aI96
aI276
aI30
aI61
aI20
aI86
aI64
aI114
aI217
aI215
aI218
aI33
aI43
aI91
aI1
aI18
aI279
aI239
aI143
aI229
aI182
aI11
aI107
aI89
aI32
aI165
aI39
aI254
aI269
aI203
aI22
aI10
aI163
aI71
aI187
aI223
aI226
aI253
aI37
aI47
aI90
aI125
aI42
aI139
aI97
aI148
aI211
aI167
aI102
aI106
aa(lp10
I157
aI249
aI202
aI198
aI119
aI116
aI275
aI153
aI130
aI136
aI252
aI62
aI150
aI5
aI162
aI118
aI173
aI8
aI6
aI200
aI16
aI193
aI10
aI104
aI48
aI168
aI25
aI139
aI32
aI99
aI98
aI60
aI154
aI274
aI164
aI204
aI90
aI121
aI163
aI34
aI70
aI184
aI277
aI242
aI212
aI3
aI35
aI115
aI222
aI40
aI160
aI86
aI107
aI13
aI68
aI215
aI251
aI197
aI152
aI100
aI243
aI182
aI180
aI93
aI211
aI17
aI53
aI224
aI33
aI132
aI44
aI207
aI179
aI1
aI227
aI138
aI217
aI43
aI24
aI82
aI257
aI11
aI126
aI36
aI92
aI75
aI30
aI238
aI269
aI144
aI229
aI183
aI134
aI112
aI241
aI178
aI124
aI158
aI270
aI149
aI133
aI228
aI52
aI26
aI54
aI0
aI39
aI4
aI271
aI73
aI237
aI253
aI15
aI247
aI213
aI280
aI110
aI131
aI27
aI155
aI255
aI145
aI65
aI223
aI64
aI56
aI191
aI103
aI79
aI175
aI248
aI19
aI50
aI245
aI29
aI165
aI87
aI262
aI123
aI278
aI128
aI67
aI147
aI37
aI256
aI31
aI23
aI61
aI22
aI129
aI258
aI230
aI244
aI95
aI105
aI235
aI63
aI187
aI268
aI91
aI166
aI88
aI176
aI214
aI47
aI80
aI273
aI210
aI2
aI199
aI190
aI233
aI246
aI189
aI221
aI281
aI71
aI261
aI234
aI216
aI201
aI161
aI232
aI264
aI196
aI96
aI260
aI267
aI186
aI266
aI42
aI83
aI156
aI45
aI169
aI174
aI14
aI225
aI167
aI137
aI114
aI94
aI209
aI240
aI113
aI192
aI141
aI272
aI89
aI106
aI206
aI265
aI20
aI74
aI226
aI142
aI276
aI148
aI159
aI135
aI7
aI111
aI72
aI143
aI41
aI170
aI55
aI85
aI108
aI122
aI21
aI81
aI250
aI220
aI205
aI9
aI120
aI140
aI69
aI208
aI78
aI146
aI28
aI239
aI219
aI263
aI57
aI101
aI117
aI177
aI195
aI109
aI102
aI125
aI77
aI181
aI151
aI194
aI97
aI231
aI59
aI18
aI279
aI203
aI218
aI38
aI51
aI188
aI58
aI171
aI254
aI66
aI12
aI185
aI236
aI46
aI84
aI172
aI76
aI127
aI259
aI49
aa(lp11
I100
aI110
aI128
aI148
aI227
aI162
aI223
aI118
aI60
aI67
aI178
aI1
aI218
aI259
aI236
aI63
aI164
aI191
aI213
aI207
aI37
aI170
aI195
aI250
aI93
aI16
aI4
aI216
aI13
aI116
aI200
aI57
aI266
aI42
aI81
aI125
aI127
aI225
aI91
aI114
aI222
aI94
aI89
aI183
aI27
aI38
aI143
aI179
aI196
aI24
aI177
aI87
aI206
aI117
aI233
aI130
aI192
aI199
aI103
aI123
aI59
aI119
aI281
aI74
aI39
aI264
aI55
aI247
aI270
aI99
aI28
aI18
aI145
aI109
aI69
aI229
aI48
aI205
aI280
aI231
aI31
aI3
aI83
aI173
aI51
aI126
aI86
aI243
aI171
aI41
aI36
aI96
aI188
aI54
aI167
aI153
aI79
aI62
aI14
aI98
aI136
aI58
aI40
aI17
aI161
aI92
aI263
aI112
aI278
aI144
aI29
aI256
aI44
aI97
aI279
aI2
aI34
aI138
aI239
aI240
aI134
aI265
aI172
aI241
aI72
aI190
aI175
aI120
aI113
aI10
aI50
aI122
aI201
aI102
aI277
aI232
aI131
aI168
aI47
aI8
aI147
aI108
aI215
aI80
aI203
aI132
aI32
aI88
aI5
aI106
aI156
aI208
aI269
aI261
aI78
aI258
aI77
aI275
aI276
aI267
aI228
aI184
aI194
aI197
aI141
aI209
aI21
aI235
aI23
aI271
aI214
aI154
aI219
aI224
aI174
aI90
aI52
aI105
aI20
aI101
aI176
aI211
aI230
aI202
aI30
aI180
aI65
aI220
aI163
aI104
aI217
aI53
aI244
aI182
aI71
aI254
aI166
aI45
aI121
aI9
aI212
aI159
aI56
aI19
aI193
aI46
aI255
aI85
aI249
aI0
aI33
aI43
aI151
aI142
aI181
aI245
aI152
aI11
aI129
aI115
aI248
aI169
aI12
aI107
aI186
aI262
aI272
aI150
aI66
aI76
aI257
aI124
aI273
aI268
aI204
aI70
aI82
aI221
aI198
aI26
aI140
aI149
aI210
aI185
aI253
aI73
aI49
aI75
aI64
aI242
aI246
aI61
aI158
aI252
aI111
aI146
aI35
aI7
aI238
aI22
aI189
aI6
aI139
aI157
aI15
aI84
aI234
aI260
aI187
aI237
aI25
aI135
aI133
aI251
aI226
aI160
aI155
aI95
aI165
aI274
aI137
aI68
aa(lp12
I235
aI69
aI88
aI236
aI133
aI137
aI72
aI40
aI128
aI64
aI17
aI31
aI16
aI84
aI50
aI184
aI106
aI58
aI234
aI269
aI22
aI52
aI123
aI59
aI237
aI214
aI241
aI253
aI221
aI10
aI111
aI125
aI171
aI251
aI165
aI20
aI129
aI118
aI229
aI278
aI1
aI275
aI250
aI54
aI195
aI225
aI227
aI11
aI49
aI51
aI38
aI201
aI232
aI199
aI189
aI239
aI182
aI65
aI116
aI102
aI280
aI211
aI223
aI7
aI97
aI205
aI78
aI122
aI178
aI14
aI98
aI168
aI36
aI222
aI67
aI25
aI55
aI273
aI76
aI188
aI148
aI28
aI96
aI200
aI80
aI215
aI277
aI254
aI159
aI121
aI8
aI99
aI157
aI185
aI124
aI44
aI192
aI85
aI12
aI141
aI142
aI164
aI91
aI187
aI19
aI27
aI203
aI0
aI231
aI230
aI224
aI82
aI268
aI87
aI45
aI57
aI53
aI149
aI46
aI170
aI103
aI24
aI138
aI147
aI23
aI272
aI117
aI267
aI247
aI191
aI152
aI213
aI216
aI154
aI151
aI197
aI15
aI226
aI75
aI194
aI177
aI260
aI2
aI41
aI42
aI100
aI186
aI175
aI193
aI258
aI243
aI279
aI265
aI9
aI60
aI274
aI220
aI32
aI105
aI244
aI61
aI144
aI167
aI256
aI131
aI95
aI134
aI6
aI245
aI92
aI219
aI257
aI206
aI107
aI43
aI71
aI209
aI26
aI217
aI252
aI4
aI35
aI13
aI210
aI3
aI126
aI238
aI176
aI248
aI261
aI139
aI218
aI94
aI276
aI56
aI63
aI101
aI156
aI140
aI70
aI86
aI48
aI204
aI240
aI81
aI153
aI271
aI62
aI179
aI130
aI162
aI163
aI207
aI79
aI83
aI120
aI39
aI263
aI174
aI37
aI270
aI180
aI109
aI264
aI169
aI249
aI136
aI5
aI132
aI66
aI172
aI212
aI228
aI143
aI150
aI202
aI119
aI190
aI89
aI47
aI34
aI198
aI266
aI233
aI181
aI127
aI115
aI113
aI21
aI145
aI208
aI114
aI196
aI77
aI33
aI262
aI112
aI160
aI90
aI74
aI166
aI259
aI183
aI93
aI246
aI110
aI30
aI73
aI255
aI108
aI18
aI104
aI29
aI173
aI158
aI68
aI281
aI155
aI242
aI146
aI161
aI135
aa(lp13
I113
aI89
aI112
aI125
aI62
aI111
aI262
aI264
aI26
aI99
aI97
aI87
aI107
aI270
aI41
aI269
aI209
aI159
aI173
aI263
aI118
aI23
aI128
aI124
aI157
aI272
aI34
aI18
aI12
aI21
aI161
aI9
aI98
aI50
aI132
aI226
aI176
aI0
aI261
aI4
aI24
aI190
aI85
aI155
aI217
aI251
aI76
aI253
aI219
aI19
aI228
aI162
aI38
aI2
aI255
aI223
aI106
aI91
aI105
aI90
aI56
aI82
aI186
aI35
aI63
aI194
aI60
aI271
aI241
aI70
aI193
aI214
aI48
aI22
aI10
aI101
aI191
aI257
aI75
aI200
aI163
aI14
aI265
aI28
aI59
aI170
aI206
aI5
aI202
aI212
aI218
aI129
aI150
aI240
aI180
aI142
aI258
aI185
aI42
aI184
aI156
aI96
aI44
aI119
aI108
aI207
aI109
aI114
aI195
aI94
aI54
aI158
aI46
aI66
aI73
aI77
aI225
aI252
aI181
aI65
aI8
aI231
aI58
aI177
aI39
aI64
aI165
aI117
aI279
aI68
aI153
aI116
aI210
aI110
aI239
aI235
aI49
aI86
aI215
aI69
aI164
aI43
aI149
aI199
aI143
aI201
aI267
aI197
aI182
aI245
aI57
aI95
aI224
aI168
aI20
aI169
aI211
aI78
aI167
aI29
aI233
aI254
aI31
aI260
aI141
aI238
aI280
aI236
aI229
aI1
aI71
aI93
aI273
aI88
aI40
aI275
aI242
aI154
aI196
aI47
aI192
aI247
aI139
aI248
aI230
aI244
aI187
aI227
aI30
aI84
aI133
aI45
aI55
aI138
aI243
aI74
aI7
aI11
aI33
aI123
aI246
aI16
aI92
aI276
aI52
aI188
aI268
aI13
aI120
aI222
aI37
aI3
aI137
aI25
aI27
aI174
aI134
aI135
aI171
aI72
aI160
aI198
aI179
aI136
aI32
aI189
aI140
aI220
aI183
aI145
aI148
aI172
aI274
aI178
aI152
aI127
aI15
aI130
aI205
aI147
aI6
aI79
aI121
aI131
aI67
aI144
aI208
aI146
aI103
aI216
aI36
aI250
aI256
aI234
aI61
aI115
aI232
aI166
aI175
aI203
aI102
aI126
aI151
aI281
aI213
aI80
aI277
aI266
aI83
aI249
aI81
aI259
aI17
aI51
aI53
aI100
aI204
aI122
aI104
aI278
aI237
aI221
aa(lp14
I44
aI29
aI190
aI33
aI227
aI9
aI174
aI63
aI218
aI197
aI211
aI92
aI212
aI83
aI108
aI111
aI237
aI155
aI252
aI68
aI84
aI152
aI112
aI206
aI48
aI199
aI220
aI266
aI72
aI97
aI225
aI200
aI89
aI239
aI24
aI115
aI243
aI82
aI255
aI230
aI209
aI51
aI189
aI170
aI8
aI147
aI269
aI264
aI177
aI23
aI98
aI193
aI229
aI276
aI164
aI81
aI198
aI117
aI58
aI125
aI181
aI31
aI90
aI280
aI272
aI64
aI130
aI208
aI235
aI2
aI45
aI102
aI47
aI6
aI61
aI137
aI0
aI148
aI253
aI62
aI204
aI66
aI74
aI106
aI126
aI154
aI88
aI1
aI41
aI175
aI120
aI270
aI94
aI91
aI234
aI49
aI183
aI35
aI191
aI28
aI279
aI52
aI3
aI77
aI54
aI263
aI256
aI251
aI176
aI138
aI247
aI10
aI221
aI103
aI180
aI179
aI261
aI201
aI161
aI223
aI278
aI127
aI15
aI129
aI21
aI14
aI226
aI133
aI250
aI55
aI132
aI257
aI248
aI274
aI5
aI158
aI273
aI60
aI217
aI265
aI157
aI122
aI173
aI222
aI123
aI124
aI202
aI39
aI75
aI194
aI27
aI78
aI57
aI188
aI17
aI168
aI87
aI70
aI163
aI59
aI13
aI22
aI192
aI142
aI187
aI144
aI171
aI7
aI79
aI71
aI232
aI11
aI166
aI40
aI114
aI104
aI36
aI135
aI76
aI116
aI50
aI249
aI238
aI195
aI37
aI32
aI254
aI141
aI150
aI43
aI160
aI196
aI185
aI262
aI224
aI113
aI18
aI275
aI25
aI73
aI216
aI231
aI96
aI233
aI4
aI134
aI178
aI38
aI162
aI95
aI30
aI245
aI219
aI107
aI12
aI156
aI159
aI118
aI281
aI85
aI56
aI26
aI119
aI240
aI109
aI267
aI110
aI99
aI46
aI242
aI128
aI16
aI149
aI86
aI101
aI34
aI228
aI215
aI167
aI140
aI203
aI65
aI136
aI19
aI172
aI69
aI210
aI105
aI259
aI93
aI213
aI268
aI20
aI53
aI258
aI205
aI214
aI236
aI151
aI153
aI260
aI42
aI182
aI184
aI246
aI143
aI100
aI186
aI131
aI139
aI145
aI241
aI207
aI277
aI165
aI80
aI169
aI67
aI244
aI121
aI146
aI271
aa(lp15
I189
aI171
aI266
aI20
aI29
aI192
aI201
aI229
aI238
aI243
aI75
aI107
aI164
aI255
aI71
aI36
aI169
aI95
aI195
aI210
aI263
aI231
aI147
aI159
aI162
aI276
aI19
aI117
aI220
aI240
aI234
aI49
aI44
aI37
aI278
aI235
aI15
aI180
aI56
aI223
aI89
aI188
aI105
aI259
aI86
aI42
aI8
aI104
aI45
aI129
aI268
aI230
aI135
aI21
aI258
aI133
aI28
aI46
aI43
aI199
aI128
aI119
aI78
aI208
aI257
aI34
aI116
aI23
aI108
aI40
aI103
aI62
aI126
aI178
aI115
aI142
aI211
aI254
aI202
aI31
aI186
aI151
aI252
aI251
aI184
aI67
aI275
aI17
aI106
aI51
aI241
aI1
aI161
aI247
aI25
aI148
aI144
aI166
aI239
aI158
aI150
aI265
aI72
aI225
aI264
aI249
aI113
aI152
aI92
aI203
aI10
aI149
aI16
aI93
aI167
aI153
aI183
aI73
aI70
aI99
aI59
aI277
aI139
aI2
aI281
aI219
aI66
aI279
aI154
aI5
aI155
aI215
aI273
aI250
aI22
aI9
aI136
aI125
aI176
aI160
aI132
aI212
aI13
aI138
aI267
aI112
aI228
aI222
aI271
aI123
aI114
aI74
aI185
aI90
aI218
aI256
aI233
aI143
aI269
aI63
aI79
aI24
aI109
aI87
aI65
aI122
aI181
aI224
aI217
aI50
aI84
aI205
aI260
aI187
aI141
aI130
aI216
aI76
aI172
aI96
aI121
aI236
aI175
aI197
aI3
aI179
aI244
aI102
aI173
aI145
aI124
aI198
aI262
aI190
aI100
aI134
aI137
aI98
aI237
aI111
aI270
aI118
aI6
aI33
aI58
aI64
aI177
aI82
aI97
aI69
aI88
aI57
aI157
aI140
aI227
aI246
aI30
aI207
aI53
aI156
aI163
aI242
aI221
aI32
aI232
aI191
aI209
aI200
aI182
aI245
aI18
aI4
aI214
aI39
aI110
aI54
aI35
aI91
aI280
aI77
aI146
aI226
aI55
aI274
aI206
aI165
aI94
aI248
aI0
aI196
aI48
aI120
aI83
aI80
aI60
aI101
aI61
aI38
aI11
aI85
aI47
aI272
aI26
aI27
aI7
aI194
aI213
aI193
aI81
aI174
aI14
aI127
aI261
aI12
aI253
aI204
aI41
aI170
aI68
aI52
aI131
aI168
aa(lp16
I132
aI76
aI50
aI173
aI82
aI67
aI220
aI216
aI58
aI104
aI201
aI34
aI277
aI168
aI70
aI153
aI86
aI60
aI227
aI270
aI243
aI198
aI116
aI16
aI46
aI17
aI167
aI266
aI97
aI262
aI149
aI101
aI96
aI240
aI54
aI178
aI248
aI233
aI80
aI57
aI253
aI39
aI189
aI166
aI55
aI160
aI6
aI237
aI170
aI11
aI181
aI159
aI19
aI71
aI157
aI231
aI74
aI136
aI197
aI152
aI268
aI115
aI279
aI79
aI141
aI108
aI275
aI137
aI95
aI0
aI195
aI35
aI73
aI224
aI192
aI185
aI103
aI110
aI37
aI200
aI125
aI107
aI194
aI182
aI255
aI261
aI18
aI245
aI177
aI244
aI2
aI134
aI249
aI256
aI235
aI128
aI161
aI202
aI44
aI143
aI114
aI127
aI196
aI69
aI98
aI122
aI36
aI176
aI154
aI211
aI94
aI51
aI278
aI158
aI139
aI100
aI63
aI273
aI124
aI20
aI254
aI78
aI21
aI267
aI49
aI250
aI251
aI247
aI212
aI280
aI99
aI64
aI130
aI210
aI129
aI112
aI241
aI85
aI43
aI228
aI155
aI27
aI40
aI180
aI24
aI3
aI28
aI222
aI175
aI225
aI10
aI75
aI119
aI184
aI265
aI281
aI5
aI259
aI218
aI65
aI113
aI61
aI276
aI7
aI190
aI91
aI156
aI214
aI206
aI68
aI126
aI87
aI203
aI230
aI31
aI263
aI187
aI145
aI223
aI217
aI109
aI15
aI219
aI138
aI131
aI8
aI88
aI45
aI23
aI26
aI135
aI147
aI59
aI90
aI239
aI123
aI193
aI13
aI83
aI234
aI92
aI62
aI151
aI148
aI236
aI208
aI258
aI1
aI209
aI188
aI89
aI77
aI4
aI260
aI204
aI221
aI165
aI102
aI120
aI48
aI53
aI146
aI252
aI213
aI162
aI105
aI264
aI226
aI269
aI172
aI84
aI186
aI111
aI93
aI118
aI150
aI246
aI271
aI199
aI257
aI238
aI52
aI191
aI29
aI41
aI183
aI25
aI207
aI47
aI42
aI205
aI14
aI215
aI232
aI242
aI12
aI144
aI169
aI179
aI81
aI30
aI140
aI121
aI117
aI72
aI66
aI164
aI38
aI33
aI174
aI163
aI9
aI22
aI274
aI56
aI106
aI142
aI272
aI229
aI32
aI171
aI133
aa(lp17
I84
aI2
aI273
aI171
aI90
aI212
aI36
aI25
aI201
aI5
aI214
aI243
aI213
aI120
aI73
aI93
aI118
aI274
aI38
aI131
aI261
aI251
aI221
aI216
aI210
aI20
aI122
aI129
aI147
aI54
aI105
aI203
aI56
aI170
aI45
aI141
aI189
aI97
aI88
aI96
aI245
aI246
aI42
aI262
aI158
aI197
aI167
aI113
aI53
aI190
aI205
aI192
aI58
aI29
aI101
aI16
aI41
aI200
aI230
aI33
aI227
aI267
aI222
aI172
aI271
aI18
aI128
aI264
aI37
aI204
aI57
aI50
aI187
aI1
aI270
aI188
aI276
aI27
aI235
aI126
aI279
aI177
aI32
aI22
aI116
aI85
aI69
aI144
aI257
aI154
aI19
aI55
aI76
aI186
aI209
aI70
aI67
aI11
aI83
aI135
aI248
aI94
aI156
aI269
aI136
aI104
aI26
aI211
aI198
aI100
aI39
aI223
aI60
aI275
aI173
aI21
aI3
aI81
aI259
aI208
aI218
aI132
aI23
aI103
aI157
aI179
aI258
aI61
aI35
aI108
aI28
aI236
aI121
aI127
aI255
aI265
aI59
aI191
aI106
aI114
aI185
aI237
aI181
aI168
aI14
aI102
aI62
aI47
aI152
aI233
aI229
aI75
aI0
aI252
aI86
aI151
aI159
aI24
aI15
aI34
aI95
aI138
aI219
aI51
aI224
aI74
aI254
aI244
aI239
aI180
aI111
aI266
aI71
aI46
aI143
aI40
aI260
aI199
aI164
aI123
aI253
aI202
aI161
aI231
aI247
aI79
aI242
aI226
aI10
aI220
aI89
aI125
aI142
aI98
aI241
aI176
aI163
aI165
aI140
aI250
aI30
aI207
aI272
aI169
aI92
aI78
aI193
aI228
aI77
aI63
aI166
aI72
aI162
aI225
aI232
aI130
aI48
aI134
aI178
aI149
aI160
aI65
aI6
aI4
aI263
aI117
aI137
aI215
aI44
aI52
aI195
aI107
aI99
aI17
aI153
aI9
aI155
aI146
aI183
aI268
aI80
aI194
aI87
aI182
aI174
aI148
aI66
aI109
aI217
aI64
aI240
aI7
aI249
aI238
aI31
aI124
aI82
aI256
aI43
aI119
aI184
aI133
aI175
aI112
aI206
aI115
aI13
aI110
aI278
aI280
aI234
aI145
aI68
aI196
aI12
aI281
aI49
aI8
aI139
aI277
aI91
aI150
aa(lp18
I173
aI166
aI138
aI41
aI83
aI105
aI246
aI159
aI240
aI172
aI26
aI250
aI141
aI64
aI85
aI177
aI162
aI52
aI273
aI171
aI175
aI48
aI69
aI239
aI133
aI189
aI42
aI84
aI232
aI255
aI29
aI251
aI274
aI95
aI281
aI128
aI70
aI226
aI209
aI196
aI223
aI270
aI113
aI78
aI167
aI187
aI169
aI144
aI275
aI280
aI184
aI168
aI241
aI125
aI94
aI254
aI258
aI178
aI157
aI221
aI21
aI230
aI23
aI76
aI247
aI218
aI116
aI151
aI4
aI49
aI211
aI161
aI7
aI129
aI118
aI143
aI132
aI55
aI202
aI28
aI188
aI130
aI5
aI217
aI81
aI265
aI92
aI24
aI90
aI260
aI137
aI155
aI43
aI207
aI53
aI25
aI121
aI225
aI154
aI142
aI208
aI109
aI80
aI163
aI11
aI233
aI56
aI96
aI252
aI193
aI146
aI44
aI236
aI99
aI222
aI131
aI191
aI256
aI200
aI47
aI228
aI160
aI179
aI71
aI271
aI39
aI257
aI176
aI276
aI180
aI201
aI181
aI206
aI152
aI267
aI234
aI63
aI214
aI62
aI134
aI88
aI122
aI108
aI89
aI136
aI75
aI36
aI219
aI140
aI269
aI17
aI262
aI79
aI135
aI237
aI174
aI192
aI235
aI203
aI30
aI149
aI266
aI22
aI15
aI86
aI77
aI40
aI82
aI54
aI72
aI2
aI50
aI98
aI0
aI35
aI224
aI249
aI33
aI210
aI46
aI16
aI238
aI199
aI165
aI97
aI278
aI102
aI124
aI111
aI215
aI123
aI6
aI164
aI117
aI213
aI197
aI27
aI38
aI18
aI19
aI170
aI243
aI8
aI3
aI277
aI61
aI150
aI185
aI34
aI65
aI100
aI190
aI14
aI244
aI104
aI68
aI231
aI9
aI57
aI147
aI32
aI212
aI245
aI195
aI12
aI139
aI37
aI261
aI20
aI58
aI268
aI216
aI13
aI51
aI115
aI153
aI112
aI127
aI183
aI148
aI229
aI59
aI186
aI279
aI60
aI220
aI205
aI126
aI145
aI198
aI114
aI66
aI242
aI91
aI10
aI272
aI182
aI1
aI248
aI87
aI120
aI227
aI194
aI67
aI74
aI101
aI119
aI158
aI106
aI31
aI263
aI259
aI264
aI156
aI93
aI110
aI73
aI107
aI204
aI103
aI45
aI253
aa(lp19
I73
aI208
aI200
aI189
aI1
aI98
aI121
aI55
aI57
aI247
aI156
aI168
aI158
aI197
aI170
aI56
aI179
aI89
aI69
aI270
aI119
aI235
aI106
aI141
aI236
aI133
aI111
aI246
aI181
aI276
aI220
aI281
aI38
aI86
aI225
aI252
aI231
aI15
aI263
aI211
aI210
aI256
aI132
aI196
aI185
aI67
aI41
aI155
aI124
aI2
aI243
aI250
aI19
aI199
aI144
aI115
aI244
aI0
aI165
aI262
aI166
aI113
aI32
aI164
aI218
aI227
aI88
aI94
aI171
aI25
aI16
aI152
aI53
aI234
aI17
aI172
aI272
aI260
aI280
aI45
aI118
aI198
aI186
aI105
aI39
aI248
aI35
aI77
aI145
aI93
aI169
aI117
aI153
aI107
aI28
aI4
aI150
aI5
aI96
aI8
aI190
aI101
aI76
aI149
aI59
aI129
aI123
aI142
aI224
aI54
aI182
aI24
aI95
aI12
aI13
aI85
aI37
aI204
aI21
aI66
aI20
aI62
aI110
aI82
aI3
aI81
aI49
aI254
aI216
aI264
aI193
aI79
aI130
aI80
aI148
aI122
aI11
aI175
aI26
aI255
aI233
aI120
aI27
aI279
aI212
aI162
aI18
aI203
aI265
aI154
aI215
aI201
aI221
aI226
aI194
aI131
aI75
aI36
aI31
aI71
aI174
aI146
aI253
aI42
aI173
aI100
aI47
aI6
aI52
aI202
aI242
aI48
aI33
aI137
aI251
aI275
aI23
aI128
aI10
aI187
aI261
aI29
aI195
aI214
aI271
aI273
aI104
aI140
aI78
aI188
aI239
aI108
aI267
aI147
aI90
aI92
aI222
aI230
aI163
aI157
aI46
aI278
aI30
aI135
aI232
aI34
aI245
aI58
aI61
aI268
aI44
aI112
aI51
aI109
aI176
aI116
aI159
aI126
aI102
aI207
aI138
aI238
aI180
aI266
aI83
aI84
aI228
aI127
aI134
aI258
aI22
aI87
aI99
aI97
aI206
aI139
aI114
aI14
aI257
aI277
aI151
aI43
aI191
aI74
aI64
aI9
aI125
aI63
aI219
aI40
aI249
aI274
aI213
aI68
aI269
aI183
aI205
aI60
aI161
aI223
aI178
aI192
aI259
aI65
aI237
aI160
aI7
aI240
aI136
aI209
aI50
aI167
aI143
aI70
aI72
aI177
aI241
aI103
aI229
aI91
aI217
aI184
aa(lp20
I94
aI232
aI184
aI108
aI259
aI132
aI140
aI42
aI29
aI142
aI194
aI100
aI167
aI258
aI32
aI186
aI206
aI66
aI164
aI46
aI67
aI125
aI176
aI2
aI20
aI13
aI114
aI107
aI79
aI230
aI95
aI58
aI103
aI117
aI159
aI102
aI146
aI96
aI174
aI91
aI151
aI47
aI21
aI45
aI233
aI154
aI119
aI237
aI247
aI11
aI5
aI268
aI112
aI192
aI37
aI158
aI269
aI248
aI145
aI43
aI270
aI183
aI70
aI156
aI7
aI252
aI97
aI224
aI55
aI227
aI275
aI199
aI223
aI86
aI209
aI216
aI238
aI265
aI82
aI137
aI234
aI241
aI274
aI157
aI71
aI220
aI61
aI191
aI170
aI143
aI215
aI60
aI22
aI48
aI25
aI131
aI280
aI266
aI15
aI226
aI18
aI62
aI3
aI111
aI104
aI253
aI77
aI74
aI187
aI243
aI153
aI81
aI278
aI65
aI214
aI1
aI175
aI193
aI256
aI9
aI240
aI207
aI139
aI202
aI89
aI36
aI169
aI130
aI44
aI69
aI73
aI254
aI19
aI38
aI264
aI23
aI128
aI126
aI213
aI236
aI88
aI106
aI182
aI155
aI63
aI173
aI40
aI162
aI212
aI129
aI148
aI99
aI147
aI105
aI166
aI92
aI85
aI133
aI219
aI250
aI204
aI144
aI198
aI251
aI78
aI262
aI195
aI16
aI273
aI225
aI127
aI76
aI53
aI4
aI134
aI83
aI90
aI124
aI14
aI51
aI59
aI277
aI161
aI120
aI235
aI141
aI229
aI222
aI49
aI33
aI178
aI6
aI8
aI205
aI196
aI123
aI267
aI181
aI197
aI26
aI10
aI34
aI211
aI261
aI260
aI52
aI231
aI246
aI84
aI245
aI110
aI180
aI121
aI179
aI281
aI217
aI116
aI165
aI136
aI72
aI160
aI149
aI109
aI200
aI272
aI101
aI138
aI28
aI163
aI54
aI30
aI39
aI115
aI80
aI263
aI239
aI242
aI98
aI189
aI12
aI93
aI177
aI185
aI276
aI228
aI244
aI0
aI17
aI57
aI24
aI279
aI210
aI31
aI208
aI122
aI249
aI188
aI56
aI257
aI168
aI68
aI150
aI221
aI64
aI135
aI152
aI35
aI255
aI201
aI271
aI218
aI203
aI50
aI113
aI41
aI27
aI75
aI171
aI172
aI87
aI118
aI190
aa.