(lp0
(lp1
I12
aI30
aI1
aI18
aI14
aI32
aI0
aI13
aI8
aI19
aI25
aI15
aI21
aI31
aI2
aI23
aI26
aI3
aI17
aI24
aI5
aI28
aI16
aI11
aI27
aI20
aI29
aI22
aI4
aI6
aI9
aI10
aI7
aa(lp2
I23
aI11
aI9
aI4
aI26
aI31
aI28
aI22
aI6
aI2
aI5
aI13
aI21
aI19
aI8
aI14
aI3
aI32
aI16
aI12
aI1
aI20
aI10
aI0
aI27
aI17
aI25
aI15
aI29
aI24
aI18
aI7
aI30
aa(lp3
I30
aI17
aI20
aI5
aI24
aI25
aI29
aI0
aI22
aI19
aI28
aI15
aI9
aI6
aI3
aI21
aI14
aI11
aI23
aI10
aI32
aI4
aI12
aI16
aI7
aI13
aI2
aI31
aI1
aI8
aI18
aI26
aI27
aa(lp4
I25
aI26
aI6
aI21
aI32
aI22
aI7
aI11
aI1
aI13
aI23
aI12
aI20
aI17
aI5
aI24
aI8
aI10
aI28
aI18
aI9
aI19
aI31
aI3
aI0
aI14
aI29
aI4
aI15
aI27
aI30
aI2
aI16
aa(lp5
I10
aI21
aI7
aI6
aI31
aI13
aI11
aI28
aI22
aI24
aI19
aI16
aI17
aI5
aI12
aI26
aI14
aI15
aI2
aI18
aI25
aI8
aI3
aI4
aI0
aI29
aI1
aI27
aI23
aI32
aI30
aI20
aI9
aa(lp6
I14
aI5
aI25
aI31
aI30
aI20
aI27
aI28
aI26
aI17
aI1
aI11
aI8
aI15
aI22
aI12
aI10
aI29
aI9
aI4
aI3
aI7
aI2
aI19
aI24
aI13
aI16
aI32
aI18
aI23
aI6
aI21
aI0
aa(lp7
I21
aI24
aI5
aI18
aI30
aI20
aI31
aI13
aI22
aI16
aI1
aI17
aI2
aI10
aI4
aI29
aI15
aI32
aI8
aI26
aI7
aI3
aI27
aI6
aI25
aI12
aI9
aI28
aI19
aI11
aI0
aI14
aI23
aa(lp8
I24
aI30
aI28
aI15
aI7
aI1
aI10
aI32
aI31
aI12
aI5
aI18
aI6
aI27
aI13
aI17
aI11
aI22
aI4
aI19
aI29
aI0
aI25
aI2
aI20
aI23
aI8
aI26
aI21
aI14
aI3
aI9
aI16
aa(lp9
I23
aI14
aI24
aI13
aI10
aI21
aI0
aI9
aI11
aI3
aI15
aI29
aI17
aI31
aI2
aI5
aI7
aI27
aI22
aI16
aI28
aI1
aI32
aI20
aI25
aI30
aI4
aI8
aI6
aI18
aI19
aI12
aI26
aa(lp10
I22
aI8
aI0
aI18
aI29
aI1
aI24
aI31
aI10
aI17
aI19
aI3
aI30
aI14
aI16
aI23
aI32
aI26
aI5
aI6
aI25
aI9
aI15
aI2
aI12
aI11
aI13
aI28
aI27
aI4
aI7
aI21
aI20
aa(lp11
I15
aI9
aI8
aI32
aI4
aI25
aI1
aI7
aI29
aI6
aI12
aI17
aI22
aI27
aI26
aI19
aI10
aI16
aI20
aI28
aI14
aI21
aI11
aI24
aI3
aI30
aI23
aI0
aI31
aI5
aI18
aI2
aI13
aa(lp12
I30
aI1
aI22
aI2
aI14
aI26
aI29
aI3
aI31
aI8
aI27
aI11
aI32
aI4
aI13
aI15
aI24
aI25
aI17
aI7
aI10
aI19
aI18
aI5
aI16
aI20
aI6
aI23
aI12
aI0
aI21
aI28
aI9
aa(lp13
I19
aI3
aI20
aI25
aI18
aI5
aI29
aI14
aI26
aI9
aI10
aI32
aI23
aI2
aI15
aI27
aI6
aI13
aI8
aI17
aI30
aI16
aI24
aI12
aI31
aI11
aI1
aI21
aI7
aI0
aI28
aI22
aI4
aa(lp14
I16
aI25
aI18
aI32
aI13
aI26
aI23
aI20
aI4
aI24
aI11
aI29
aI7
aI6
aI2
aI19
aI21
aI10
aI12
aI30
aI14
aI28
aI22
aI15
aI8
aI1
aI0
aI17
aI3
aI9
aI5
aI31
aI27
aa(lp15
I27
aI28
aI4
aI15
aI14
aI8
aI11
aI12
aI18
aI6
aI10
aI9
aI17
aI20
aI31
aI7
aI1
aI24
aI19
aI29
aI16
aI21
aI25
aI2
aI26
aI22
aI30
aI32
aI23
aI0
aI13
aI3
aI5
aa(lp16
I23
aI24
aI0
aI1
aI22
aI32
aI17
aI4
aI14
aI11
aI9
aI5
aI25
aI29
aI8
aI13
aI20
aI28
aI16
aI15
aI10
aI18
aI26
aI30
aI31
aI19
aI27
aI12
aI7
aI2
aI21
aI6
aI3
aa(lp17
I13
aI1
aI19
aI18
aI30
aI8
aI7
aI11
aI26
aI5
aI20
aI28
aI22
aI3
aI9
aI15
aI4
aI2
aI21
aI0
aI12
aI10
aI24
aI29
aI14
aI6
aI17
aI27
aI16
aI25
aI32
aI31
aI23
aa(lp18
I28
aI19
aI1
aI16
aI20
aI9
aI18
aI30
aI7
aI22
aI10
aI3
aI32
aI14
aI6
aI15
aI4
aI29
aI12
aI0
aI5
aI26
aI13
aI2
aI27
aI24
aI25
aI17
aI23
aI8
aI31
aI11
aI21
aa(lp19
I16
aI6
aI25
aI5
aI28
aI12
aI0
aI24
aI30
aI1
aI32
aI11
aI8
aI29
aI3
aI21
aI27
aI9
aI31
aI14
aI13
aI7
aI26
aI20
aI18
aI22
aI19
aI10
aI17
aI15
aI2
aI4
aI23
aa(lp20
I8
aI30
aI18
aI23
aI29
aI3
aI15
aI10
aI17
aI11
aI12
aI25
aI6
aI5
aI24
aI4
aI2
aI27
aI21
aI31
aI1
aI16
aI14
aI19
aI28
aI13
aI26
aI22
aI7
aI9
aI20
aI0
aI32
aa.