(lp0
(lp1
I11
aI38
aI6
aI19
aI51
aI50
aI31
aI10
aI1
aI41
aI42
aI40
aI36
aI0
aI12
aI3
aI28
aI22
aI43
aI2
aI44
aI26
aI46
aI45
aI37
aI32
aI39
aI23
aI21
aI49
aI16
aI34
aI13
aI35
aI5
aI25
aI20
aI47
aI33
aI48
aI29
aI24
aI9
aI15
aI7
aI14
aI4
aI27
aI8
aI18
aI17
aI30
aa(lp2
I0
aI23
aI30
aI26
aI51
aI5
aI3
aI18
aI10
aI31
aI40
aI19
aI1
aI42
aI43
aI2
aI50
aI34
aI9
aI20
aI27
aI14
aI11
aI48
aI4
aI15
aI36
aI32
aI38
aI28
aI25
aI39
aI22
aI44
aI17
aI6
aI13
aI29
aI46
aI41
aI33
aI21
aI7
aI35
aI12
aI37
aI24
aI8
aI47
aI45
aI16
aI49
aa(lp3
I31
aI9
aI51
aI7
aI50
aI10
aI47
aI4
aI45
aI15
aI14
aI23
aI27
aI34
aI5
aI6
aI43
aI26
aI36
aI38
aI24
aI35
aI49
aI16
aI32
aI22
aI17
aI30
aI42
aI3
aI8
aI0
aI20
aI48
aI46
aI44
aI29
aI1
aI2
aI13
aI39
aI12
aI33
aI19
aI40
aI37
aI28
aI41
aI25
aI18
aI11
aI21
aa(lp4
I16
aI39
aI42
aI5
aI36
aI51
aI34
aI15
aI49
aI17
aI47
aI38
aI46
aI4
aI44
aI22
aI30
aI9
aI10
aI40
aI1
aI48
aI21
aI29
aI37
aI23
aI41
aI43
aI8
aI35
aI3
aI19
aI7
aI0
aI24
aI12
aI28
aI33
aI2
aI11
aI13
aI6
aI45
aI50
aI18
aI27
aI31
aI32
aI14
aI20
aI26
aI25
aa(lp5
I50
aI25
aI4
aI22
aI36
aI0
aI9
aI23
aI46
aI10
aI37
aI26
aI45
aI51
aI35
aI7
aI3
aI29
aI1
aI20
aI34
aI27
aI49
aI18
aI28
aI6
aI17
aI13
aI11
aI42
aI12
aI5
aI32
aI31
aI47
aI15
aI19
aI8
aI30
aI41
aI48
aI43
aI33
aI44
aI39
aI38
aI14
aI16
aI21
aI2
aI24
aI40
aa(lp6
I31
aI36
aI13
aI12
aI26
aI43
aI5
aI15
aI0
aI11
aI33
aI39
aI30
aI27
aI9
aI19
aI44
aI35
aI4
aI3
aI24
aI8
aI29
aI41
aI20
aI21
aI2
aI28
aI14
aI38
aI7
aI40
aI32
aI48
aI22
aI51
aI37
aI45
aI47
aI10
aI16
aI50
aI6
aI25
aI42
aI23
aI1
aI17
aI18
aI49
aI46
aI34
aa(lp7
I15
aI38
aI36
aI39
aI25
aI43
aI50
aI20
aI49
aI7
aI3
aI0
aI27
aI10
aI8
aI5
aI51
aI12
aI33
aI13
aI37
aI11
aI44
aI26
aI48
aI17
aI19
aI24
aI31
aI28
aI2
aI23
aI9
aI46
aI40
aI32
aI34
aI45
aI29
aI14
aI22
aI4
aI41
aI16
aI6
aI18
aI21
aI1
aI42
aI35
aI47
aI30
aa(lp8
I19
aI8
aI51
aI30
aI42
aI28
aI39
aI34
aI18
aI36
aI27
aI31
aI15
aI6
aI23
aI45
aI9
aI17
aI35
aI7
aI13
aI4
aI5
aI21
aI32
aI43
aI48
aI10
aI20
aI44
aI24
aI25
aI26
aI47
aI41
aI16
aI46
aI49
aI40
aI50
aI1
aI29
aI37
aI22
aI3
aI2
aI0
aI38
aI11
aI12
aI14
aI33
aa(lp9
I51
aI9
aI2
aI40
aI46
aI4
aI48
aI37
aI39
aI0
aI42
aI36
aI12
aI23
aI3
aI49
aI20
aI43
aI24
aI25
aI34
aI10
aI8
aI31
aI35
aI30
aI15
aI22
aI6
aI32
aI47
aI5
aI45
aI41
aI44
aI27
aI17
aI50
aI11
aI7
aI1
aI18
aI38
aI33
aI26
aI21
aI16
aI13
aI28
aI14
aI19
aI29
aa(lp10
I14
aI27
aI21
aI49
aI9
aI47
aI12
aI18
aI5
aI34
aI36
aI40
aI20
aI3
aI30
aI0
aI6
aI15
aI42
aI41
aI8
aI38
aI1
aI28
aI37
aI35
aI50
aI29
aI7
aI10
aI31
aI24
aI39
aI19
aI44
aI33
aI48
aI16
aI4
aI43
aI45
aI13
aI26
aI51
aI22
aI32
aI23
aI11
aI17
aI46
aI2
aI25
aa(lp11
I5
aI19
aI35
aI25
aI33
aI47
aI31
aI37
aI38
aI29
aI9
aI34
aI0
aI45
aI10
aI20
aI16
aI51
aI3
aI23
aI32
aI30
aI6
aI11
aI42
aI46
aI21
aI24
aI43
aI27
aI17
aI48
aI44
aI2
aI4
aI13
aI36
aI12
aI40
aI14
aI1
aI50
aI49
aI7
aI22
aI41
aI18
aI26
aI39
aI15
aI28
aI8
aa(lp12
I27
aI49
aI51
aI13
aI24
aI23
aI3
aI44
aI39
aI48
aI19
aI0
aI29
aI30
aI1
aI20
aI40
aI33
aI41
aI21
aI5
aI35
aI6
aI2
aI14
aI31
aI17
aI11
aI38
aI43
aI42
aI50
aI26
aI4
aI34
aI37
aI22
aI32
aI9
aI8
aI28
aI47
aI46
aI16
aI10
aI12
aI15
aI7
aI18
aI25
aI36
aI45
aa(lp13
I10
aI7
aI44
aI37
aI17
aI13
aI46
aI9
aI50
aI43
aI14
aI6
aI12
aI51
aI27
aI42
aI2
aI47
aI3
aI31
aI48
aI24
aI19
aI30
aI1
aI0
aI5
aI39
aI41
aI34
aI16
aI36
aI49
aI32
aI4
aI35
aI28
aI40
aI26
aI45
aI15
aI21
aI29
aI23
aI20
aI25
aI8
aI18
aI11
aI33
aI22
aI38
aa(lp14
I29
aI44
aI42
aI26
aI7
aI50
aI47
aI31
aI28
aI27
aI6
aI48
aI39
aI9
aI22
aI41
aI3
aI37
aI46
aI4
aI1
aI32
aI33
aI24
aI38
aI23
aI17
aI2
aI51
aI5
aI25
aI19
aI14
aI13
aI35
aI34
aI49
aI10
aI15
aI36
aI21
aI30
aI20
aI12
aI45
aI0
aI40
aI16
aI43
aI8
aI11
aI18
aa(lp15
I12
aI7
aI15
aI27
aI6
aI18
aI40
aI14
aI26
aI10
aI42
aI39
aI3
aI41
aI34
aI44
aI51
aI49
aI45
aI47
aI38
aI4
aI46
aI50
aI19
aI29
aI8
aI30
aI22
aI20
aI31
aI24
aI11
aI35
aI37
aI1
aI5
aI36
aI43
aI48
aI2
aI28
aI9
aI25
aI16
aI0
aI21
aI13
aI32
aI23
aI17
aI33
aa(lp16
I24
aI50
aI43
aI13
aI41
aI27
aI42
aI29
aI26
aI6
aI21
aI39
aI36
aI9
aI23
aI11
aI33
aI34
aI3
aI18
aI19
aI32
aI16
aI40
aI30
aI28
aI0
aI14
aI15
aI22
aI5
aI8
aI38
aI47
aI10
aI2
aI25
aI1
aI20
aI4
aI49
aI12
aI35
aI48
aI7
aI44
aI51
aI31
aI45
aI37
aI17
aI46
aa(lp17
I6
aI45
aI30
aI41
aI22
aI4
aI46
aI9
aI14
aI38
aI43
aI31
aI19
aI13
aI15
aI35
aI11
aI50
aI34
aI44
aI25
aI33
aI8
aI39
aI5
aI26
aI0
aI47
aI51
aI49
aI17
aI21
aI20
aI37
aI16
aI42
aI12
aI3
aI29
aI32
aI48
aI1
aI40
aI27
aI24
aI18
aI7
aI10
aI28
aI2
aI23
aI36
aa(lp18
I20
aI29
aI5
aI3
aI48
aI28
aI11
aI19
aI36
aI51
aI38
aI25
aI14
aI34
aI15
aI23
aI43
aI27
aI32
aI8
aI12
aI49
aI31
aI42
aI39
aI40
aI50
aI18
aI10
aI26
aI37
aI35
aI30
aI22
aI13
aI33
aI21
aI4
aI9
aI7
aI2
aI46
aI1
aI24
aI41
aI16
aI47
aI45
aI0
aI17
aI6
aI44
aa(lp19
I28
aI49
aI9
aI5
aI16
aI15
aI43
aI7
aI10
aI12
aI33
aI19
aI3
aI35
aI14
aI31
aI37
aI32
aI30
aI1
aI39
aI38
aI47
aI21
aI4
aI45
aI6
aI41
aI13
aI23
aI44
aI11
aI25
aI50
aI42
aI18
aI46
aI20
aI26
aI40
aI48
aI2
aI29
aI8
aI36
aI51
aI27
aI34
aI17
aI24
aI22
aI0
aa(lp20
I41
aI51
aI43
aI37
aI2
aI49
aI8
aI5
aI23
aI30
aI4
aI31
aI36
aI13
aI21
aI44
aI6
aI16
aI17
aI22
aI28
aI15
aI11
aI29
aI1
aI35
aI26
aI9
aI18
aI7
aI10
aI39
aI24
aI3
aI20
aI47
aI38
aI34
aI48
aI45
aI32
aI50
aI12
aI46
aI42
aI33
aI19
aI14
aI40
aI0
aI25
aI27
aa.