(lp0
(lp1
I0
aI43
aI1
aI11
aI2
aI32
aI44
aI41
aI4
aI33
aI31
aI35
aI22
aI10
aI16
aI30
aI24
aI17
aI9
aI5
aI6
aI8
aI12
aI29
aI20
aI19
aI28
aI36
aI25
aI42
aI7
aI27
aI3
aI40
aI39
aI23
aI26
aI13
aI15
aI38
aI34
aI37
aI14
aI21
aI18
aa(lp2
I26
aI38
aI29
aI25
aI18
aI24
aI28
aI20
aI16
aI35
aI32
aI22
aI41
aI23
aI31
aI9
aI21
aI34
aI33
aI11
aI2
aI19
aI42
aI39
aI8
aI7
aI44
aI13
aI27
aI10
aI17
aI3
aI30
aI40
aI5
aI12
aI37
aI14
aI6
aI15
aI1
aI43
aI0
aI36
aI4
aa(lp3
I13
aI15
aI31
aI18
aI21
aI11
aI28
aI17
aI39
aI3
aI1
aI35
aI22
aI20
aI32
aI26
aI6
aI38
aI41
aI12
aI33
aI9
aI29
aI42
aI4
aI0
aI30
aI27
aI24
aI25
aI14
aI36
aI19
aI23
aI44
aI10
aI8
aI37
aI7
aI2
aI34
aI40
aI5
aI16
aI43
aa(lp4
I13
aI15
aI24
aI19
aI44
aI5
aI27
aI29
aI28
aI1
aI9
aI34
aI2
aI18
aI4
aI7
aI33
aI11
aI23
aI0
aI30
aI38
aI17
aI10
aI43
aI37
aI32
aI12
aI36
aI35
aI14
aI39
aI8
aI40
aI31
aI25
aI20
aI16
aI26
aI22
aI42
aI41
aI21
aI6
aI3
aa(lp5
I12
aI31
aI16
aI38
aI8
aI17
aI37
aI10
aI26
aI21
aI13
aI43
aI19
aI6
aI27
aI18
aI22
aI25
aI23
aI32
aI3
aI4
aI30
aI15
aI1
aI42
aI20
aI5
aI14
aI0
aI41
aI9
aI34
aI44
aI24
aI36
aI39
aI28
aI29
aI7
aI2
aI33
aI35
aI11
aI40
aa(lp6
I26
aI44
aI10
aI16
aI8
aI23
aI0
aI4
aI33
aI5
aI40
aI21
aI30
aI18
aI6
aI9
aI35
aI41
aI36
aI39
aI32
aI7
aI27
aI29
aI17
aI38
aI22
aI42
aI34
aI37
aI12
aI20
aI19
aI13
aI3
aI2
aI14
aI28
aI11
aI15
aI31
aI43
aI25
aI1
aI24
aa(lp7
I21
aI33
aI7
aI42
aI28
aI31
aI4
aI25
aI41
aI2
aI10
aI19
aI44
aI39
aI13
aI15
aI17
aI3
aI22
aI14
aI1
aI18
aI32
aI26
aI6
aI11
aI40
aI5
aI12
aI30
aI27
aI43
aI0
aI8
aI9
aI16
aI35
aI36
aI29
aI20
aI23
aI37
aI34
aI38
aI24
aa(lp8
I39
aI40
aI25
aI17
aI33
aI9
aI42
aI3
aI1
aI41
aI2
aI11
aI19
aI7
aI13
aI43
aI0
aI27
aI12
aI20
aI34
aI4
aI37
aI31
aI26
aI16
aI15
aI36
aI30
aI29
aI28
aI44
aI14
aI24
aI23
aI10
aI8
aI5
aI32
aI21
aI22
aI38
aI18
aI6
aI35
aa(lp9
I44
aI0
aI42
aI8
aI14
aI16
aI41
aI36
aI13
aI31
aI38
aI35
aI11
aI29
aI5
aI28
aI18
aI43
aI32
aI34
aI24
aI15
aI6
aI10
aI1
aI33
aI30
aI4
aI39
aI27
aI2
aI23
aI25
aI19
aI26
aI17
aI37
aI3
aI9
aI22
aI40
aI12
aI21
aI20
aI7
aa(lp10
I8
aI27
aI42
aI7
aI39
aI25
aI36
aI15
aI20
aI5
aI16
aI35
aI0
aI37
aI34
aI1
aI17
aI38
aI33
aI43
aI3
aI26
aI6
aI4
aI40
aI41
aI19
aI18
aI13
aI23
aI31
aI24
aI2
aI14
aI28
aI12
aI9
aI11
aI22
aI10
aI21
aI30
aI29
aI32
aI44
aa(lp11
I6
aI36
aI7
aI39
aI30
aI27
aI12
aI17
aI32
aI8
aI2
aI25
aI0
aI34
aI1
aI38
aI44
aI23
aI33
aI3
aI43
aI9
aI41
aI24
aI5
aI29
aI19
aI22
aI11
aI14
aI31
aI10
aI18
aI16
aI15
aI21
aI13
aI42
aI37
aI28
aI35
aI40
aI20
aI26
aI4
aa(lp12
I39
aI31
aI17
aI10
aI7
aI14
aI16
aI15
aI8
aI29
aI23
aI26
aI12
aI18
aI19
aI44
aI25
aI38
aI30
aI0
aI24
aI11
aI22
aI27
aI1
aI37
aI6
aI20
aI21
aI36
aI32
aI43
aI40
aI4
aI34
aI2
aI5
aI3
aI13
aI9
aI41
aI33
aI42
aI35
aI28
aa(lp13
I20
aI9
aI32
aI19
aI31
aI34
aI43
aI22
aI30
aI25
aI35
aI29
aI17
aI23
aI10
aI5
aI24
aI26
aI3
aI4
aI21
aI7
aI44
aI39
aI13
aI41
aI14
aI18
aI11
aI12
aI27
aI8
aI40
aI38
aI28
aI15
aI33
aI2
aI16
aI36
aI6
aI37
aI42
aI1
aI0
aa(lp14
I35
aI10
aI38
aI33
aI20
aI11
aI16
aI23
aI5
aI6
aI18
aI19
aI39
aI30
aI28
aI29
aI34
aI22
aI37
aI7
aI12
aI42
aI15
aI1
aI36
aI24
aI27
aI40
aI17
aI2
aI25
aI4
aI21
aI43
aI26
aI14
aI41
aI3
aI13
aI0
aI44
aI9
aI8
aI31
aI32
aa(lp15
I20
aI24
aI0
aI25
aI38
aI14
aI13
aI10
aI29
aI1
aI30
aI26
aI15
aI21
aI19
aI7
aI39
aI33
aI12
aI43
aI23
aI28
aI41
aI16
aI2
aI3
aI6
aI9
aI44
aI17
aI11
aI36
aI8
aI31
aI4
aI18
aI27
aI40
aI35
aI37
aI34
aI42
aI22
aI32
aI5
aa(lp16
I40
aI32
aI15
aI38
aI0
aI17
aI22
aI37
aI43
aI23
aI34
aI5
aI36
aI6
aI30
aI8
aI33
aI31
aI13
aI3
aI1
aI18
aI39
aI14
aI21
aI9
aI44
aI25
aI24
aI35
aI19
aI26
aI7
aI41
aI29
aI4
aI20
aI16
aI28
aI42
aI27
aI12
aI2
aI10
aI11
aa(lp17
I41
aI44
aI10
aI37
aI42
aI38
aI8
aI18
aI20
aI34
aI40
aI24
aI23
aI27
aI3
aI11
aI25
aI2
aI12
aI21
aI14
aI43
aI15
aI6
aI28
aI33
aI13
aI5
aI22
aI19
aI1
aI9
aI29
aI32
aI16
aI7
aI36
aI4
aI35
aI26
aI17
aI31
aI39
aI0
aI30
aa(lp18
I6
aI10
aI36
aI23
aI12
aI34
aI17
aI18
aI11
aI40
aI33
aI28
aI19
aI13
aI43
aI21
aI14
aI7
aI32
aI31
aI26
aI20
aI3
aI42
aI16
aI2
aI9
aI30
aI25
aI24
aI1
aI29
aI37
aI4
aI44
aI35
aI22
aI38
aI5
aI0
aI8
aI27
aI41
aI15
aI39
aa(lp19
I30
aI1
aI7
aI13
aI42
aI18
aI12
aI3
aI25
aI38
aI17
aI14
aI22
aI44
aI43
aI5
aI27
aI8
aI31
aI37
aI29
aI4
aI26
aI21
aI23
aI15
aI6
aI35
aI9
aI16
aI0
aI36
aI11
aI34
aI19
aI10
aI39
aI2
aI20
aI33
aI40
aI28
aI24
aI32
aI41
aa(lp20
I31
aI33
aI18
aI38
aI41
aI19
aI40
aI2
aI25
aI23
aI32
aI10
aI16
aI17
aI9
aI12
aI3
aI36
aI11
aI13
aI14
aI5
aI35
aI39
aI30
aI27
aI21
aI0
aI29
aI44
aI8
aI34
aI28
aI22
aI20
aI24
aI6
aI42
aI43
aI1
aI37
aI15
aI26
aI4
aI7
aa.