(lp0
(lp1
I4
aI5
aI19
aI8
aI20
aI16
aI2
aI18
aI17
aI7
aI0
aI1
aI11
aI12
aI14
aI21
aI15
aI9
aI10
aI3
aI13
aI6
aa(lp2
I6
aI21
aI5
aI10
aI4
aI19
aI7
aI2
aI18
aI0
aI11
aI12
aI3
aI1
aI14
aI20
aI8
aI15
aI17
aI16
aI9
aI13
aa(lp3
I4
aI19
aI16
aI18
aI11
aI13
aI3
aI17
aI20
aI0
aI6
aI21
aI8
aI15
aI5
aI9
aI2
aI1
aI12
aI7
aI10
aI14
aa(lp4
I21
aI5
aI7
aI13
aI2
aI17
aI14
aI10
aI9
aI11
aI19
aI16
aI1
aI3
aI4
aI12
aI18
aI20
aI15
aI0
aI6
aI8
aa(lp5
I19
aI4
aI20
aI12
aI21
aI18
aI2
aI7
aI13
aI1
aI14
aI11
aI6
aI5
aI16
aI15
aI8
aI17
aI9
aI0
aI10
aI3
aa(lp6
I21
aI4
aI12
aI2
aI14
aI19
aI15
aI3
aI11
aI0
aI9
aI7
aI13
aI20
aI6
aI16
aI18
aI1
aI5
aI10
aI8
aI17
aa(lp7
I19
aI17
aI14
aI7
aI3
aI5
aI15
aI1
aI2
aI8
aI18
aI10
aI4
aI13
aI0
aI21
aI11
aI6
aI16
aI12
aI20
aI9
aa(lp8
I16
aI21
aI17
aI5
aI18
aI12
aI10
aI13
aI0
aI20
aI1
aI7
aI15
aI4
aI9
aI3
aI8
aI14
aI6
aI2
aI11
aI19
aa(lp9
I21
aI20
aI11
aI2
aI5
aI8
aI19
aI3
aI17
aI9
aI0
aI14
aI4
aI16
aI18
aI1
aI7
aI13
aI10
aI12
aI6
aI15
aa(lp10
I20
aI8
aI10
aI5
aI1
aI7
aI14
aI16
aI21
aI12
aI17
aI11
aI4
aI15
aI19
aI6
aI0
aI3
aI13
aI18
aI9
aI2
aa(lp11
I7
aI14
aI13
aI10
aI18
aI17
aI8
aI4
aI6
aI15
aI19
aI3
aI11
aI16
aI9
aI5
aI1
aI21
aI12
aI2
aI20
aI0
aa(lp12
I20
aI9
aI16
aI13
aI7
aI21
aI15
aI1
aI10
aI0
aI14
aI2
aI5
aI4
aI3
aI18
aI11
aI19
aI12
aI6
aI8
aI17
aa(lp13
I1
aI5
aI15
aI6
aI21
aI8
aI3
aI10
aI13
aI17
aI20
aI14
aI4
aI11
aI12
aI18
aI0
aI9
aI19
aI7
aI16
aI2
aa(lp14
I4
aI13
aI21
aI2
aI11
aI16
aI10
aI15
aI19
aI20
aI5
aI7
aI3
aI18
aI9
aI0
aI8
aI6
aI1
aI12
aI14
aI17
aa(lp15
I7
aI2
aI1
aI3
aI11
aI10
aI0
aI14
aI4
aI9
aI13
aI17
aI12
aI15
aI6
aI20
aI21
aI5
aI8
aI19
aI16
aI18
aa(lp16
I1
aI9
aI11
aI2
aI10
aI16
aI12
aI4
aI0
aI18
aI5
aI17
aI20
aI3
aI7
aI14
aI21
aI19
aI8
aI13
aI15
aI6
aa(lp17
I20
aI3
aI10
aI12
aI13
aI21
aI7
aI6
aI0
aI11
aI16
aI5
aI15
aI17
aI18
aI1
aI19
aI2
aI14
aI9
aI8
aI4
aa(lp18
I0
aI18
aI17
aI4
aI11
aI2
aI16
aI7
aI15
aI20
aI3
aI12
aI5
aI19
aI21
aI13
aI9
aI6
aI10
aI1
aI8
aI14
aa(lp19
I17
aI14
aI3
aI11
aI0
aI18
aI12
aI13
aI10
aI4
aI6
aI15
aI16
aI5
aI2
aI1
aI9
aI21
aI8
aI7
aI20
aI19
aa(lp20
I13
aI12
aI8
aI11
aI2
aI20
aI1
aI9
aI6
aI21
aI3
aI10
aI14
aI18
aI4
aI15
aI16
aI5
aI17
aI7
aI0
aI19
aa.