(lp0
(lp1
I2
aI3
aI5
aI20
aI27
aI38
aI29
aI37
aI32
aI24
aI7
aI12
aI19
aI16
aI34
aI1
aI31
aI22
aI11
aI25
aI23
aI9
aI15
aI17
aI30
aI14
aI8
aI6
aI21
aI26
aI4
aI0
aI10
aI28
aI18
aI13
aI33
aI35
aI36
aa(lp2
I35
aI2
aI9
aI25
aI28
aI15
aI38
aI22
aI7
aI16
aI23
aI6
aI17
aI24
aI32
aI18
aI5
aI34
aI13
aI21
aI29
aI31
aI33
aI14
aI3
aI12
aI20
aI10
aI8
aI11
aI0
aI30
aI36
aI19
aI4
aI27
aI37
aI1
aI26
aa(lp3
I36
aI33
aI37
aI26
aI34
aI6
aI3
aI18
aI1
aI16
aI0
aI8
aI2
aI35
aI32
aI7
aI38
aI9
aI28
aI24
aI20
aI12
aI27
aI4
aI25
aI15
aI31
aI21
aI30
aI23
aI5
aI14
aI13
aI19
aI22
aI29
aI11
aI10
aI17
aa(lp4
I30
aI16
aI9
aI15
aI35
aI5
aI0
aI28
aI37
aI24
aI8
aI1
aI13
aI4
aI20
aI23
aI19
aI10
aI21
aI38
aI29
aI7
aI25
aI36
aI27
aI6
aI12
aI3
aI2
aI18
aI26
aI11
aI14
aI17
aI34
aI31
aI33
aI22
aI32
aa(lp5
I25
aI14
aI30
aI17
aI36
aI37
aI21
aI15
aI34
aI10
aI1
aI3
aI6
aI16
aI9
aI8
aI31
aI27
aI2
aI22
aI4
aI7
aI26
aI33
aI5
aI19
aI38
aI12
aI20
aI29
aI32
aI0
aI24
aI18
aI23
aI28
aI11
aI13
aI35
aa(lp6
I3
aI38
aI0
aI11
aI24
aI26
aI23
aI32
aI8
aI6
aI28
aI9
aI5
aI37
aI1
aI35
aI30
aI34
aI13
aI14
aI36
aI33
aI16
aI15
aI20
aI4
aI27
aI19
aI31
aI17
aI25
aI21
aI7
aI29
aI18
aI10
aI22
aI12
aI2
aa(lp7
I0
aI2
aI19
aI27
aI18
aI8
aI22
aI38
aI10
aI24
aI7
aI26
aI12
aI13
aI3
aI15
aI33
aI29
aI34
aI20
aI30
aI4
aI31
aI25
aI14
aI36
aI6
aI28
aI32
aI16
aI21
aI1
aI35
aI37
aI9
aI11
aI23
aI5
aI17
aa(lp8
I28
aI29
aI1
aI35
aI19
aI16
aI6
aI18
aI3
aI10
aI24
aI37
aI25
aI33
aI22
aI20
aI36
aI30
aI15
aI34
aI14
aI13
aI7
aI26
aI27
aI17
aI31
aI21
aI23
aI0
aI5
aI32
aI38
aI12
aI11
aI2
aI8
aI9
aI4
aa(lp9
I16
aI33
aI19
aI13
aI29
aI35
aI22
aI15
aI17
aI7
aI3
aI5
aI36
aI34
aI8
aI0
aI38
aI14
aI31
aI24
aI25
aI21
aI6
aI2
aI23
aI12
aI27
aI26
aI18
aI1
aI4
aI9
aI32
aI30
aI20
aI10
aI28
aI11
aI37
aa(lp10
I7
aI10
aI29
aI15
aI11
aI0
aI19
aI20
aI18
aI8
aI2
aI36
aI33
aI14
aI21
aI37
aI1
aI3
aI12
aI17
aI30
aI27
aI5
aI6
aI38
aI13
aI34
aI22
aI26
aI9
aI31
aI16
aI32
aI23
aI25
aI24
aI35
aI4
aI28
aa(lp11
I15
aI0
aI30
aI25
aI11
aI23
aI18
aI22
aI9
aI28
aI21
aI36
aI37
aI5
aI20
aI4
aI12
aI8
aI32
aI1
aI3
aI16
aI31
aI6
aI26
aI24
aI29
aI17
aI35
aI34
aI13
aI19
aI10
aI7
aI38
aI33
aI14
aI2
aI27
aa(lp12
I25
aI5
aI23
aI32
aI34
aI9
aI37
aI18
aI6
aI15
aI4
aI19
aI29
aI14
aI2
aI8
aI26
aI3
aI38
aI22
aI1
aI28
aI0
aI21
aI30
aI16
aI31
aI12
aI7
aI36
aI20
aI35
aI10
aI27
aI24
aI13
aI17
aI11
aI33
aa(lp13
I11
aI23
aI26
aI37
aI33
aI21
aI30
aI36
aI22
aI25
aI9
aI4
aI28
aI27
aI17
aI2
aI5
aI8
aI34
aI35
aI29
aI24
aI38
aI19
aI1
aI10
aI6
aI13
aI18
aI7
aI3
aI14
aI12
aI0
aI16
aI15
aI31
aI20
aI32
aa(lp14
I32
aI2
aI23
aI19
aI22
aI17
aI11
aI0
aI24
aI33
aI16
aI8
aI18
aI28
aI6
aI35
aI31
aI7
aI15
aI34
aI4
aI20
aI27
aI21
aI12
aI25
aI9
aI1
aI5
aI38
aI30
aI37
aI10
aI3
aI13
aI36
aI26
aI14
aI29
aa(lp15
I26
aI21
aI8
aI0
aI5
aI12
aI17
aI13
aI32
aI22
aI23
aI34
aI33
aI4
aI24
aI37
aI27
aI14
aI15
aI28
aI31
aI25
aI29
aI10
aI36
aI11
aI3
aI38
aI2
aI6
aI9
aI7
aI30
aI20
aI16
aI19
aI1
aI18
aI35
aa(lp16
I0
aI2
aI20
aI5
aI15
aI1
aI32
aI8
aI13
aI17
aI14
aI38
aI7
aI35
aI11
aI30
aI33
aI25
aI27
aI3
aI28
aI18
aI21
aI34
aI4
aI36
aI6
aI29
aI24
aI26
aI9
aI16
aI10
aI31
aI12
aI22
aI23
aI37
aI19
aa(lp17
I19
aI10
aI12
aI5
aI38
aI6
aI7
aI20
aI9
aI4
aI32
aI36
aI29
aI31
aI22
aI13
aI8
aI2
aI30
aI11
aI3
aI0
aI26
aI23
aI1
aI15
aI34
aI24
aI14
aI21
aI28
aI17
aI33
aI35
aI25
aI37
aI27
aI18
aI16
aa(lp18
I31
aI19
aI18
aI10
aI14
aI8
aI11
aI20
aI35
aI3
aI9
aI26
aI6
aI29
aI25
aI12
aI15
aI7
aI21
aI36
aI32
aI1
aI34
aI17
aI22
aI30
aI27
aI0
aI37
aI2
aI4
aI38
aI33
aI13
aI24
aI28
aI16
aI5
aI23
aa(lp19
I5
aI8
aI24
aI6
aI15
aI28
aI13
aI33
aI7
aI22
aI10
aI25
aI31
aI26
aI37
aI38
aI1
aI9
aI35
aI32
aI34
aI4
aI18
aI17
aI2
aI27
aI19
aI29
aI20
aI30
aI11
aI36
aI12
aI23
aI0
aI16
aI21
aI14
aI3
aa(lp20
I12
aI35
aI2
aI7
aI16
aI18
aI26
aI30
aI6
aI27
aI9
aI24
aI3
aI10
aI25
aI19
aI31
aI13
aI17
aI23
aI0
aI14
aI22
aI21
aI1
aI38
aI33
aI28
aI4
aI20
aI29
aI36
aI11
aI5
aI8
aI37
aI15
aI34
aI32
aa.