(lp0
(lp1
I6
aI36
aI14
aI32
aI25
aI16
aI35
aI37
aI38
aI31
aI24
aI20
aI19
aI11
aI12
aI13
aI4
aI23
aI1
aI10
aI30
aI0
aI2
aI27
aI34
aI28
aI15
aI26
aI7
aI22
aI29
aI8
aI18
aI21
aI33
aI9
aI5
aI3
aI17
aa(lp2
I15
aI34
aI29
aI20
aI28
aI4
aI25
aI16
aI30
aI18
aI9
aI11
aI38
aI8
aI14
aI10
aI12
aI24
aI19
aI22
aI35
aI31
aI17
aI23
aI3
aI36
aI1
aI33
aI5
aI32
aI37
aI21
aI27
aI13
aI2
aI0
aI7
aI6
aI26
aa(lp3
I11
aI33
aI13
aI23
aI26
aI12
aI10
aI4
aI6
aI14
aI15
aI35
aI17
aI36
aI5
aI1
aI18
aI22
aI30
aI8
aI21
aI0
aI25
aI2
aI20
aI38
aI29
aI7
aI37
aI27
aI28
aI19
aI9
aI24
aI34
aI16
aI31
aI3
aI32
aa(lp4
I16
aI21
aI28
aI1
aI38
aI30
aI26
aI18
aI10
aI29
aI5
aI7
aI27
aI23
aI9
aI32
aI8
aI0
aI22
aI24
aI20
aI35
aI37
aI3
aI14
aI6
aI36
aI19
aI11
aI2
aI25
aI15
aI33
aI34
aI31
aI13
aI17
aI12
aI4
aa(lp5
I38
aI0
aI35
aI17
aI13
aI25
aI29
aI10
aI30
aI16
aI4
aI22
aI31
aI15
aI27
aI32
aI19
aI20
aI3
aI12
aI6
aI8
aI21
aI9
aI2
aI18
aI5
aI1
aI34
aI24
aI37
aI36
aI23
aI33
aI26
aI14
aI28
aI11
aI7
aa(lp6
I3
aI30
aI28
aI6
aI22
aI18
aI37
aI16
aI8
aI11
aI32
aI31
aI13
aI19
aI5
aI24
aI25
aI10
aI38
aI26
aI14
aI27
aI17
aI4
aI29
aI2
aI0
aI21
aI35
aI20
aI9
aI15
aI1
aI33
aI12
aI34
aI23
aI7
aI36
aa(lp7
I23
aI5
aI24
aI33
aI32
aI12
aI0
aI2
aI29
aI8
aI10
aI16
aI34
aI13
aI31
aI18
aI38
aI30
aI1
aI26
aI20
aI6
aI9
aI36
aI28
aI14
aI7
aI3
aI19
aI37
aI15
aI35
aI21
aI25
aI22
aI11
aI27
aI17
aI4
aa(lp8
I23
aI28
aI19
aI9
aI29
aI33
aI22
aI8
aI36
aI21
aI25
aI18
aI27
aI6
aI12
aI38
aI15
aI11
aI7
aI34
aI16
aI37
aI20
aI1
aI32
aI26
aI24
aI10
aI5
aI17
aI31
aI0
aI13
aI30
aI3
aI14
aI35
aI2
aI4
aa(lp9
I17
aI8
aI38
aI0
aI12
aI31
aI15
aI24
aI32
aI11
aI27
aI34
aI3
aI20
aI7
aI1
aI14
aI19
aI10
aI5
aI26
aI21
aI16
aI36
aI23
aI6
aI29
aI2
aI28
aI25
aI9
aI4
aI30
aI33
aI13
aI18
aI22
aI37
aI35
aa(lp10
I31
aI15
aI29
aI4
aI28
aI8
aI6
aI32
aI1
aI27
aI38
aI3
aI12
aI20
aI13
aI30
aI5
aI18
aI9
aI22
aI25
aI26
aI19
aI24
aI23
aI11
aI36
aI34
aI35
aI7
aI0
aI14
aI16
aI21
aI37
aI10
aI33
aI17
aI2
aa(lp11
I5
aI13
aI32
aI33
aI28
aI23
aI15
aI20
aI24
aI30
aI34
aI17
aI12
aI35
aI6
aI16
aI19
aI26
aI36
aI11
aI37
aI18
aI21
aI22
aI3
aI27
aI14
aI10
aI9
aI29
aI8
aI0
aI2
aI25
aI7
aI1
aI38
aI4
aI31
aa(lp12
I21
aI20
aI7
aI33
aI1
aI3
aI10
aI31
aI13
aI5
aI4
aI38
aI16
aI34
aI8
aI32
aI15
aI12
aI2
aI37
aI29
aI28
aI0
aI14
aI22
aI26
aI18
aI36
aI24
aI30
aI9
aI19
aI17
aI25
aI35
aI6
aI11
aI23
aI27
aa(lp13
I19
aI12
aI28
aI7
aI14
aI32
aI18
aI31
aI3
aI6
aI4
aI17
aI10
aI9
aI29
aI2
aI37
aI0
aI34
aI25
aI38
aI36
aI5
aI13
aI16
aI33
aI30
aI24
aI26
aI15
aI11
aI35
aI8
aI22
aI20
aI23
aI27
aI21
aI1
aa(lp14
I10
aI37
aI7
aI28
aI4
aI32
aI18
aI33
aI23
aI15
aI6
aI19
aI27
aI22
aI11
aI8
aI9
aI29
aI12
aI21
aI20
aI26
aI5
aI24
aI30
aI34
aI3
aI2
aI1
aI35
aI14
aI17
aI13
aI25
aI38
aI36
aI0
aI16
aI31
aa(lp15
I34
aI30
aI5
aI19
aI36
aI22
aI13
aI29
aI23
aI8
aI38
aI31
aI21
aI2
aI20
aI11
aI6
aI35
aI24
aI28
aI1
aI12
aI33
aI3
aI32
aI18
aI26
aI10
aI9
aI16
aI15
aI14
aI0
aI27
aI7
aI4
aI25
aI37
aI17
aa(lp16
I28
aI19
aI22
aI38
aI30
aI25
aI8
aI5
aI9
aI21
aI20
aI4
aI27
aI14
aI0
aI33
aI26
aI29
aI17
aI7
aI11
aI12
aI3
aI6
aI36
aI18
aI1
aI10
aI16
aI31
aI35
aI23
aI37
aI13
aI2
aI34
aI24
aI32
aI15
aa(lp17
I21
aI2
aI5
aI32
aI19
aI35
aI12
aI29
aI14
aI31
aI24
aI3
aI0
aI38
aI13
aI20
aI9
aI33
aI23
aI8
aI30
aI34
aI26
aI16
aI18
aI6
aI22
aI36
aI11
aI15
aI28
aI1
aI7
aI4
aI17
aI37
aI27
aI10
aI25
aa(lp18
I30
aI2
aI35
aI29
aI4
aI28
aI10
aI9
aI17
aI26
aI12
aI1
aI27
aI31
aI6
aI24
aI23
aI34
aI22
aI18
aI21
aI14
aI33
aI11
aI15
aI37
aI16
aI20
aI13
aI7
aI5
aI36
aI3
aI19
aI8
aI38
aI32
aI0
aI25
aa(lp19
I31
aI21
aI0
aI19
aI15
aI16
aI13
aI36
aI33
aI24
aI9
aI29
aI22
aI35
aI1
aI6
aI38
aI7
aI8
aI34
aI2
aI25
aI37
aI17
aI30
aI26
aI11
aI20
aI32
aI4
aI23
aI10
aI5
aI12
aI27
aI14
aI3
aI28
aI18
aa(lp20
I1
aI18
aI28
aI13
aI17
aI31
aI14
aI37
aI38
aI20
aI11
aI26
aI9
aI10
aI7
aI21
aI30
aI24
aI23
aI15
aI27
aI33
aI25
aI12
aI22
aI6
aI29
aI32
aI8
aI4
aI3
aI36
aI2
aI5
aI19
aI35
aI16
aI0
aI34
aa.