(lp0
(lp1
I46
aI26
aI1
aI39
aI5
aI62
aI38
aI30
aI63
aI44
aI23
aI53
aI49
aI40
aI57
aI36
aI21
aI25
aI0
aI17
aI37
aI16
aI43
aI4
aI47
aI22
aI8
aI13
aI35
aI6
aI41
aI58
aI50
aI51
aI54
aI29
aI45
aI56
aI31
aI12
aI19
aI3
aI14
aI24
aI61
aI9
aI48
aI10
aI32
aI34
aI20
aI27
aI11
aI52
aI33
aI28
aI18
aI2
aI59
aI15
aI7
aI55
aI60
aI42
aa(lp2
I34
aI27
aI8
aI17
aI46
aI57
aI52
aI10
aI45
aI5
aI60
aI15
aI29
aI58
aI54
aI22
aI16
aI18
aI42
aI24
aI13
aI43
aI35
aI3
aI21
aI9
aI49
aI48
aI47
aI40
aI56
aI51
aI55
aI50
aI63
aI25
aI44
aI61
aI0
aI20
aI2
aI7
aI37
aI6
aI39
aI31
aI1
aI12
aI32
aI30
aI23
aI53
aI14
aI33
aI36
aI19
aI28
aI59
aI11
aI4
aI62
aI38
aI41
aI26
aa(lp3
I54
aI5
aI30
aI47
aI34
aI20
aI33
aI26
aI11
aI21
aI3
aI46
aI13
aI19
aI9
aI15
aI28
aI7
aI35
aI32
aI49
aI23
aI40
aI52
aI37
aI12
aI62
aI59
aI41
aI16
aI36
aI2
aI53
aI24
aI55
aI44
aI29
aI31
aI39
aI25
aI14
aI58
aI48
aI57
aI63
aI38
aI1
aI61
aI17
aI43
aI45
aI10
aI27
aI50
aI22
aI4
aI56
aI60
aI18
aI0
aI42
aI6
aI51
aI8
aa(lp4
I58
aI34
aI10
aI42
aI48
aI14
aI16
aI3
aI60
aI38
aI26
aI44
aI15
aI6
aI57
aI25
aI5
aI30
aI1
aI7
aI29
aI59
aI22
aI35
aI19
aI32
aI39
aI47
aI13
aI41
aI56
aI62
aI45
aI53
aI36
aI52
aI11
aI49
aI40
aI17
aI51
aI28
aI43
aI4
aI61
aI33
aI63
aI0
aI50
aI46
aI24
aI27
aI18
aI2
aI20
aI54
aI8
aI37
aI21
aI9
aI55
aI31
aI12
aI23
aa(lp5
I31
aI11
aI52
aI27
aI63
aI60
aI62
aI0
aI15
aI23
aI35
aI36
aI56
aI3
aI9
aI57
aI49
aI12
aI34
aI5
aI30
aI37
aI44
aI61
aI55
aI54
aI51
aI24
aI46
aI39
aI43
aI22
aI40
aI19
aI33
aI17
aI41
aI42
aI45
aI20
aI48
aI7
aI50
aI38
aI21
aI26
aI53
aI10
aI29
aI28
aI18
aI47
aI13
aI2
aI6
aI16
aI32
aI58
aI8
aI1
aI25
aI14
aI4
aI59
aa(lp6
I39
aI2
aI56
aI4
aI17
aI3
aI21
aI55
aI11
aI19
aI12
aI22
aI47
aI52
aI15
aI36
aI25
aI40
aI63
aI1
aI27
aI61
aI57
aI45
aI54
aI9
aI5
aI31
aI42
aI0
aI28
aI24
aI20
aI58
aI10
aI60
aI26
aI53
aI16
aI8
aI32
aI14
aI37
aI43
aI6
aI34
aI41
aI46
aI48
aI29
aI30
aI7
aI18
aI62
aI35
aI38
aI23
aI44
aI50
aI49
aI59
aI33
aI13
aI51
aa(lp7
I50
aI19
aI15
aI16
aI56
aI29
aI51
aI31
aI59
aI12
aI54
aI5
aI1
aI0
aI4
aI22
aI62
aI45
aI10
aI61
aI46
aI60
aI28
aI41
aI11
aI55
aI9
aI44
aI53
aI2
aI38
aI21
aI25
aI43
aI23
aI58
aI24
aI52
aI40
aI7
aI35
aI3
aI63
aI6
aI34
aI14
aI49
aI47
aI42
aI33
aI39
aI30
aI17
aI27
aI20
aI26
aI37
aI8
aI13
aI48
aI36
aI18
aI57
aI32
aa(lp8
I62
aI58
aI22
aI46
aI34
aI6
aI5
aI43
aI9
aI50
aI38
aI25
aI51
aI8
aI20
aI32
aI10
aI60
aI14
aI42
aI48
aI55
aI30
aI13
aI40
aI7
aI33
aI52
aI3
aI0
aI2
aI31
aI12
aI29
aI23
aI27
aI18
aI24
aI16
aI61
aI26
aI49
aI54
aI17
aI41
aI44
aI63
aI28
aI19
aI37
aI45
aI1
aI47
aI21
aI4
aI56
aI11
aI39
aI15
aI57
aI36
aI35
aI59
aI53
aa(lp9
I14
aI53
aI48
aI58
aI54
aI42
aI56
aI21
aI62
aI2
aI45
aI33
aI50
aI41
aI16
aI43
aI37
aI63
aI7
aI9
aI11
aI60
aI28
aI49
aI13
aI38
aI61
aI59
aI6
aI35
aI30
aI4
aI3
aI12
aI15
aI36
aI55
aI24
aI52
aI34
aI32
aI10
aI5
aI19
aI46
aI18
aI22
aI8
aI40
aI44
aI27
aI26
aI47
aI51
aI39
aI20
aI1
aI57
aI23
aI0
aI31
aI29
aI17
aI25
aa(lp10
I11
aI44
aI29
aI49
aI33
aI5
aI35
aI13
aI62
aI34
aI16
aI43
aI7
aI25
aI40
aI27
aI39
aI48
aI0
aI19
aI36
aI22
aI60
aI23
aI26
aI18
aI61
aI53
aI9
aI47
aI15
aI20
aI46
aI1
aI55
aI54
aI59
aI42
aI51
aI21
aI32
aI31
aI24
aI3
aI4
aI41
aI56
aI14
aI45
aI17
aI63
aI58
aI37
aI52
aI50
aI8
aI2
aI38
aI30
aI6
aI12
aI57
aI10
aI28
aa(lp11
I57
aI14
aI60
aI59
aI17
aI39
aI52
aI9
aI49
aI29
aI50
aI6
aI28
aI36
aI19
aI1
aI46
aI61
aI20
aI4
aI31
aI40
aI22
aI26
aI48
aI58
aI12
aI53
aI33
aI13
aI42
aI63
aI11
aI38
aI35
aI27
aI24
aI47
aI54
aI30
aI25
aI32
aI51
aI23
aI2
aI37
aI3
aI5
aI10
aI0
aI21
aI43
aI55
aI41
aI62
aI7
aI8
aI45
aI44
aI15
aI18
aI34
aI16
aI56
aa(lp12
I22
aI30
aI6
aI17
aI24
aI7
aI10
aI15
aI34
aI62
aI45
aI58
aI52
aI28
aI63
aI47
aI60
aI32
aI46
aI23
aI38
aI1
aI40
aI43
aI35
aI16
aI49
aI37
aI42
aI53
aI36
aI11
aI8
aI2
aI18
aI0
aI31
aI26
aI41
aI39
aI3
aI57
aI48
aI19
aI29
aI54
aI27
aI4
aI61
aI44
aI59
aI25
aI13
aI5
aI20
aI51
aI56
aI14
aI55
aI9
aI21
aI33
aI50
aI12
aa(lp13
I37
aI3
aI36
aI41
aI43
aI38
aI6
aI52
aI21
aI45
aI57
aI54
aI42
aI59
aI29
aI39
aI61
aI26
aI22
aI32
aI58
aI13
aI4
aI23
aI25
aI33
aI17
aI46
aI11
aI18
aI40
aI7
aI20
aI53
aI56
aI49
aI2
aI1
aI0
aI47
aI8
aI10
aI62
aI27
aI14
aI5
aI12
aI24
aI9
aI28
aI35
aI34
aI63
aI50
aI60
aI44
aI30
aI15
aI51
aI55
aI19
aI31
aI16
aI48
aa(lp14
I57
aI62
aI60
aI33
aI31
aI24
aI50
aI58
aI48
aI27
aI53
aI5
aI1
aI20
aI42
aI10
aI54
aI0
aI13
aI12
aI21
aI18
aI39
aI37
aI32
aI30
aI11
aI17
aI49
aI52
aI26
aI38
aI51
aI19
aI45
aI40
aI29
aI9
aI14
aI63
aI61
aI46
aI34
aI3
aI36
aI8
aI15
aI35
aI7
aI41
aI16
aI4
aI44
aI43
aI22
aI55
aI47
aI6
aI2
aI25
aI56
aI23
aI28
aI59
aa(lp15
I1
aI58
aI12
aI52
aI4
aI25
aI24
aI41
aI60
aI36
aI15
aI30
aI27
aI57
aI13
aI20
aI62
aI21
aI63
aI8
aI22
aI38
aI37
aI23
aI42
aI7
aI43
aI29
aI54
aI33
aI10
aI2
aI35
aI16
aI56
aI17
aI0
aI61
aI39
aI40
aI9
aI28
aI14
aI5
aI51
aI49
aI59
aI19
aI46
aI31
aI6
aI44
aI3
aI47
aI32
aI34
aI48
aI11
aI18
aI50
aI55
aI53
aI26
aI45
aa(lp16
I34
aI32
aI13
aI57
aI63
aI10
aI24
aI31
aI25
aI46
aI49
aI2
aI16
aI4
aI27
aI11
aI7
aI20
aI45
aI38
aI12
aI1
aI18
aI9
aI42
aI36
aI53
aI33
aI19
aI28
aI41
aI35
aI37
aI40
aI43
aI3
aI21
aI14
aI56
aI50
aI44
aI26
aI0
aI54
aI62
aI61
aI8
aI22
aI23
aI51
aI55
aI15
aI30
aI48
aI6
aI59
aI29
aI52
aI60
aI58
aI17
aI5
aI47
aI39
aa(lp17
I41
aI45
aI7
aI10
aI3
aI43
aI46
aI24
aI18
aI55
aI9
aI28
aI57
aI27
aI49
aI4
aI34
aI47
aI1
aI59
aI48
aI36
aI25
aI53
aI60
aI37
aI0
aI40
aI29
aI54
aI62
aI61
aI2
aI14
aI52
aI19
aI13
aI51
aI30
aI58
aI17
aI39
aI20
aI11
aI35
aI50
aI23
aI31
aI38
aI42
aI15
aI8
aI32
aI12
aI21
aI63
aI6
aI16
aI26
aI5
aI44
aI33
aI56
aI22
aa(lp18
I8
aI55
aI13
aI34
aI5
aI47
aI11
aI43
aI27
aI1
aI37
aI3
aI6
aI35
aI52
aI32
aI30
aI16
aI60
aI63
aI59
aI31
aI56
aI4
aI24
aI39
aI12
aI7
aI49
aI36
aI21
aI57
aI42
aI51
aI40
aI53
aI38
aI48
aI45
aI26
aI25
aI17
aI61
aI18
aI22
aI44
aI33
aI23
aI2
aI58
aI41
aI54
aI14
aI50
aI20
aI28
aI0
aI15
aI19
aI9
aI46
aI29
aI62
aI10
aa(lp19
I11
aI25
aI48
aI42
aI63
aI26
aI28
aI31
aI41
aI23
aI62
aI55
aI4
aI14
aI19
aI39
aI3
aI47
aI30
aI53
aI5
aI6
aI58
aI57
aI52
aI49
aI10
aI32
aI24
aI54
aI37
aI56
aI13
aI50
aI1
aI44
aI2
aI29
aI33
aI27
aI38
aI15
aI20
aI16
aI40
aI0
aI60
aI9
aI51
aI21
aI35
aI12
aI61
aI46
aI8
aI45
aI7
aI22
aI18
aI34
aI36
aI43
aI59
aI17
aa(lp20
I8
aI44
aI20
aI53
aI59
aI46
aI35
aI41
aI22
aI58
aI51
aI42
aI55
aI14
aI21
aI37
aI31
aI17
aI5
aI24
aI2
aI10
aI48
aI54
aI23
aI0
aI60
aI45
aI39
aI52
aI29
aI63
aI6
aI61
aI26
aI47
aI49
aI13
aI56
aI9
aI28
aI40
aI38
aI11
aI25
aI1
aI3
aI50
aI16
aI15
aI36
aI19
aI30
aI34
aI7
aI32
aI43
aI27
aI18
aI62
aI12
aI57
aI33
aI4
aa.