(lp0
(lp1
I6
aI11
aI7
aI3
aI10
aI17
aI0
aI21
aI19
aI15
aI9
aI20
aI4
aI5
aI12
aI13
aI22
aI16
aI18
aI14
aI2
aI1
aI8
aI23
aa(lp2
I15
aI4
aI14
aI7
aI10
aI11
aI16
aI18
aI12
aI13
aI3
aI22
aI20
aI5
aI19
aI6
aI8
aI21
aI17
aI1
aI9
aI0
aI23
aI2
aa(lp3
I20
aI19
aI10
aI3
aI16
aI17
aI23
aI8
aI1
aI5
aI15
aI6
aI14
aI9
aI4
aI0
aI11
aI13
aI22
aI21
aI2
aI18
aI7
aI12
aa(lp4
I22
aI17
aI12
aI8
aI7
aI2
aI15
aI20
aI0
aI4
aI18
aI13
aI9
aI21
aI6
aI11
aI16
aI14
aI1
aI3
aI19
aI23
aI5
aI10
aa(lp5
I9
aI8
aI5
aI16
aI14
aI12
aI0
aI7
aI23
aI11
aI17
aI20
aI6
aI19
aI22
aI10
aI2
aI21
aI13
aI3
aI1
aI4
aI18
aI15
aa(lp6
I13
aI11
aI21
aI14
aI5
aI23
aI0
aI12
aI15
aI17
aI19
aI6
aI8
aI22
aI1
aI4
aI10
aI3
aI7
aI18
aI20
aI9
aI16
aI2
aa(lp7
I20
aI16
aI15
aI8
aI13
aI19
aI6
aI3
aI2
aI9
aI7
aI4
aI0
aI17
aI21
aI1
aI5
aI18
aI22
aI23
aI10
aI14
aI12
aI11
aa(lp8
I22
aI2
aI8
aI4
aI10
aI5
aI12
aI23
aI7
aI19
aI6
aI13
aI14
aI11
aI16
aI21
aI17
aI0
aI9
aI20
aI1
aI18
aI15
aI3
aa(lp9
I13
aI18
aI6
aI23
aI4
aI15
aI20
aI0
aI7
aI5
aI22
aI9
aI8
aI10
aI19
aI11
aI1
aI14
aI2
aI21
aI12
aI17
aI3
aI16
aa(lp10
I14
aI18
aI0
aI16
aI15
aI3
aI2
aI5
aI21
aI20
aI11
aI9
aI10
aI7
aI4
aI19
aI12
aI17
aI13
aI8
aI6
aI23
aI1
aI22
aa(lp11
I2
aI10
aI13
aI20
aI11
aI18
aI7
aI6
aI1
aI5
aI17
aI21
aI0
aI8
aI22
aI9
aI4
aI15
aI3
aI23
aI16
aI14
aI12
aI19
aa(lp12
I9
aI10
aI23
aI22
aI12
aI7
aI19
aI6
aI1
aI4
aI21
aI16
aI13
aI20
aI14
aI3
aI18
aI2
aI15
aI8
aI5
aI11
aI0
aI17
aa(lp13
I7
aI18
aI11
aI12
aI22
aI10
aI13
aI9
aI3
aI0
aI20
aI23
aI6
aI16
aI14
aI1
aI21
aI2
aI15
aI4
aI5
aI19
aI17
aI8
aa(lp14
I5
aI18
aI7
aI17
aI9
aI23
aI11
aI2
aI13
aI12
aI19
aI21
aI0
aI1
aI6
aI20
aI10
aI15
aI3
aI14
aI8
aI22
aI16
aI4
aa(lp15
I6
aI4
aI18
aI10
aI17
aI5
aI13
aI14
aI15
aI8
aI2
aI19
aI9
aI23
aI21
aI3
aI12
aI1
aI11
aI22
aI0
aI20
aI16
aI7
aa(lp16
I14
aI8
aI18
aI7
aI9
aI16
aI1
aI10
aI23
aI11
aI15
aI4
aI17
aI19
aI21
aI3
aI20
aI6
aI13
aI22
aI0
aI2
aI5
aI12
aa(lp17
I11
aI1
aI19
aI6
aI23
aI22
aI5
aI10
aI13
aI16
aI3
aI9
aI18
aI14
aI17
aI0
aI12
aI2
aI21
aI8
aI15
aI20
aI4
aI7
aa(lp18
I19
aI17
aI2
aI3
aI13
aI11
aI1
aI8
aI16
aI14
aI18
aI15
aI5
aI21
aI10
aI0
aI22
aI12
aI6
aI9
aI23
aI4
aI20
aI7
aa(lp19
I7
aI12
aI19
aI4
aI20
aI5
aI11
aI14
aI10
aI17
aI0
aI3
aI23
aI22
aI21
aI6
aI18
aI16
aI1
aI9
aI8
aI15
aI13
aI2
aa(lp20
I21
aI13
aI3
aI22
aI14
aI16
aI2
aI6
aI23
aI18
aI17
aI20
aI1
aI10
aI0
aI19
aI12
aI8
aI11
aI7
aI4
aI9
aI15
aI5
aa.