(lp0
(lp1
I26
aI45
aI57
aI12
aI9
aI48
aI56
aI34
aI8
aI15
aI53
aI25
aI42
aI50
aI13
aI46
aI23
aI19
aI27
aI21
aI52
aI38
aI47
aI28
aI1
aI2
aI51
aI3
aI0
aI39
aI14
aI24
aI11
aI49
aI40
aI4
aI43
aI16
aI41
aI5
aI54
aI7
aI29
aI10
aI20
aI37
aI22
aI31
aI36
aI55
aI6
aI33
aI30
aI17
aI35
aI18
aI44
aI32
aa(lp2
I3
aI21
aI12
aI47
aI10
aI32
aI18
aI25
aI14
aI38
aI33
aI19
aI52
aI24
aI13
aI42
aI8
aI39
aI34
aI46
aI16
aI35
aI9
aI26
aI28
aI57
aI17
aI15
aI54
aI2
aI0
aI50
aI23
aI20
aI44
aI45
aI11
aI56
aI29
aI22
aI5
aI4
aI31
aI7
aI40
aI41
aI43
aI53
aI55
aI1
aI51
aI49
aI48
aI30
aI27
aI37
aI6
aI36
aa(lp3
I6
aI48
aI2
aI13
aI27
aI11
aI29
aI35
aI55
aI9
aI40
aI7
aI10
aI49
aI0
aI20
aI51
aI32
aI53
aI34
aI52
aI21
aI5
aI30
aI12
aI17
aI1
aI31
aI16
aI23
aI28
aI22
aI50
aI57
aI33
aI41
aI38
aI14
aI56
aI8
aI19
aI36
aI54
aI44
aI45
aI15
aI46
aI24
aI39
aI47
aI4
aI37
aI42
aI43
aI26
aI3
aI25
aI18
aa(lp4
I47
aI12
aI9
aI0
aI8
aI53
aI5
aI26
aI16
aI33
aI20
aI13
aI52
aI17
aI19
aI6
aI49
aI23
aI21
aI1
aI56
aI44
aI57
aI24
aI32
aI15
aI11
aI31
aI3
aI4
aI48
aI30
aI55
aI38
aI22
aI42
aI37
aI34
aI2
aI40
aI35
aI10
aI54
aI25
aI29
aI43
aI51
aI18
aI46
aI50
aI7
aI45
aI28
aI27
aI39
aI36
aI14
aI41
aa(lp5
I30
aI22
aI2
aI37
aI9
aI28
aI25
aI40
aI33
aI42
aI41
aI29
aI51
aI32
aI35
aI21
aI11
aI12
aI27
aI23
aI6
aI15
aI55
aI52
aI10
aI45
aI36
aI44
aI26
aI48
aI43
aI4
aI3
aI14
aI53
aI38
aI18
aI19
aI56
aI0
aI49
aI34
aI57
aI20
aI16
aI13
aI47
aI1
aI7
aI39
aI54
aI31
aI50
aI24
aI8
aI46
aI17
aI5
aa(lp6
I7
aI53
aI12
aI0
aI6
aI1
aI34
aI11
aI24
aI17
aI30
aI33
aI21
aI16
aI44
aI35
aI38
aI52
aI19
aI57
aI48
aI55
aI10
aI14
aI20
aI31
aI46
aI13
aI49
aI36
aI50
aI3
aI47
aI56
aI42
aI2
aI32
aI45
aI18
aI37
aI15
aI27
aI4
aI28
aI25
aI9
aI41
aI54
aI26
aI5
aI51
aI8
aI39
aI29
aI40
aI43
aI23
aI22
aa(lp7
I57
aI22
aI13
aI18
aI41
aI33
aI25
aI34
aI19
aI29
aI6
aI56
aI36
aI11
aI8
aI48
aI23
aI4
aI16
aI38
aI31
aI2
aI21
aI27
aI26
aI37
aI7
aI0
aI32
aI45
aI10
aI1
aI52
aI14
aI30
aI15
aI3
aI20
aI28
aI42
aI51
aI50
aI39
aI44
aI35
aI9
aI55
aI53
aI43
aI17
aI40
aI49
aI46
aI47
aI12
aI54
aI5
aI24
aa(lp8
I2
aI42
aI12
aI21
aI44
aI5
aI55
aI3
aI33
aI40
aI13
aI38
aI49
aI50
aI34
aI48
aI32
aI0
aI25
aI4
aI23
aI36
aI30
aI17
aI37
aI11
aI47
aI51
aI29
aI24
aI9
aI43
aI35
aI53
aI19
aI20
aI54
aI15
aI27
aI8
aI45
aI1
aI6
aI56
aI46
aI52
aI16
aI14
aI22
aI39
aI28
aI26
aI41
aI7
aI31
aI18
aI10
aI57
aa(lp9
I26
aI32
aI29
aI33
aI22
aI37
aI34
aI11
aI46
aI14
aI8
aI44
aI1
aI48
aI49
aI3
aI16
aI0
aI4
aI10
aI39
aI53
aI40
aI17
aI21
aI9
aI5
aI23
aI30
aI7
aI50
aI52
aI19
aI38
aI15
aI27
aI54
aI13
aI41
aI28
aI18
aI20
aI2
aI31
aI45
aI35
aI57
aI6
aI42
aI24
aI51
aI47
aI55
aI43
aI12
aI25
aI36
aI56
aa(lp10
I48
aI12
aI27
aI45
aI0
aI51
aI31
aI57
aI9
aI47
aI14
aI35
aI50
aI16
aI40
aI15
aI56
aI8
aI5
aI55
aI54
aI13
aI10
aI22
aI11
aI6
aI19
aI34
aI29
aI25
aI42
aI43
aI52
aI24
aI38
aI20
aI46
aI36
aI4
aI7
aI3
aI44
aI26
aI18
aI32
aI23
aI1
aI21
aI30
aI37
aI33
aI53
aI49
aI39
aI41
aI17
aI28
aI2
aa(lp11
I43
aI52
aI21
aI17
aI19
aI48
aI45
aI29
aI36
aI57
aI49
aI50
aI20
aI44
aI40
aI35
aI12
aI3
aI54
aI18
aI5
aI38
aI25
aI46
aI55
aI7
aI16
aI56
aI4
aI28
aI23
aI42
aI51
aI11
aI30
aI26
aI2
aI8
aI27
aI0
aI22
aI6
aI47
aI9
aI34
aI33
aI41
aI15
aI24
aI14
aI32
aI53
aI31
aI37
aI13
aI1
aI10
aI39
aa(lp12
I14
aI40
aI9
aI10
aI31
aI19
aI41
aI48
aI56
aI54
aI38
aI8
aI43
aI11
aI4
aI17
aI53
aI36
aI30
aI2
aI51
aI33
aI24
aI13
aI42
aI16
aI15
aI20
aI37
aI25
aI32
aI6
aI1
aI49
aI27
aI46
aI5
aI50
aI52
aI44
aI18
aI26
aI45
aI0
aI28
aI47
aI23
aI21
aI57
aI22
aI34
aI55
aI12
aI39
aI3
aI29
aI35
aI7
aa(lp13
I43
aI0
aI57
aI55
aI31
aI32
aI1
aI29
aI7
aI30
aI23
aI28
aI24
aI54
aI41
aI19
aI27
aI5
aI12
aI46
aI47
aI50
aI21
aI22
aI53
aI42
aI49
aI51
aI44
aI20
aI36
aI17
aI39
aI10
aI11
aI4
aI56
aI34
aI13
aI25
aI45
aI18
aI3
aI38
aI14
aI9
aI52
aI48
aI26
aI37
aI33
aI40
aI35
aI2
aI15
aI6
aI8
aI16
aa(lp14
I33
aI38
aI48
aI40
aI47
aI29
aI7
aI25
aI31
aI42
aI20
aI54
aI15
aI0
aI30
aI23
aI46
aI1
aI13
aI50
aI45
aI36
aI34
aI37
aI49
aI22
aI3
aI14
aI9
aI10
aI2
aI44
aI12
aI55
aI43
aI19
aI41
aI18
aI35
aI21
aI6
aI57
aI27
aI53
aI5
aI39
aI32
aI26
aI11
aI52
aI28
aI8
aI56
aI17
aI51
aI24
aI16
aI4
aa(lp15
I4
aI31
aI10
aI18
aI44
aI1
aI23
aI36
aI34
aI27
aI43
aI56
aI33
aI52
aI41
aI48
aI55
aI13
aI25
aI11
aI42
aI50
aI6
aI22
aI38
aI30
aI0
aI47
aI39
aI19
aI9
aI21
aI45
aI53
aI2
aI37
aI3
aI24
aI20
aI17
aI46
aI16
aI49
aI32
aI35
aI51
aI40
aI12
aI8
aI14
aI28
aI29
aI26
aI54
aI5
aI57
aI7
aI15
aa(lp16
I10
aI12
aI3
aI41
aI17
aI28
aI9
aI42
aI16
aI4
aI52
aI13
aI45
aI15
aI32
aI49
aI7
aI30
aI43
aI33
aI21
aI26
aI20
aI38
aI36
aI44
aI19
aI2
aI6
aI56
aI54
aI24
aI5
aI57
aI55
aI35
aI37
aI39
aI8
aI48
aI14
aI0
aI25
aI18
aI53
aI31
aI23
aI29
aI50
aI27
aI47
aI46
aI51
aI34
aI1
aI40
aI22
aI11
aa(lp17
I31
aI17
aI43
aI48
aI22
aI19
aI7
aI29
aI41
aI11
aI38
aI23
aI5
aI15
aI49
aI47
aI16
aI13
aI1
aI6
aI30
aI36
aI34
aI57
aI37
aI46
aI25
aI32
aI56
aI18
aI8
aI9
aI39
aI28
aI55
aI50
aI33
aI42
aI14
aI51
aI52
aI3
aI40
aI10
aI54
aI45
aI35
aI4
aI21
aI44
aI27
aI0
aI2
aI26
aI20
aI24
aI53
aI12
aa(lp18
I37
aI39
aI45
aI2
aI5
aI13
aI42
aI22
aI32
aI11
aI29
aI35
aI48
aI8
aI38
aI23
aI21
aI15
aI24
aI0
aI44
aI3
aI55
aI51
aI54
aI7
aI10
aI53
aI30
aI52
aI25
aI49
aI12
aI41
aI43
aI40
aI14
aI33
aI28
aI26
aI34
aI36
aI17
aI50
aI47
aI4
aI46
aI27
aI31
aI57
aI18
aI20
aI56
aI19
aI16
aI9
aI6
aI1
aa(lp19
I22
aI8
aI5
aI54
aI29
aI33
aI17
aI31
aI44
aI45
aI13
aI14
aI37
aI24
aI28
aI42
aI57
aI43
aI2
aI6
aI20
aI39
aI4
aI32
aI47
aI30
aI46
aI10
aI53
aI0
aI51
aI12
aI1
aI9
aI55
aI19
aI36
aI52
aI23
aI49
aI3
aI16
aI21
aI34
aI40
aI41
aI15
aI56
aI35
aI50
aI18
aI27
aI7
aI48
aI38
aI11
aI25
aI26
aa(lp20
I31
aI48
aI26
aI12
aI30
aI18
aI50
aI39
aI5
aI4
aI32
aI35
aI23
aI9
aI41
aI19
aI46
aI56
aI3
aI36
aI47
aI10
aI6
aI40
aI15
aI11
aI1
aI57
aI38
aI37
aI2
aI25
aI17
aI44
aI51
aI34
aI0
aI55
aI14
aI8
aI21
aI13
aI27
aI49
aI43
aI22
aI16
aI53
aI42
aI54
aI33
aI20
aI52
aI28
aI29
aI45
aI24
aI7
aa.