(lp0
(lp1
I14
aI22
aI8
aI20
aI43
aI19
aI13
aI23
aI16
aI45
aI27
aI25
aI44
aI1
aI4
aI17
aI11
aI7
aI3
aI2
aI33
aI38
aI31
aI28
aI26
aI5
aI41
aI6
aI21
aI37
aI35
aI12
aI29
aI24
aI36
aI34
aI32
aI0
aI10
aI15
aI42
aI39
aI30
aI9
aI40
aI18
aa(lp2
I1
aI39
aI16
aI6
aI21
aI42
aI29
aI12
aI23
aI25
aI2
aI40
aI38
aI36
aI32
aI10
aI0
aI28
aI20
aI11
aI4
aI30
aI18
aI22
aI13
aI27
aI35
aI31
aI45
aI24
aI3
aI15
aI5
aI41
aI14
aI43
aI33
aI7
aI9
aI8
aI19
aI26
aI37
aI34
aI44
aI17
aa(lp3
I25
aI34
aI24
aI12
aI45
aI22
aI14
aI3
aI21
aI18
aI9
aI35
aI4
aI41
aI2
aI6
aI5
aI36
aI0
aI28
aI1
aI20
aI19
aI43
aI16
aI40
aI15
aI31
aI23
aI11
aI38
aI10
aI13
aI7
aI32
aI30
aI39
aI17
aI26
aI29
aI42
aI44
aI8
aI27
aI37
aI33
aa(lp4
I16
aI14
aI15
aI45
aI28
aI33
aI38
aI22
aI20
aI37
aI25
aI26
aI9
aI32
aI30
aI40
aI44
aI34
aI0
aI7
aI39
aI4
aI24
aI31
aI41
aI13
aI43
aI42
aI6
aI29
aI10
aI2
aI19
aI5
aI27
aI8
aI3
aI36
aI35
aI23
aI1
aI17
aI12
aI21
aI11
aI18
aa(lp5
I32
aI33
aI34
aI11
aI36
aI14
aI3
aI4
aI41
aI35
aI19
aI25
aI40
aI9
aI17
aI2
aI16
aI28
aI37
aI13
aI44
aI29
aI15
aI21
aI39
aI26
aI23
aI8
aI43
aI10
aI42
aI38
aI45
aI1
aI6
aI12
aI24
aI20
aI0
aI30
aI7
aI5
aI18
aI27
aI31
aI22
aa(lp6
I18
aI31
aI12
aI29
aI4
aI10
aI11
aI25
aI16
aI32
aI8
aI45
aI38
aI1
aI40
aI23
aI19
aI2
aI43
aI22
aI0
aI13
aI17
aI41
aI9
aI36
aI44
aI42
aI6
aI24
aI33
aI27
aI14
aI3
aI20
aI15
aI5
aI35
aI26
aI28
aI39
aI21
aI37
aI7
aI30
aI34
aa(lp7
I28
aI42
aI40
aI31
aI7
aI8
aI29
aI25
aI3
aI2
aI16
aI18
aI26
aI21
aI1
aI4
aI35
aI17
aI6
aI39
aI34
aI9
aI12
aI10
aI38
aI30
aI44
aI11
aI24
aI36
aI13
aI14
aI32
aI5
aI23
aI37
aI15
aI19
aI33
aI27
aI0
aI22
aI20
aI41
aI43
aI45
aa(lp8
I5
aI2
aI37
aI39
aI4
aI17
aI15
aI27
aI9
aI0
aI43
aI7
aI20
aI8
aI31
aI10
aI23
aI33
aI22
aI18
aI35
aI30
aI6
aI24
aI13
aI16
aI12
aI19
aI28
aI42
aI38
aI40
aI32
aI1
aI14
aI3
aI34
aI25
aI44
aI41
aI45
aI21
aI36
aI11
aI26
aI29
aa(lp9
I14
aI16
aI4
aI11
aI43
aI29
aI23
aI45
aI24
aI3
aI7
aI30
aI5
aI21
aI35
aI0
aI27
aI31
aI37
aI9
aI44
aI40
aI6
aI26
aI39
aI28
aI32
aI19
aI18
aI10
aI38
aI8
aI34
aI13
aI15
aI36
aI1
aI20
aI2
aI42
aI22
aI25
aI17
aI41
aI12
aI33
aa(lp10
I25
aI17
aI10
aI24
aI34
aI11
aI39
aI27
aI7
aI5
aI23
aI18
aI44
aI1
aI15
aI37
aI6
aI42
aI32
aI13
aI26
aI38
aI45
aI21
aI4
aI9
aI35
aI14
aI43
aI40
aI2
aI8
aI28
aI30
aI16
aI36
aI33
aI29
aI0
aI20
aI19
aI3
aI22
aI12
aI41
aI31
aa(lp11
I42
aI36
aI8
aI40
aI20
aI13
aI28
aI35
aI29
aI33
aI31
aI26
aI2
aI18
aI11
aI23
aI37
aI41
aI21
aI45
aI27
aI10
aI17
aI43
aI5
aI14
aI7
aI24
aI22
aI15
aI0
aI12
aI25
aI30
aI4
aI16
aI39
aI32
aI3
aI6
aI9
aI34
aI19
aI1
aI38
aI44
aa(lp12
I30
aI7
aI26
aI45
aI8
aI36
aI19
aI29
aI21
aI33
aI23
aI42
aI37
aI35
aI0
aI43
aI31
aI1
aI6
aI20
aI24
aI15
aI3
aI44
aI32
aI38
aI9
aI27
aI12
aI28
aI10
aI4
aI5
aI2
aI25
aI18
aI39
aI22
aI11
aI40
aI17
aI16
aI13
aI34
aI41
aI14
aa(lp13
I41
aI28
aI27
aI43
aI17
aI15
aI36
aI7
aI38
aI39
aI25
aI44
aI34
aI45
aI2
aI32
aI10
aI4
aI0
aI29
aI26
aI19
aI33
aI35
aI18
aI21
aI42
aI24
aI11
aI31
aI40
aI6
aI5
aI37
aI23
aI9
aI16
aI22
aI1
aI13
aI14
aI3
aI8
aI30
aI20
aI12
aa(lp14
I21
aI34
aI40
aI13
aI16
aI5
aI26
aI45
aI44
aI24
aI31
aI35
aI42
aI11
aI25
aI1
aI4
aI37
aI29
aI23
aI17
aI30
aI38
aI33
aI14
aI6
aI2
aI39
aI7
aI15
aI27
aI36
aI22
aI41
aI3
aI8
aI28
aI18
aI9
aI0
aI43
aI20
aI32
aI12
aI19
aI10
aa(lp15
I7
aI0
aI5
aI13
aI36
aI29
aI3
aI6
aI23
aI15
aI43
aI41
aI37
aI31
aI16
aI25
aI33
aI30
aI20
aI19
aI35
aI11
aI2
aI27
aI12
aI26
aI14
aI42
aI9
aI38
aI34
aI40
aI45
aI17
aI8
aI32
aI10
aI22
aI39
aI24
aI1
aI21
aI44
aI4
aI28
aI18
aa(lp16
I12
aI6
aI26
aI39
aI23
aI38
aI27
aI5
aI29
aI16
aI36
aI11
aI19
aI20
aI2
aI33
aI18
aI0
aI7
aI32
aI34
aI41
aI30
aI45
aI14
aI28
aI37
aI17
aI42
aI1
aI10
aI22
aI24
aI44
aI21
aI25
aI3
aI8
aI35
aI40
aI13
aI9
aI15
aI31
aI43
aI4
aa(lp17
I4
aI22
aI6
aI13
aI15
aI20
aI10
aI0
aI43
aI14
aI35
aI32
aI16
aI30
aI1
aI21
aI33
aI44
aI27
aI45
aI34
aI31
aI3
aI28
aI36
aI8
aI18
aI11
aI25
aI7
aI24
aI41
aI38
aI29
aI2
aI12
aI26
aI37
aI19
aI23
aI17
aI9
aI5
aI39
aI42
aI40
aa(lp18
I20
aI45
aI0
aI22
aI21
aI9
aI15
aI32
aI11
aI7
aI27
aI10
aI44
aI38
aI31
aI25
aI29
aI4
aI5
aI19
aI35
aI33
aI34
aI3
aI26
aI40
aI30
aI37
aI18
aI8
aI42
aI2
aI16
aI17
aI23
aI1
aI43
aI39
aI28
aI13
aI24
aI14
aI36
aI12
aI41
aI6
aa(lp19
I17
aI19
aI2
aI42
aI30
aI3
aI5
aI13
aI11
aI15
aI31
aI28
aI36
aI40
aI43
aI7
aI4
aI8
aI16
aI20
aI25
aI45
aI39
aI35
aI23
aI1
aI18
aI22
aI27
aI32
aI12
aI33
aI6
aI29
aI44
aI9
aI10
aI38
aI41
aI21
aI26
aI24
aI37
aI14
aI34
aI0
aa(lp20
I25
aI10
aI11
aI28
aI26
aI8
aI4
aI20
aI35
aI22
aI41
aI14
aI44
aI38
aI21
aI33
aI31
aI45
aI15
aI39
aI13
aI9
aI6
aI7
aI43
aI40
aI5
aI27
aI16
aI36
aI23
aI24
aI1
aI42
aI18
aI2
aI3
aI37
aI19
aI0
aI30
aI17
aI34
aI32
aI12
aI29
aa.