(lp0
(lp1
I12
aI36
aI39
aI30
aI28
aI27
aI38
aI5
aI23
aI9
aI4
aI2
aI37
aI16
aI14
aI8
aI13
aI10
aI32
aI19
aI33
aI1
aI20
aI3
aI29
aI17
aI7
aI15
aI22
aI6
aI24
aI26
aI35
aI31
aI11
aI0
aI21
aI34
aI18
aI25
aa(lp2
I2
aI9
aI7
aI32
aI4
aI10
aI12
aI27
aI1
aI17
aI37
aI18
aI5
aI30
aI6
aI35
aI11
aI21
aI14
aI33
aI34
aI3
aI13
aI38
aI25
aI28
aI23
aI39
aI31
aI0
aI20
aI15
aI29
aI16
aI19
aI26
aI8
aI36
aI22
aI24
aa(lp3
I30
aI32
aI7
aI9
aI13
aI25
aI18
aI14
aI33
aI15
aI0
aI31
aI10
aI20
aI1
aI38
aI6
aI26
aI35
aI27
aI17
aI12
aI19
aI3
aI39
aI4
aI11
aI24
aI34
aI21
aI23
aI37
aI2
aI22
aI8
aI29
aI16
aI5
aI36
aI28
aa(lp4
I39
aI19
aI15
aI25
aI34
aI36
aI3
aI32
aI21
aI29
aI37
aI6
aI20
aI31
aI1
aI18
aI17
aI12
aI13
aI30
aI2
aI0
aI23
aI7
aI9
aI24
aI16
aI5
aI22
aI35
aI10
aI33
aI38
aI11
aI14
aI28
aI8
aI27
aI26
aI4
aa(lp5
I16
aI28
aI29
aI3
aI1
aI9
aI11
aI26
aI0
aI30
aI21
aI20
aI25
aI13
aI12
aI18
aI19
aI31
aI14
aI39
aI22
aI35
aI34
aI5
aI10
aI4
aI15
aI17
aI27
aI38
aI33
aI7
aI2
aI24
aI37
aI8
aI23
aI6
aI36
aI32
aa(lp6
I38
aI18
aI31
aI11
aI27
aI22
aI35
aI13
aI5
aI14
aI24
aI34
aI4
aI6
aI12
aI9
aI23
aI26
aI29
aI3
aI7
aI10
aI32
aI21
aI20
aI15
aI30
aI17
aI19
aI1
aI39
aI16
aI2
aI25
aI37
aI36
aI8
aI33
aI28
aI0
aa(lp7
I36
aI16
aI29
aI31
aI4
aI10
aI11
aI33
aI0
aI37
aI26
aI5
aI6
aI32
aI34
aI23
aI13
aI7
aI15
aI28
aI2
aI3
aI39
aI8
aI17
aI9
aI12
aI38
aI18
aI25
aI19
aI14
aI22
aI1
aI35
aI21
aI27
aI20
aI30
aI24
aa(lp8
I31
aI17
aI22
aI2
aI35
aI15
aI8
aI38
aI16
aI14
aI23
aI0
aI26
aI30
aI36
aI19
aI10
aI34
aI12
aI13
aI9
aI28
aI5
aI3
aI18
aI4
aI32
aI11
aI29
aI7
aI24
aI27
aI33
aI25
aI6
aI21
aI1
aI20
aI37
aI39
aa(lp9
I36
aI29
aI33
aI20
aI31
aI18
aI7
aI13
aI14
aI34
aI8
aI6
aI28
aI9
aI0
aI12
aI26
aI21
aI25
aI38
aI37
aI5
aI3
aI24
aI23
aI16
aI17
aI19
aI2
aI27
aI11
aI39
aI35
aI1
aI4
aI30
aI15
aI10
aI22
aI32
aa(lp10
I19
aI23
aI35
aI14
aI6
aI24
aI36
aI37
aI2
aI11
aI31
aI3
aI1
aI22
aI7
aI32
aI18
aI34
aI15
aI26
aI13
aI10
aI27
aI39
aI20
aI9
aI38
aI4
aI5
aI25
aI17
aI28
aI21
aI16
aI12
aI0
aI33
aI8
aI29
aI30
aa(lp11
I33
aI7
aI0
aI15
aI31
aI3
aI19
aI30
aI2
aI26
aI18
aI16
aI32
aI1
aI36
aI23
aI27
aI5
aI14
aI37
aI28
aI12
aI29
aI20
aI34
aI17
aI6
aI21
aI11
aI38
aI39
aI13
aI35
aI22
aI24
aI10
aI9
aI8
aI25
aI4
aa(lp12
I4
aI0
aI20
aI27
aI21
aI30
aI24
aI38
aI14
aI32
aI35
aI6
aI13
aI17
aI33
aI25
aI19
aI5
aI29
aI12
aI7
aI39
aI22
aI36
aI18
aI2
aI16
aI37
aI1
aI8
aI3
aI28
aI11
aI34
aI9
aI10
aI15
aI23
aI31
aI26
aa(lp13
I34
aI20
aI23
aI5
aI29
aI14
aI13
aI24
aI12
aI28
aI16
aI39
aI26
aI4
aI32
aI8
aI1
aI33
aI25
aI17
aI21
aI0
aI15
aI18
aI10
aI7
aI2
aI38
aI19
aI30
aI9
aI35
aI22
aI27
aI11
aI36
aI31
aI6
aI37
aI3
aa(lp14
I6
aI35
aI33
aI26
aI27
aI29
aI5
aI23
aI21
aI18
aI12
aI20
aI13
aI24
aI34
aI28
aI10
aI31
aI17
aI22
aI0
aI14
aI30
aI32
aI7
aI25
aI8
aI4
aI2
aI38
aI15
aI36
aI11
aI39
aI1
aI19
aI3
aI16
aI37
aI9
aa(lp15
I23
aI25
aI29
aI3
aI1
aI28
aI9
aI6
aI38
aI12
aI18
aI10
aI35
aI21
aI24
aI32
aI11
aI34
aI33
aI4
aI36
aI22
aI20
aI16
aI31
aI17
aI0
aI39
aI13
aI27
aI15
aI19
aI7
aI2
aI5
aI30
aI26
aI37
aI8
aI14
aa(lp16
I12
aI22
aI5
aI16
aI18
aI33
aI29
aI38
aI13
aI11
aI20
aI35
aI36
aI21
aI1
aI34
aI6
aI28
aI0
aI37
aI17
aI39
aI19
aI2
aI10
aI14
aI24
aI4
aI27
aI25
aI8
aI9
aI30
aI15
aI32
aI23
aI3
aI31
aI26
aI7
aa(lp17
I0
aI25
aI35
aI20
aI22
aI7
aI19
aI29
aI15
aI23
aI12
aI1
aI5
aI37
aI33
aI17
aI11
aI39
aI31
aI21
aI27
aI13
aI8
aI9
aI2
aI30
aI18
aI36
aI16
aI34
aI38
aI3
aI26
aI28
aI14
aI4
aI32
aI6
aI24
aI10
aa(lp18
I11
aI19
aI5
aI3
aI21
aI37
aI34
aI35
aI12
aI7
aI23
aI36
aI15
aI39
aI9
aI22
aI6
aI18
aI16
aI13
aI31
aI24
aI33
aI30
aI38
aI29
aI32
aI17
aI10
aI2
aI27
aI26
aI20
aI0
aI25
aI8
aI1
aI4
aI28
aI14
aa(lp19
I27
aI5
aI4
aI8
aI13
aI35
aI37
aI10
aI22
aI38
aI7
aI25
aI2
aI33
aI14
aI15
aI31
aI34
aI20
aI3
aI30
aI26
aI32
aI19
aI11
aI0
aI29
aI23
aI18
aI12
aI39
aI36
aI16
aI21
aI1
aI6
aI9
aI17
aI28
aI24
aa(lp20
I26
aI30
aI18
aI5
aI24
aI37
aI17
aI9
aI14
aI6
aI25
aI19
aI23
aI15
aI39
aI1
aI27
aI31
aI33
aI21
aI36
aI3
aI12
aI7
aI4
aI38
aI13
aI10
aI0
aI28
aI22
aI2
aI34
aI20
aI16
aI32
aI35
aI8
aI29
aI11
aa.