(lp0
(lp1
I6
aI28
aI21
aI7
aI11
aI5
aI22
aI2
aI16
aI26
aI27
aI25
aI19
aI3
aI14
aI0
aI24
aI1
aI4
aI17
aI9
aI10
aI15
aI8
aI12
aI23
aI20
aI13
aI29
aI18
aa(lp2
I20
aI28
aI26
aI16
aI21
aI7
aI2
aI12
aI17
aI10
aI9
aI25
aI4
aI13
aI23
aI5
aI24
aI15
aI3
aI27
aI18
aI11
aI1
aI29
aI6
aI0
aI14
aI8
aI22
aI19
aa(lp3
I16
aI23
aI21
aI9
aI25
aI24
aI15
aI7
aI14
aI18
aI13
aI28
aI12
aI11
aI29
aI4
aI5
aI22
aI8
aI1
aI10
aI0
aI17
aI26
aI6
aI27
aI20
aI19
aI2
aI3
aa(lp4
I27
aI2
aI7
aI21
aI14
aI4
aI26
aI28
aI9
aI17
aI6
aI23
aI11
aI22
aI3
aI12
aI20
aI15
aI24
aI8
aI16
aI18
aI25
aI13
aI29
aI0
aI1
aI19
aI5
aI10
aa(lp5
I23
aI6
aI11
aI4
aI21
aI26
aI16
aI14
aI25
aI1
aI0
aI15
aI18
aI9
aI27
aI5
aI29
aI7
aI24
aI8
aI17
aI13
aI19
aI12
aI10
aI22
aI20
aI28
aI3
aI2
aa(lp6
I10
aI16
aI25
aI12
aI7
aI27
aI22
aI18
aI8
aI15
aI19
aI4
aI20
aI17
aI21
aI3
aI5
aI29
aI1
aI9
aI0
aI6
aI2
aI11
aI23
aI13
aI28
aI26
aI24
aI14
aa(lp7
I26
aI29
aI5
aI15
aI27
aI18
aI13
aI10
aI4
aI8
aI24
aI16
aI14
aI6
aI2
aI7
aI19
aI1
aI22
aI9
aI23
aI3
aI0
aI11
aI20
aI28
aI25
aI12
aI21
aI17
aa(lp8
I18
aI1
aI16
aI22
aI11
aI12
aI4
aI0
aI26
aI15
aI21
aI29
aI27
aI23
aI6
aI2
aI14
aI7
aI19
aI3
aI20
aI5
aI9
aI10
aI28
aI8
aI13
aI17
aI25
aI24
aa(lp9
I17
aI24
aI0
aI14
aI4
aI10
aI1
aI20
aI5
aI16
aI19
aI7
aI6
aI9
aI12
aI25
aI8
aI11
aI13
aI29
aI28
aI18
aI21
aI2
aI3
aI15
aI27
aI26
aI22
aI23
aa(lp10
I23
aI27
aI26
aI11
aI13
aI5
aI16
aI1
aI9
aI3
aI29
aI8
aI18
aI22
aI4
aI19
aI6
aI7
aI15
aI28
aI2
aI10
aI14
aI24
aI0
aI20
aI12
aI17
aI21
aI25
aa(lp11
I13
aI9
aI18
aI4
aI24
aI27
aI16
aI26
aI17
aI14
aI6
aI21
aI23
aI12
aI10
aI1
aI5
aI15
aI19
aI29
aI0
aI22
aI11
aI8
aI2
aI3
aI20
aI7
aI25
aI28
aa(lp12
I21
aI23
aI5
aI11
aI3
aI0
aI22
aI2
aI8
aI13
aI24
aI17
aI18
aI26
aI16
aI9
aI15
aI19
aI4
aI1
aI12
aI20
aI14
aI10
aI29
aI7
aI25
aI27
aI6
aI28
aa(lp13
I16
aI8
aI25
aI4
aI23
aI29
aI1
aI18
aI12
aI5
aI10
aI21
aI2
aI3
aI22
aI9
aI28
aI15
aI7
aI27
aI17
aI26
aI20
aI19
aI24
aI0
aI14
aI13
aI11
aI6
aa(lp14
I24
aI19
aI5
aI26
aI29
aI25
aI21
aI9
aI2
aI7
aI22
aI8
aI28
aI23
aI17
aI4
aI16
aI12
aI27
aI10
aI1
aI20
aI13
aI15
aI11
aI3
aI18
aI6
aI14
aI0
aa(lp15
I8
aI17
aI15
aI28
aI19
aI22
aI23
aI4
aI5
aI24
aI9
aI18
aI21
aI20
aI26
aI25
aI27
aI10
aI12
aI11
aI16
aI0
aI2
aI14
aI13
aI6
aI3
aI1
aI7
aI29
aa(lp16
I12
aI29
aI3
aI19
aI10
aI5
aI0
aI11
aI26
aI15
aI22
aI24
aI9
aI6
aI18
aI23
aI20
aI28
aI21
aI17
aI14
aI7
aI2
aI27
aI1
aI13
aI4
aI16
aI25
aI8
aa(lp17
I18
aI28
aI10
aI5
aI16
aI23
aI22
aI13
aI12
aI8
aI29
aI14
aI7
aI9
aI1
aI20
aI4
aI24
aI26
aI27
aI25
aI21
aI2
aI11
aI17
aI19
aI15
aI3
aI6
aI0
aa(lp18
I19
aI3
aI4
aI28
aI8
aI21
aI7
aI15
aI27
aI24
aI20
aI12
aI18
aI14
aI26
aI13
aI5
aI16
aI25
aI0
aI2
aI11
aI1
aI6
aI17
aI9
aI29
aI10
aI23
aI22
aa(lp19
I5
aI21
aI24
aI8
aI22
aI16
aI9
aI29
aI19
aI18
aI7
aI26
aI1
aI17
aI15
aI11
aI28
aI27
aI3
aI13
aI23
aI4
aI0
aI25
aI6
aI2
aI10
aI20
aI12
aI14
aa(lp20
I11
aI20
aI16
aI14
aI1
aI0
aI21
aI3
aI23
aI2
aI9
aI25
aI27
aI24
aI5
aI18
aI4
aI29
aI17
aI10
aI8
aI15
aI19
aI26
aI12
aI22
aI7
aI13
aI6
aI28
aa.