(lp0
(lp1
I0
aI463
aI473
aI526
aI106
aI266
aI465
aI567
aI109
aI27
aI68
aI226
aI67
aI554
aI278
aI615
aI96
aI400
aI391
aI1
aI31
aI97
aI603
aI478
aI208
aI388
aI443
aI533
aI541
aI353
aI550
aI228
aI234
aI260
aI372
aI225
aI629
aI143
aI177
aI346
aI94
aI122
aI230
aI301
aI426
aI642
aI294
aI519
aI580
aI299
aI185
aI402
aI432
aI34
aI287
aI622
aI173
aI171
aI557
aI104
aI351
aI431
aI528
aI242
aI108
aI453
aI145
aI161
aI371
aI98
aI425
aI330
aI59
aI20
aI545
aI328
aI115
aI88
aI245
aI238
aI454
aI450
aI354
aI164
aI126
aI200
aI308
aI35
aI392
aI599
aI22
aI399
aI40
aI273
aI422
aI136
aI329
aI119
aI146
aI304
aI474
aI359
aI18
aI503
aI569
aI206
aI375
aI37
aI527
aI529
aI395
aI479
aI619
aI297
aI358
aI333
aI585
aI163
aI91
aI139
aI623
aI634
aI633
aI467
aI62
aI149
aI162
aI11
aI124
aI641
aI649
aI337
aI188
aI651
aI461
aI243
aI525
aI150
aI384
aI345
aI593
aI76
aI342
aI598
aI331
aI148
aI283
aI256
aI357
aI445
aI296
aI232
aI332
aI284
aI417
aI632
aI542
aI368
aI129
aI144
aI491
aI191
aI123
aI572
aI8
aI531
aI562
aI317
aI427
aI626
aI134
aI3
aI476
aI325
aI352
aI44
aI360
aI251
aI172
aI268
aI499
aI523
aI646
aI436
aI482
aI561
aI231
aI47
aI475
aI279
aI193
aI93
aI252
aI409
aI469
aI201
aI310
aI250
aI182
aI271
aI513
aI101
aI449
aI138
aI288
aI293
aI205
aI204
aI564
aI591
aI348
aI57
aI66
aI577
aI537
aI175
aI69
aI7
aI295
aI411
aI261
aI85
aI640
aI483
aI240
aI160
aI502
aI259
aI430
aI547
aI488
aI448
aI396
aI514
aI17
aI540
aI314
aI23
aI578
aI370
aI576
aI440
aI573
aI362
aI551
aI227
aI214
aI414
aI553
aI176
aI13
aI602
aI14
aI654
aI510
aI421
aI452
aI10
aI212
aI423
aI490
aI272
aI444
aI224
aI638
aI131
aI15
aI79
aI518
aI21
aI302
aI286
aI582
aI80
aI29
aI244
aI595
aI285
aI235
aI334
aI568
aI298
aI501
aI438
aI25
aI50
aI517
aI309
aI380
aI405
aI383
aI303
aI281
aI534
aI590
aI366
aI195
aI168
aI466
aI446
aI45
aI570
aI254
aI621
aI24
aI264
aI544
aI563
aI605
aI140
aI609
aI617
aI326
aI484
aI87
aI398
aI167
aI210
aI645
aI46
aI586
aI118
aI413
aI141
aI73
aI549
aI406
aI215
aI344
aI500
aI319
aI401
aI327
aI376
aI489
aI41
aI217
aI635
aI274
aI306
aI637
aI604
aI157
aI377
aI190
aI428
aI132
aI439
aI2
aI407
aI472
aI318
aI320
aI560
aI587
aI86
aI105
aI497
aI339
aI367
aI5
aI648
aI130
aI462
aI341
aI480
aI312
aI543
aI209
aI4
aI282
aI239
aI84
aI336
aI536
aI418
aI594
aI222
aI397
aI151
aI508
aI496
aI307
aI218
aI365
aI608
aI110
aI170
aI300
aI616
aI373
aI60
aI538
aI58
aI199
aI99
aI71
aI652
aI83
aI142
aI419
aI650
aI63
aI117
aI558
aI103
aI435
aI516
aI555
aI169
aI39
aI52
aI601
aI393
aI313
aI213
aI511
aI323
aI356
aI498
aI61
aI612
aI364
aI221
aI174
aI470
aI433
aI42
aI455
aI305
aI75
aI95
aI180
aI340
aI16
aI607
aI113
aI630
aI277
aI404
aI292
aI456
aI460
aI74
aI269
aI82
aI647
aI324
aI515
aI197
aI492
aI38
aI442
aI464
aI471
aI374
aI524
aI379
aI258
aI382
aI72
aI509
aI610
aI468
aI135
aI548
aI207
aI381
aI187
aI386
aI184
aI539
aI639
aI247
aI165
aI566
aI257
aI574
aI263
aI424
aI581
aI588
aI625
aI64
aI120
aI361
aI219
aI343
aI347
aI9
aI338
aI19
aI236
aI276
aI355
aI100
aI520
aI311
aI26
aI194
aI128
aI152
aI216
aI611
aI429
aI229
aI416
aI70
aI291
aI53
aI102
aI289
aI403
aI597
aI613
aI36
aI125
aI618
aI116
aI155
aI584
aI158
aI457
aI363
aI223
aI65
aI606
aI349
aI156
aI589
aI535
aI575
aI48
aI89
aI321
aI262
aI390
aI55
aI189
aI530
aI90
aI181
aI198
aI159
aI112
aI315
aI196
aI6
aI408
aI322
aI493
aI434
aI290
aI77
aI477
aI579
aI644
aI166
aI203
aI628
aI178
aI153
aI459
aI437
aI485
aI507
aI265
aI506
aI248
aI275
aI54
aI316
aI237
aI33
aI335
aI596
aI494
aI636
aI458
aI114
aI495
aI412
aI28
aI369
aI394
aI592
aI571
aI192
aI512
aI202
aI532
aI92
aI620
aI387
aI481
aI556
aI653
aI12
aI56
aI552
aI78
aI30
aI378
aI51
aI241
aI246
aI614
aI32
aI127
aI385
aI505
aI111
aI600
aI546
aI451
aI410
aI147
aI643
aI81
aI486
aI389
aI280
aI559
aI186
aI49
aI179
aI253
aI220
aI121
aI233
aI487
aI447
aI267
aI350
aI583
aI183
aI624
aI249
aI270
aI137
aI43
aI521
aI631
aI504
aI420
aI415
aI107
aI255
aI627
aI522
aI211
aI133
aI441
aI154
aI565
aa(lp2
I267
aI428
aI414
aI412
aI618
aI464
aI362
aI193
aI427
aI174
aI338
aI301
aI229
aI384
aI268
aI345
aI109
aI110
aI242
aI637
aI386
aI283
aI529
aI298
aI275
aI322
aI370
aI619
aI105
aI188
aI439
aI209
aI53
aI476
aI22
aI81
aI243
aI325
aI489
aI633
aI10
aI240
aI287
aI291
aI422
aI8
aI221
aI520
aI578
aI154
aI166
aI364
aI379
aI399
aI536
aI512
aI312
aI54
aI313
aI169
aI206
aI649
aI255
aI394
aI624
aI478
aI413
aI387
aI286
aI4
aI482
aI144
aI90
aI78
aI383
aI607
aI3
aI643
aI336
aI64
aI288
aI559
aI62
aI588
aI311
aI343
aI69
aI135
aI161
aI437
aI58
aI450
aI564
aI9
aI577
aI38
aI430
aI179
aI222
aI289
aI101
aI616
aI603
aI75
aI533
aI79
aI432
aI369
aI614
aI29
aI421
aI431
aI483
aI531
aI395
aI83
aI55
aI583
aI282
aI625
aI609
aI380
aI598
aI207
aI456
aI197
aI272
aI479
aI249
aI504
aI429
aI156
aI617
aI462
aI541
aI278
aI142
aI129
aI37
aI622
aI85
aI477
aI7
aI434
aI49
aI613
aI507
aI180
aI26
aI318
aI654
aI167
aI44
aI397
aI644
aI176
aI153
aI632
aI118
aI326
aI257
aI248
aI328
aI233
aI192
aI263
aI406
aI276
aI293
aI327
aI28
aI497
aI98
aI119
aI274
aI112
aI569
aI346
aI333
aI544
aI471
aI93
aI56
aI332
aI627
aI84
aI574
aI425
aI50
aI124
aI651
aI66
aI505
aI211
aI302
aI145
aI13
aI626
aI294
aI521
aI97
aI363
aI354
aI527
aI190
aI104
aI549
aI266
aI299
aI472
aI52
aI368
aI130
aI390
aI15
aI382
aI411
aI309
aI165
aI648
aI94
aI134
aI215
aI587
aI40
aI538
aI256
aI508
aI21
aI269
aI423
aI553
aI152
aI253
aI331
aI239
aI448
aI184
aI205
aI433
aI131
aI74
aI210
aI183
aI20
aI355
aI589
aI224
aI385
aI473
aI171
aI570
aI469
aI458
aI321
aI170
aI645
aI68
aI265
aI597
aI453
aI319
aI522
aI1
aI566
aI150
aI454
aI237
aI628
aI123
aI60
aI498
aI106
aI32
aI460
aI537
aI475
aI409
aI535
aI459
aI455
aI641
aI202
aI303
aI501
aI611
aI532
aI212
aI528
aI639
aI315
aI245
aI646
aI187
aI214
aI344
aI41
aI87
aI25
aI593
aI585
aI391
aI175
aI360
aI349
aI125
aI407
aI107
aI228
aI121
aI162
aI252
aI306
aI149
aI401
aI367
aI540
aI230
aI621
aI164
aI376
aI279
aI474
aI490
aI217
aI443
aI353
aI334
aI86
aI335
aI73
aI552
aI511
aI14
aI470
aI185
aI6
aI351
aI12
aI194
aI403
aI366
aI519
aI96
aI65
aI314
aI356
aI452
aI543
aI70
aI89
aI562
aI557
aI223
aI547
aI652
aI492
aI510
aI88
aI573
aI445
aI438
aI629
aI114
aI238
aI612
aI415
aI115
aI467
aI568
aI486
aI47
aI638
aI451
aI447
aI461
aI506
aI496
aI300
aI361
aI132
aI33
aI420
aI620
aI92
aI99
aI113
aI484
aI392
aI51
aI127
aI317
aI580
aI602
aI204
aI181
aI19
aI18
aI234
aI284
aI137
aI251
aI546
aI102
aI57
aI524
aI495
aI226
aI435
aI128
aI295
aI502
aI42
aI136
aI155
aI468
aI400
aI216
aI329
aI296
aI615
aI45
aI146
aI623
aI590
aI358
aI542
aI292
aI595
aI404
aI446
aI606
aI596
aI23
aI640
aI576
aI141
aI480
aI320
aI558
aI377
aI426
aI518
aI133
aI526
aI307
aI348
aI388
aI168
aI17
aI523
aI172
aI515
aI208
aI232
aI416
aI410
aI203
aI485
aI539
aI608
aI219
aI0
aI581
aI196
aI59
aI151
aI381
aI594
aI225
aI550
aI264
aI499
aI67
aI250
aI330
aI653
aI160
aI599
aI182
aI408
aI534
aI500
aI77
aI545
aI555
aI34
aI352
aI308
aI280
aI91
aI487
aI630
aI48
aI235
aI516
aI341
aI5
aI567
aI378
aI424
aI82
aI601
aI610
aI46
aI159
aI481
aI372
aI262
aI560
aI393
aI244
aI357
aI158
aI591
aI108
aI365
aI436
aI398
aI261
aI463
aI148
aI465
aI71
aI493
aI605
aI565
aI548
aI143
aI642
aI201
aI103
aI260
aI95
aI157
aI30
aI31
aI339
aI11
aI305
aI27
aI116
aI24
aI72
aI259
aI556
aI173
aI16
aI563
aI554
aI241
aI457
aI584
aI337
aI509
aI650
aI273
aI491
aI186
aI246
aI177
aI323
aI199
aI634
aI342
aI316
aI200
aI503
aI604
aI290
aI297
aI444
aI122
aI636
aI440
aI117
aI277
aI139
aI324
aI111
aI163
aI258
aI198
aI285
aI466
aI178
aI442
aI310
aI635
aI147
aI551
aI530
aI389
aI488
aI586
aI359
aI494
aI572
aI347
aI525
aI579
aI100
aI191
aI575
aI120
aI375
aI271
aI35
aI592
aI514
aI247
aI402
aI195
aI80
aI561
aI600
aI419
aI647
aI39
aI61
aI76
aI254
aI374
aI418
aI218
aI270
aI231
aI371
aI213
aI36
aI281
aI513
aI63
aI417
aI631
aI582
aI189
aI140
aI2
aI396
aI405
aI517
aI126
aI340
aI571
aI373
aI43
aI220
aI449
aI236
aI350
aI227
aI304
aI441
aI138
aa(lp3
I384
aI206
aI335
aI590
aI379
aI216
aI187
aI130
aI495
aI217
aI362
aI642
aI207
aI554
aI453
aI37
aI626
aI427
aI388
aI280
aI234
aI645
aI32
aI521
aI403
aI462
aI368
aI480
aI560
aI566
aI382
aI338
aI448
aI199
aI591
aI77
aI38
aI604
aI241
aI433
aI330
aI559
aI381
aI198
aI319
aI572
aI638
aI359
aI374
aI636
aI194
aI57
aI562
aI49
aI288
aI262
aI587
aI165
aI508
aI523
aI476
aI394
aI260
aI425
aI556
aI639
aI223
aI541
aI231
aI304
aI479
aI415
aI97
aI624
aI407
aI538
aI617
aI620
aI261
aI81
aI482
aI82
aI512
aI73
aI565
aI56
aI287
aI606
aI316
aI428
aI580
aI7
aI637
aI629
aI71
aI602
aI74
aI390
aI537
aI460
aI283
aI184
aI0
aI275
aI252
aI410
aI91
aI195
aI600
aI185
aI163
aI529
aI44
aI135
aI490
aI392
aI39
aI264
aI616
aI307
aI6
aI506
aI337
aI544
aI503
aI344
aI204
aI136
aI58
aI396
aI547
aI72
aI343
aI346
aI361
aI436
aI175
aI134
aI121
aI26
aI336
aI30
aI170
aI305
aI599
aI197
aI474
aI527
aI76
aI166
aI484
aI552
aI144
aI228
aI472
aI48
aI142
aI621
aI435
aI501
aI487
aI325
aI210
aI579
aI451
aI89
aI402
aI321
aI533
aI623
aI35
aI494
aI1
aI389
aI266
aI70
aI9
aI332
aI104
aI80
aI641
aI609
aI380
aI60
aI268
aI282
aI406
aI588
aI408
aI456
aI612
aI515
aI497
aI581
aI15
aI610
aI203
aI3
aI466
aI551
aI284
aI110
aI312
aI449
aI454
aI40
aI193
aI314
aI105
aI649
aI654
aI311
aI227
aI212
aI8
aI168
aI123
aI131
aI339
aI12
aI331
aI531
aI160
aI239
aI352
aI395
aI53
aI615
aI115
aI493
aI113
aI192
aI568
aI329
aI100
aI543
aI563
aI595
aI546
aI520
aI93
aI18
aI317
aI117
aI350
aI118
aI313
aI413
aI259
aI455
aI594
aI477
aI652
aI173
aI432
aI607
aI414
aI397
aI516
aI78
aI619
aI158
aI514
aI586
aI605
aI434
aI386
aI461
aI411
aI209
aI356
aI550
aI648
aI545
aI87
aI569
aI232
aI162
aI488
aI183
aI438
aI585
aI557
aI558
aI286
aI16
aI196
aI21
aI219
aI31
aI235
aI404
aI651
aI176
aI10
aI398
aI519
aI468
aI539
aI439
aI634
aI393
aI340
aI64
aI248
aI322
aI507
aI182
aI28
aI327
aI143
aI23
aI608
aI281
aI224
aI540
aI52
aI119
aI289
aI457
aI296
aI611
aI59
aI583
aI650
aI92
aI582
aI172
aI437
aI353
aI444
aI470
aI147
aI570
aI33
aI202
aI155
aI475
aI278
aI205
aI141
aI584
aI254
aI348
aI138
aI214
aI265
aI208
aI238
aI486
aI522
aI83
aI237
aI277
aI247
aI299
aI571
aI577
aI597
aI159
aI126
aI419
aI86
aI102
aI400
aI200
aI229
aI445
aI151
aI463
aI190
aI473
aI294
aI263
aI502
aI423
aI129
aI148
aI225
aI635
aI549
aI246
aI124
aI150
aI561
aI375
aI417
aI308
aI75
aI11
aI349
aI354
aI79
aI177
aI367
aI211
aI230
aI276
aI85
aI504
aI98
aI14
aI553
aI422
aI240
aI385
aI191
aI646
aI45
aI244
aI347
aI167
aI272
aI153
aI483
aI542
aI269
aI293
aI292
aI450
aI603
aI139
aI614
aI66
aI257
aI171
aI320
aI50
aI478
aI491
aI243
aI431
aI251
aI2
aI101
aI68
aI485
aI535
aI25
aI169
aI297
aI274
aI222
aI17
aI106
aI145
aI334
aI107
aI576
aI213
aI109
aI298
aI19
aI371
aI643
aI589
aI157
aI54
aI146
aI125
aI291
aI593
aI221
aI22
aI469
aI421
aI575
aI156
aI279
aI111
aI61
aI592
aI218
aI443
aI65
aI357
aI360
aI116
aI62
aI63
aI42
aI154
aI174
aI578
aI601
aI34
aI633
aI598
aI492
aI564
aI96
aI426
aI120
aI532
aI29
aI315
aI574
aI467
aI383
aI140
aI323
aI376
aI267
aI122
aI132
aI301
aI632
aI180
aI447
aI596
aI358
aI13
aI51
aI273
aI365
aI517
aI345
aI464
aI161
aI363
aI95
aI137
aI399
aI249
aI509
aI631
aI628
aI528
aI378
aI387
aI152
aI133
aI178
aI496
aI188
aI300
aI548
aI46
aI114
aI189
aI500
aI127
aI510
aI405
aI306
aI536
aI518
aI511
aI555
aI215
aI24
aI290
aI452
aI341
aI622
aI640
aI370
aI430
aI328
aI369
aI534
aI295
aI245
aI201
aI366
aI128
aI90
aI88
aI103
aI181
aI20
aI424
aI618
aI446
aI258
aI270
aI318
aI644
aI4
aI303
aI409
aI513
aI242
aI186
aI525
aI226
aI236
aI391
aI164
aI220
aI373
aI310
aI465
aI653
aI255
aI573
aI526
aI401
aI429
aI285
aI69
aI47
aI94
aI43
aI326
aI372
aI530
aI377
aI99
aI355
aI27
aI67
aI625
aI630
aI302
aI567
aI489
aI420
aI149
aI324
aI351
aI333
aI647
aI233
aI498
aI84
aI271
aI36
aI441
aI627
aI412
aI418
aI112
aI440
aI256
aI459
aI442
aI250
aI458
aI5
aI108
aI55
aI41
aI524
aI309
aI364
aI342
aI613
aI179
aI505
aI471
aI253
aI499
aI416
aI481
aa(lp4
I378
aI412
aI141
aI258
aI512
aI474
aI556
aI642
aI389
aI564
aI324
aI494
aI276
aI105
aI148
aI326
aI180
aI509
aI330
aI375
aI602
aI234
aI236
aI83
aI151
aI636
aI10
aI565
aI520
aI310
aI396
aI594
aI499
aI227
aI535
aI598
aI253
aI264
aI320
aI590
aI218
aI465
aI446
aI267
aI490
aI60
aI117
aI78
aI515
aI404
aI26
aI510
aI569
aI241
aI314
aI447
aI284
aI305
aI437
aI409
aI368
aI460
aI307
aI201
aI257
aI5
aI149
aI401
aI523
aI344
aI19
aI313
aI122
aI301
aI537
aI295
aI570
aI292
aI519
aI45
aI289
aI57
aI23
aI153
aI613
aI457
aI517
aI185
aI351
aI226
aI52
aI439
aI411
aI125
aI610
aI13
aI315
aI94
aI643
aI243
aI58
aI614
aI640
aI382
aI200
aI82
aI61
aI280
aI650
aI484
aI251
aI603
aI145
aI487
aI377
aI393
aI500
aI521
aI400
aI287
aI566
aI18
aI80
aI467
aI283
aI213
aI224
aI475
aI161
aI525
aI627
aI442
aI254
aI215
aI208
aI16
aI541
aI318
aI516
aI616
aI107
aI325
aI331
aI419
aI555
aI388
aI615
aI343
aI296
aI27
aI366
aI272
aI379
aI423
aI497
aI432
aI386
aI633
aI618
aI355
aI190
aI4
aI596
aI338
aI342
aI167
aI100
aI174
aI559
aI312
aI56
aI302
aI199
aI429
aI99
aI124
aI327
aI558
aI43
aI144
aI391
aI514
aI572
aI8
aI3
aI169
aI428
aI617
aI268
aI261
aI339
aI503
aI238
aI532
aI472
aI1
aI263
aI262
aI44
aI104
aI414
aI271
aI252
aI588
aI39
aI638
aI266
aI381
aI67
aI47
aI470
aI346
aI109
aI531
aI86
aI317
aI340
aI273
aI30
aI286
aI552
aI479
aI98
aI6
aI303
aI579
aI242
aI121
aI530
aI527
aI384
aI0
aI424
aI290
aI585
aI635
aI403
aI581
aI354
aI498
aI607
aI172
aI522
aI170
aI502
aI399
aI95
aI452
aI584
aI528
aI21
aI373
aI235
aI578
aI592
aI249
aI332
aI341
aI198
aI222
aI193
aI126
aI194
aI653
aI652
aI7
aI171
aI631
aI362
aI586
aI482
aI231
aI225
aI606
aI553
aI649
aI450
aI488
aI547
aI573
aI65
aI587
aI550
aI9
aI137
aI543
aI293
aI601
aI383
aI232
aI219
aI421
aI630
aI297
aI178
aI299
aI110
aI518
aI628
aI357
aI89
aI68
aI75
aI493
aI197
aI334
aI507
aI372
aI397
aI624
aI282
aI376
aI466
aI229
aI192
aI205
aI496
aI612
aI128
aI323
aI29
aI365
aI604
aI311
aI118
aI240
aI156
aI593
aI394
aI433
aI469
aI539
aI25
aI209
aI611
aI306
aI443
aI349
aI69
aI478
aI356
aI210
aI291
aI114
aI358
aI146
aI73
aI506
aI504
aI456
aI459
aI533
aI244
aI477
aI40
aI645
aI335
aI228
aI173
aI461
aI74
aI600
aI364
aI371
aI106
aI87
aI551
aI425
aI132
aI188
aI563
aI359
aI204
aI35
aI651
aI248
aI654
aI64
aI239
aI97
aI545
aI619
aI367
aI163
aI150
aI24
aI182
aI455
aI38
aI430
aI544
aI270
aI390
aI31
aI41
aI281
aI84
aI115
aI567
aI385
aI66
aI542
aI120
aI336
aI92
aI147
aI158
aI445
aI538
aI417
aI279
aI165
aI451
aI540
aI641
aI131
aI620
aI348
aI583
aI387
aI648
aI632
aI444
aI508
aI580
aI300
aI154
aI162
aI294
aI361
aI464
aI250
aI111
aI438
aI79
aI223
aI476
aI571
aI406
aI129
aI42
aI54
aI259
aI233
aI513
aI191
aI374
aI189
aI370
aI629
aI402
aI597
aI33
aI626
aI546
aI333
aI347
aI269
aI647
aI50
aI639
aI634
aI577
aI441
aI46
aI369
aI625
aI101
aI85
aI345
aI77
aI434
aI113
aI81
aI202
aI71
aI265
aI278
aI2
aI140
aI415
aI554
aI183
aI136
aI166
aI380
aI463
aI17
aI135
aI277
aI20
aI395
aI70
aI230
aI48
aI353
aI481
aI157
aI164
aI462
aI298
aI103
aI127
aI255
aI574
aI62
aI37
aI328
aI88
aI489
aI49
aI529
aI36
aI453
aI524
aI108
aI304
aI534
aI486
aI220
aI427
aI337
aI221
aI436
aI53
aI392
aI536
aI32
aI608
aI143
aI176
aI15
aI576
aI418
aI605
aI646
aI350
aI184
aI160
aI133
aI247
aI93
aI322
aI72
aI102
aI398
aI440
aI217
aI637
aI413
aI408
aI591
aI407
aI309
aI76
aI492
aI505
aI11
aI155
aI134
aI168
aI246
aI473
aI621
aI568
aI491
aI495
aI34
aI90
aI177
aI152
aI405
aI207
aI557
aI179
aI454
aI96
aI22
aI206
aI112
aI12
aI59
aI623
aI483
aI575
aI203
aI123
aI410
aI142
aI435
aI363
aI511
aI595
aI187
aI582
aI426
aI196
aI119
aI181
aI561
aI548
aI216
aI329
aI237
aI599
aI308
aI458
aI51
aI448
aI274
aI589
aI14
aI609
aI195
aI288
aI480
aI644
aI319
aI471
aI139
aI526
aI130
aI28
aI562
aI260
aI285
aI175
aI63
aI186
aI316
aI485
aI422
aI560
aI360
aI212
aI501
aI321
aI245
aI214
aI275
aI55
aI449
aI138
aI431
aI416
aI352
aI116
aI91
aI549
aI256
aI159
aI622
aI468
aI420
aI211
aa(lp5
I338
aI76
aI189
aI74
aI366
aI201
aI480
aI352
aI182
aI310
aI431
aI455
aI461
aI203
aI340
aI401
aI640
aI475
aI34
aI290
aI202
aI615
aI296
aI100
aI292
aI3
aI648
aI208
aI45
aI12
aI216
aI409
aI99
aI377
aI139
aI451
aI450
aI560
aI489
aI175
aI109
aI221
aI420
aI382
aI119
aI116
aI243
aI81
aI518
aI312
aI286
aI639
aI549
aI121
aI572
aI71
aI223
aI419
aI583
aI575
aI387
aI61
aI512
aI47
aI191
aI565
aI414
aI86
aI550
aI165
aI156
aI320
aI244
aI459
aI370
aI360
aI421
aI606
aI473
aI210
aI627
aI476
aI226
aI594
aI626
aI464
aI531
aI361
aI598
aI447
aI37
aI117
aI198
aI625
aI128
aI654
aI532
aI35
aI160
aI437
aI227
aI589
aI599
aI620
aI252
aI64
aI49
aI152
aI166
aI262
aI65
aI236
aI240
aI54
aI364
aI374
aI135
aI527
aI170
aI630
aI495
aI309
aI17
aI300
aI207
aI651
aI354
aI580
aI97
aI270
aI513
aI295
aI423
aI603
aI204
aI388
aI402
aI571
aI591
aI376
aI638
aI647
aI622
aI643
aI196
aI282
aI253
aI362
aI26
aI547
aI213
aI514
aI492
aI321
aI174
aI322
aI611
aI605
aI33
aI113
aI147
aI470
aI172
aI50
aI192
aI375
aI631
aI539
aI106
aI250
aI584
aI482
aI641
aI546
aI32
aI568
aI365
aI485
aI124
aI294
aI28
aI339
aI368
aI187
aI501
aI395
aI398
aI161
aI276
aI154
aI239
aI567
aI278
aI390
aI588
aI585
aI346
aI7
aI506
aI41
aI267
aI158
aI84
aI540
aI493
aI440
aI323
aI179
aI439
aI94
aI428
aI136
aI110
aI533
aI344
aI334
aI159
aI586
aI422
aI329
aI105
aI78
aI72
aI542
aI237
aI357
aI578
aI229
aI612
aI497
aI467
aI9
aI441
aI30
aI530
aI130
aI38
aI653
aI219
aI521
aI602
aI636
aI44
aI205
aI188
aI255
aI68
aI407
aI551
aI650
aI417
aI632
aI332
aI285
aI24
aI185
aI433
aI619
aI453
aI301
aI378
aI358
aI552
aI436
aI235
aI82
aI634
aI458
aI73
aI218
aI556
aI195
aI590
aI263
aI80
aI153
aI287
aI271
aI581
aI132
aI472
aI341
aI413
aI593
aI555
aI280
aI149
aI327
aI260
aI125
aI564
aI400
aI483
aI265
aI234
aI224
aI238
aI494
aI524
aI415
aI645
aI298
aI43
aI88
aI256
aI69
aI123
aI247
aI319
aI573
aI289
aI138
aI274
aI500
aI144
aI600
aI616
aI181
aI162
aI633
aI579
aI303
aI264
aI330
aI142
aI284
aI577
aI302
aI1
aI51
aI408
aI134
aI618
aI22
aI220
aI122
aI386
aI211
aI545
aI77
aI457
aI293
aI225
aI410
aI356
aI91
aI481
aI58
aI349
aI393
aI15
aI4
aI53
aI98
aI526
aI515
aI118
aI39
aI169
aI434
aI59
aI96
aI412
aI569
aI418
aI610
aI405
aI411
aI288
aI63
aI233
aI534
aI305
aI279
aI325
aI14
aI454
aI353
aI389
aI95
aI442
aI385
aI21
aI548
aI517
aI359
aI186
aI562
aI306
aI563
aI104
aI212
aI258
aI0
aI474
aI199
aI70
aI273
aI399
aI129
aI52
aI194
aI46
aI209
aI261
aI10
aI133
aI5
aI561
aI469
aI468
aI103
aI92
aI511
aI404
aI67
aI347
aI308
aI304
aI307
aI363
aI446
aI140
aI36
aI242
aI427
aI141
aI452
aI528
aI75
aI519
aI27
aI498
aI83
aI608
aI180
aI246
aI351
aI177
aI268
aI403
aI241
aI281
aI592
aI29
aI624
aI462
aI392
aI217
aI416
aI536
aI478
aI537
aI93
aI607
aI449
aI486
aI367
aI328
aI406
aI90
aI396
aI60
aI66
aI193
aI379
aI87
aI127
aI576
aI429
aI190
aI614
aI131
aI176
aI445
aI62
aI525
aI150
aI430
aI11
aI509
aI582
aI597
aI112
aI523
aI348
aI637
aI164
aI173
aI18
aI642
aI111
aI438
aI488
aI635
aI628
aI355
aI508
aI342
aI380
aI510
aI42
aI108
aI463
aI272
aI101
aI56
aI448
aI384
aI595
aI456
aI314
aI184
aI432
aI499
aI283
aI477
aI350
aI652
aI102
aI297
aI57
aI623
aI31
aI397
aI143
aI251
aI232
aI333
aI343
aI544
aI19
aI424
aI613
aI484
aI649
aI345
aI336
aI168
aI228
aI435
aI269
aI148
aI331
aI554
aI245
aI516
aI372
aI311
aI107
aI206
aI167
aI25
aI114
aI249
aI373
aI222
aI318
aI157
aI200
aI2
aI535
aI529
aI491
aI604
aI115
aI609
aI371
aI466
aI558
aI23
aI13
aI557
aI171
aI394
aI507
aI496
aI120
aI16
aI291
aI570
aI471
aI257
aI231
aI541
aI479
aI137
aI465
aI40
aI644
aI487
aI505
aI646
aI277
aI178
aI299
aI425
aI313
aI259
aI337
aI520
aI48
aI391
aI444
aI326
aI503
aI566
aI146
aI490
aI151
aI559
aI85
aI426
aI629
aI460
aI254
aI522
aI275
aI587
aI381
aI266
aI617
aI89
aI383
aI155
aI621
aI504
aI596
aI335
aI20
aI214
aI8
aI324
aI197
aI502
aI230
aI574
aI543
aI369
aI126
aI215
aI6
aI183
aI601
aI145
aI538
aI79
aI163
aI553
aI443
aI248
aI315
aI55
aI317
aI316
aa(lp6
I635
aI145
aI307
aI29
aI262
aI434
aI355
aI442
aI51
aI92
aI127
aI287
aI167
aI209
aI265
aI564
aI89
aI331
aI630
aI70
aI425
aI198
aI437
aI161
aI298
aI448
aI32
aI322
aI642
aI18
aI247
aI460
aI591
aI530
aI467
aI520
aI497
aI282
aI340
aI113
aI444
aI353
aI93
aI222
aI413
aI336
aI367
aI380
aI269
aI160
aI371
aI205
aI47
aI634
aI74
aI565
aI528
aI526
aI616
aI644
aI44
aI306
aI266
aI588
aI502
aI559
aI206
aI122
aI211
aI117
aI566
aI317
aI195
aI226
aI493
aI407
aI14
aI391
aI609
aI451
aI84
aI86
aI556
aI562
aI184
aI415
aI193
aI419
aI105
aI414
aI643
aI26
aI446
aI8
aI557
aI324
aI411
aI172
aI386
aI159
aI374
aI584
aI210
aI387
aI599
aI400
aI40
aI445
aI200
aI204
aI157
aI578
aI284
aI171
aI384
aI569
aI403
aI586
aI301
aI3
aI164
aI302
aI396
aI629
aI428
aI207
aI28
aI179
aI628
aI602
aI583
aI252
aI244
aI598
aI443
aI325
aI495
aI21
aI214
aI202
aI329
aI215
aI151
aI108
aI258
aI69
aI285
aI140
aI362
aI257
aI106
aI196
aI104
aI64
aI119
aI378
aI191
aI326
aI332
aI585
aI587
aI436
aI181
aI174
aI389
aI581
aI128
aI310
aI13
aI470
aI543
aI182
aI168
aI228
aI294
aI333
aI438
aI631
aI475
aI116
aI59
aI112
aI312
aI568
aI606
aI212
aI56
aI483
aI115
aI482
aI487
aI567
aI150
aI383
aI123
aI98
aI27
aI545
aI352
aI640
aI404
aI24
aI55
aI201
aI12
aI469
aI49
aI81
aI646
aI553
aI25
aI555
aI99
aI410
aI97
aI365
aI67
aI405
aI249
aI424
aI109
aI639
aI9
aI237
aI465
aI295
aI135
aI575
aI510
aI649
aI561
aI19
aI607
aI16
aI345
aI118
aI621
aI5
aI364
aI90
aI48
aI290
aI175
aI494
aI245
aI390
aI239
aI652
aI485
aI303
aI194
aI605
aI280
aI10
aI102
aI393
aI608
aI614
aI519
aI154
aI33
aI318
aI276
aI625
aI208
aI650
aI53
aI430
aI230
aI375
aI35
aI539
aI381
aI505
aI219
aI278
aI132
aI241
aI261
aI341
aI240
aI94
aI535
aI43
aI582
aI15
aI183
aI457
aI366
aI636
aI512
aI4
aI148
aI220
aI61
aI431
aI238
aI612
aI479
aI480
aI627
aI623
aI11
aI617
aI328
aI251
aI217
aI71
aI149
aI129
aI592
aI41
aI638
aI330
aI63
aI121
aI540
aI488
aI589
aI476
aI622
aI604
aI394
aI349
aI52
aI296
aI110
aI156
aI370
aI489
aI274
aI292
aI275
aI549
aI468
aI131
aI515
aI361
aI281
aI242
aI500
aI72
aI351
aI316
aI143
aI335
aI77
aI455
aI7
aI416
aI321
aI20
aI511
aI385
aI34
aI534
aI185
aI46
aI78
aI506
aI267
aI421
aI507
aI188
aI653
aI79
aI498
aI358
aI372
aI531
aI433
aI395
aI311
aI229
aI6
aI426
aI134
aI516
aI305
aI223
aI270
aI449
aI618
aI456
aI508
aI263
aI615
aI452
aI314
aI484
aI461
aI236
aI126
aI596
aI525
aI42
aI514
aI177
aI45
aI611
aI315
aI197
aI162
aI613
aI176
aI550
aI233
aI573
aI359
aI576
aI651
aI523
aI491
aI259
aI186
aI533
aI187
aI554
aI165
aI577
aI199
aI76
aI173
aI234
aI558
aI248
aI590
aI147
aI180
aI472
aI38
aI91
aI354
aI388
aI124
aI137
aI231
aI496
aI146
aI517
aI299
aI100
aI524
aI273
aI342
aI87
aI647
aI373
aI536
aI235
aI422
aI529
aI111
aI346
aI260
aI509
aI406
aI218
aI73
aI178
aI360
aI620
aI291
aI163
aI363
aI23
aI271
aI478
aI31
aI513
aI0
aI392
aI60
aI103
aI250
aI66
aI454
aI499
aI417
aI447
aI594
aI1
aI320
aI58
aI347
aI216
aI286
aI357
aI152
aI82
aI641
aI537
aI337
aI542
aI95
aI603
aI304
aI474
aI213
aI96
aI560
aI453
aI313
aI440
aI547
aI527
aI466
aI626
aI522
aI141
aI139
aI382
aI277
aI338
aI633
aI50
aI648
aI379
aI153
aI348
aI189
aI574
aI323
aI246
aI30
aI471
aI227
aI546
aI158
aI473
aI420
aI57
aI572
aI501
aI268
aI350
aI399
aI319
aI255
aI552
aI166
aI492
aI503
aI85
aI339
aI62
aI458
aI408
aI486
aI243
aI463
aI125
aI601
aI432
aI429
aI2
aI344
aI130
aI170
aI327
aI439
aI548
aI22
aI37
aI464
aI272
aI300
aI637
aI68
aI409
aI477
aI80
aI610
aI225
aI579
aI459
aI532
aI54
aI580
aI462
aI39
aI423
aI595
aI293
aI427
aI144
aI450
aI224
aI654
aI521
aI518
aI221
aI203
aI418
aI279
aI101
aI401
aI600
aI309
aI368
aI253
aI571
aI155
aI107
aI624
aI289
aI570
aI645
aI136
aI541
aI192
aI377
aI435
aI343
aI254
aI356
aI376
aI481
aI398
aI402
aI17
aI504
aI490
aI334
aI283
aI190
aI138
aI36
aI288
aI133
aI88
aI297
aI593
aI83
aI551
aI544
aI632
aI412
aI169
aI142
aI563
aI114
aI120
aI232
aI538
aI369
aI65
aI397
aI619
aI308
aI256
aI441
aI597
aI75
aI264
aa(lp7
I549
aI417
aI242
aI22
aI444
aI627
aI654
aI58
aI504
aI191
aI146
aI12
aI427
aI576
aI612
aI153
aI530
aI587
aI565
aI168
aI558
aI215
aI77
aI383
aI502
aI229
aI28
aI578
aI50
aI186
aI381
aI432
aI547
aI521
aI647
aI326
aI494
aI134
aI32
aI465
aI476
aI161
aI90
aI270
aI195
aI287
aI365
aI104
aI309
aI424
aI13
aI172
aI169
aI461
aI239
aI124
aI579
aI448
aI139
aI243
aI219
aI597
aI94
aI652
aI300
aI468
aI335
aI350
aI503
aI327
aI418
aI160
aI537
aI16
aI225
aI65
aI380
aI396
aI180
aI51
aI116
aI645
aI636
aI637
aI507
aI367
aI362
aI545
aI232
aI251
aI391
aI2
aI592
aI355
aI272
aI538
aI505
aI188
aI593
aI602
aI31
aI250
aI106
aI471
aI399
aI485
aI347
aI42
aI509
aI297
aI520
aI575
aI127
aI55
aI248
aI540
aI93
aI617
aI413
aI584
aI385
aI63
aI67
aI526
aI352
aI177
aI630
aI155
aI255
aI643
aI517
aI34
aI246
aI76
aI252
aI38
aI280
aI176
aI230
aI446
aI19
aI304
aI329
aI514
aI527
aI462
aI303
aI341
aI581
aI208
aI129
aI29
aI431
aI89
aI626
aI316
aI91
aI35
aI397
aI213
aI305
aI580
aI197
aI457
aI346
aI57
aI499
aI119
aI598
aI426
aI190
aI103
aI449
aI619
aI525
aI603
aI629
aI436
aI73
aI112
aI185
aI519
aI181
aI611
aI298
aI285
aI10
aI211
aI60
aI218
aI364
aI99
aI542
aI204
aI245
aI39
aI69
aI484
aI394
aI226
aI421
aI288
aI86
aI366
aI47
aI610
aI274
aI113
aI536
aI609
aI53
aI278
aI372
aI570
aI332
aI437
aI138
aI40
aI296
aI178
aI263
aI44
aI98
aI450
aI606
aI458
aI361
aI130
aI337
aI400
aI370
aI183
aI108
aI140
aI109
aI24
aI582
aI447
aI574
aI459
aI642
aI210
aI268
aI293
aI473
aI649
aI577
aI214
aI621
aI423
aI244
aI589
aI48
aI114
aI600
aI434
aI493
aI125
aI75
aI467
aI126
aI3
aI171
aI54
aI368
aI100
aI324
aI223
aI82
aI541
aI604
aI96
aI141
aI522
aI205
aI534
aI302
aI224
aI267
aI474
aI52
aI41
aI62
aI81
aI187
aI486
aI299
aI318
aI165
aI374
aI492
aI201
aI531
aI543
aI156
aI648
aI608
aI445
aI379
aI196
aI628
aI202
aI97
aI151
aI590
aI495
aI390
aI133
aI110
aI497
aI266
aI220
aI488
aI470
aI586
aI59
aI295
aI11
aI259
aI163
aI158
aI405
aI404
aI336
aI307
aI8
aI425
aI308
aI535
aI107
aI554
aI64
aI483
aI481
aI599
aI375
aI463
aI464
aI551
aI131
aI466
aI591
aI312
aI646
aI644
aI333
aI27
aI560
aI276
aI290
aI344
aI563
aI345
aI80
aI442
aI622
aI235
aI513
aI455
aI206
aI480
aI167
aI511
aI548
aI45
aI150
aI198
aI68
aI14
aI477
aI132
aI189
aI639
aI351
aI74
aI137
aI240
aI184
aI241
aI456
aI395
aI363
aI36
aI388
aI262
aI21
aI635
aI392
aI179
aI216
aI482
aI281
aI640
aI596
aI585
aI319
aI416
aI289
aI516
aI222
aI322
aI356
aI292
aI403
aI433
aI479
aI407
aI569
aI539
aI638
aI192
aI315
aI194
aI17
aI317
aI529
aI632
aI49
aI515
aI532
aI323
aI4
aI95
aI443
aI650
aI616
aI406
aI18
aI556
aI311
aI9
aI369
aI412
aI291
aI144
aI472
aI415
aI123
aI162
aI435
aI237
aI523
aI653
aI154
aI199
aI33
aI7
aI500
aI546
aI294
aI23
aI105
aI358
aI78
aI559
aI550
aI568
aI279
aI43
aI634
aI420
aI227
aI145
aI409
aI173
aI135
aI641
aI419
aI614
aI26
aI524
aI408
aI148
aI491
aI231
aI454
aI15
aI387
aI377
aI334
aI120
aI378
aI1
aI393
aI253
aI601
aI595
aI152
aI275
aI572
aI518
aI88
aI269
aI128
aI401
aI496
aI508
aI203
aI373
aI452
aI166
aI453
aI84
aI46
aI357
aI217
aI594
aI79
aI402
aI460
aI506
aI136
aI92
aI258
aI475
aI273
aI330
aI620
aI233
aI6
aI286
aI247
aI149
aI284
aI561
aI170
aI147
aI164
aI544
aI607
aI282
aI501
aI61
aI320
aI200
aI175
aI257
aI249
aI343
aI70
aI571
aI209
aI354
aI386
aI338
aI5
aI122
aI382
aI376
aI221
aI414
aI533
aI325
aI528
aI613
aI360
aI371
aI328
aI398
aI228
aI72
aI101
aI562
aI631
aI651
aI615
aI87
aI469
aI487
aI234
aI0
aI301
aI428
aI422
aI142
aI102
aI121
aI552
aI261
aI283
aI174
aI389
aI555
aI56
aI633
aI359
aI260
aI348
aI159
aI342
aI117
aI118
aI277
aI20
aI623
aI85
aI588
aI182
aI71
aI489
aI37
aI236
aI553
aI618
aI271
aI440
aI212
aI313
aI498
aI583
aI439
aI478
aI264
aI321
aI625
aI353
aI238
aI567
aI451
aI512
aI83
aI207
aI490
aI157
aI605
aI410
aI573
aI438
aI331
aI193
aI411
aI557
aI254
aI25
aI624
aI340
aI314
aI566
aI115
aI429
aI310
aI430
aI510
aI441
aI143
aI349
aI111
aI30
aI66
aI339
aI384
aI306
aI265
aI256
aI564
aa(lp8
I190
aI502
aI572
aI354
aI314
aI50
aI396
aI195
aI82
aI536
aI529
aI194
aI72
aI31
aI626
aI157
aI165
aI331
aI422
aI120
aI153
aI33
aI302
aI21
aI398
aI410
aI22
aI121
aI464
aI459
aI585
aI224
aI113
aI240
aI193
aI334
aI515
aI546
aI258
aI43
aI509
aI174
aI523
aI140
aI162
aI514
aI323
aI185
aI504
aI595
aI641
aI234
aI384
aI633
aI226
aI160
aI166
aI222
aI473
aI541
aI643
aI480
aI553
aI604
aI361
aI192
aI551
aI513
aI588
aI408
aI441
aI619
aI296
aI332
aI74
aI453
aI42
aI557
aI545
aI38
aI355
aI46
aI375
aI73
aI213
aI239
aI540
aI634
aI358
aI0
aI167
aI542
aI606
aI340
aI387
aI506
aI79
aI391
aI132
aI66
aI569
aI59
aI430
aI164
aI402
aI550
aI404
aI241
aI472
aI149
aI41
aI462
aI115
aI440
aI133
aI414
aI282
aI512
aI168
aI439
aI51
aI476
aI2
aI385
aI593
aI28
aI378
aI205
aI277
aI372
aI197
aI313
aI1
aI458
aI428
aI155
aI544
aI216
aI357
aI141
aI508
aI274
aI171
aI456
aI19
aI71
aI201
aI136
aI268
aI526
aI611
aI210
aI329
aI377
aI652
aI90
aI520
aI9
aI623
aI281
aI485
aI538
aI534
aI242
aI253
aI65
aI29
aI347
aI198
aI284
aI35
aI475
aI465
aI549
aI543
aI460
aI147
aI321
aI100
aI389
aI98
aI111
aI383
aI101
aI139
aI596
aI307
aI426
aI176
aI8
aI305
aI256
aI379
aI528
aI594
aI587
aI40
aI563
aI479
aI399
aI388
aI232
aI32
aI352
aI204
aI637
aI499
aI291
aI393
aI250
aI236
aI91
aI488
aI27
aI511
aI70
aI53
aI518
aI131
aI275
aI614
aI116
aI161
aI89
aI287
aI566
aI490
aI481
aI337
aI196
aI273
aI24
aI492
aI227
aI618
aI17
aI450
aI484
aI327
aI14
aI427
aI304
aI589
aI18
aI129
aI330
aI294
aI289
aI303
aI624
aI451
aI649
aI328
aI411
aI602
aI58
aI225
aI62
aI610
aI177
aI474
aI249
aI255
aI286
aI421
aI36
aI263
aI251
aI56
aI122
aI5
aI119
aI283
aI654
aI259
aI482
aI416
aI61
aI272
aI561
aI102
aI223
aI452
aI181
aI85
aI88
aI559
aI592
aI336
aI516
aI252
aI586
aI285
aI298
aI600
aI605
aI209
aI15
aI371
aI126
aI522
aI145
aI134
aI326
aI401
aI628
aI547
aI49
aI260
aI608
aI436
aI521
aI438
aI425
aI187
aI489
aI271
aI159
aI395
aI483
aI365
aI405
aI413
aI555
aI573
aI107
aI392
aI163
aI445
aI148
aI343
aI335
aI117
aI293
aI603
aI463
aI437
aI246
aI105
aI112
aI562
aI257
aI237
aI124
aI367
aI244
aI376
aI97
aI363
aI12
aI128
aI7
aI60
aI146
aI577
aI527
aI431
aI266
aI325
aI442
aI93
aI10
aI320
aI496
aI503
aI345
aI477
aI158
aI182
aI635
aI574
aI92
aI55
aI470
aI373
aI629
aI461
aI406
aI615
aI640
aI86
aI130
aI571
aI356
aI412
aI447
aI478
aI150
aI498
aI433
aI217
aI466
aI507
aI278
aI625
aI118
aI172
aI4
aI262
aI394
aI639
aI67
aI276
aI651
aI318
aI621
aI306
aI429
aI188
aI178
aI359
aI448
aI87
aI471
aI400
aI16
aI96
aI267
aI583
aI235
aI300
aI344
aI382
aI180
aI114
aI631
aI567
aI316
aI295
aI169
aI423
aI233
aI301
aI125
aI54
aI598
aI617
aI142
aI548
aI627
aI380
aI351
aI434
aI599
aI215
aI156
aI309
aI368
aI3
aI369
aI486
aI468
aI353
aI94
aI84
aI202
aI292
aI420
aI39
aI231
aI20
aI25
aI590
aI218
aI575
aI47
aI576
aI407
aI135
aI144
aI23
aI219
aI530
aI80
aI564
aI403
aI653
aI455
aI179
aI364
aI495
aI76
aI6
aI386
aI52
aI366
aI338
aI419
aI173
aI348
aI648
aI374
aI349
aI138
aI432
aI360
aI189
aI424
aI175
aI565
aI123
aI650
aI342
aI319
aI184
aI77
aI245
aI493
aI435
aI620
aI346
aI57
aI199
aI81
aI524
aI469
aI127
aI109
aI630
aI552
aI315
aI44
aI108
aI591
aI68
aI78
aI505
aI638
aI299
aI532
aI497
aI48
aI269
aI265
aI333
aI409
aI211
aI584
aI449
aI106
aI578
aI248
aI607
aI288
aI322
aI212
aI63
aI324
aI397
aI558
aI517
aI103
aI501
aI390
aI99
aI531
aI418
aI616
aI208
aI26
aI229
aI214
aI580
aI13
aI230
aI454
aI647
aI341
aI279
aI34
aI243
aI444
aI568
aI339
aI203
aI537
aI261
aI238
aI646
aI525
aI533
aI206
aI317
aI152
aI104
aI200
aI467
aI612
aI644
aI500
aI350
aI636
aI642
aI64
aI457
aI570
aI220
aI613
aI556
aI254
aI183
aI11
aI221
aI645
aI45
aI494
aI597
aI207
aI560
aI417
aI579
aI137
aI69
aI312
aI30
aI491
aI191
aI370
aI381
aI609
aI297
aI270
aI510
aI143
aI535
aI186
aI622
aI487
aI415
aI75
aI539
aI151
aI110
aI170
aI83
aI37
aI264
aI280
aI582
aI519
aI362
aI446
aI95
aI308
aI311
aI632
aI154
aI228
aI581
aI601
aI290
aI443
aI247
aI310
aI554
aa(lp9
I229
aI316
aI633
aI422
aI203
aI345
aI590
aI181
aI605
aI247
aI222
aI226
aI514
aI217
aI643
aI420
aI160
aI23
aI603
aI447
aI483
aI527
aI230
aI472
aI520
aI582
aI546
aI262
aI454
aI314
aI198
aI93
aI554
aI462
aI617
aI221
aI502
aI192
aI339
aI429
aI3
aI43
aI501
aI255
aI464
aI499
aI297
aI210
aI27
aI642
aI304
aI397
aI389
aI134
aI109
aI342
aI329
aI52
aI614
aI597
aI515
aI143
aI381
aI500
aI416
aI565
aI227
aI440
aI14
aI162
aI139
aI137
aI470
aI624
aI251
aI547
aI497
aI419
aI616
aI450
aI384
aI88
aI609
aI635
aI608
aI172
aI182
aI315
aI273
aI630
aI204
aI301
aI436
aI144
aI423
aI100
aI503
aI238
aI146
aI157
aI330
aI290
aI130
aI208
aI613
aI55
aI654
aI269
aI66
aI197
aI142
aI639
aI466
aI71
aI48
aI81
aI237
aI548
aI579
aI484
aI90
aI461
aI553
aI528
aI26
aI65
aI437
aI526
aI537
aI284
aI312
aI126
aI161
aI44
aI214
aI225
aI35
aI344
aI150
aI457
aI531
aI82
aI477
aI70
aI31
aI141
aI414
aI205
aI154
aI646
aI644
aI481
aI96
aI75
aI475
aI76
aI240
aI357
aI571
aI145
aI69
aI507
aI538
aI627
aI249
aI56
aI116
aI469
aI220
aI593
aI385
aI61
aI338
aI87
aI276
aI243
aI640
aI293
aI60
aI600
aI407
aI257
aI244
aI578
aI22
aI543
aI489
aI493
aI533
aI343
aI459
aI261
aI95
aI300
aI286
aI122
aI354
aI10
aI124
aI285
aI77
aI432
aI263
aI28
aI85
aI588
aI324
aI551
aI390
aI393
aI323
aI68
aI94
aI200
aI458
aI525
aI350
aI318
aI555
aI138
aI41
aI215
aI159
aI521
aI234
aI634
aI378
aI433
aI492
aI443
aI570
aI572
aI17
aI604
aI117
aI98
aI91
aI231
aI587
aI224
aI307
aI379
aI19
aI178
aI199
aI296
aI629
aI372
aI32
aI549
aI46
aI333
aI2
aI382
aI278
aI5
aI596
aI581
aI266
aI281
aI530
aI165
aI558
aI319
aI322
aI283
aI303
aI349
aI380
aI409
aI362
aI103
aI348
aI421
aI347
aI311
aI42
aI136
aI40
aI299
aI463
aI650
aI213
aI327
aI649
aI574
aI332
aI376
aI279
aI431
aI206
aI355
aI568
aI366
aI164
aI80
aI107
aI524
aI369
aI434
aI207
aI583
aI0
aI621
aI123
aI127
aI295
aI448
aI353
aI78
aI201
aI453
aI190
aI476
aI53
aI504
aI274
aI408
aI418
aI268
aI47
aI620
aI86
aI83
aI113
aI398
aI519
aI425
aI638
aI428
aI289
aI193
aI373
aI233
aI321
aI108
aI512
aI534
aI125
aI641
aI294
aI545
aI158
aI552
aI626
aI567
aI363
aI561
aI523
aI50
aI241
aI465
aI417
aI245
aI569
aI404
aI601
aI451
aI612
aI611
aI622
aI180
aI575
aI480
aI13
aI576
aI599
aI12
aI636
aI4
aI223
aI176
aI540
aI33
aI259
aI577
aI29
aI358
aI235
aI179
aI442
aI427
aI218
aI67
aI351
aI522
aI536
aI391
aI308
aI400
aI9
aI62
aI544
aI104
aI1
aI271
aI529
aI359
aI595
aI335
aI375
aI84
aI452
aI341
aI625
aI252
aI365
aI564
aI510
aI438
aI426
aI155
aI486
aI232
aI34
aI346
aI170
aI494
aI652
aI99
aI287
aI177
aI188
aI430
aI7
aI424
aI606
aI54
aI59
aI202
aI631
aI115
aI556
aI184
aI275
aI168
aI79
aI306
aI57
aI153
aI140
aI517
aI598
aI174
aI106
aI326
aI532
aI508
aI30
aI331
aI151
aI336
aI557
aI488
aI73
aI11
aI377
aI147
aI518
aI495
aI280
aI305
aI185
aI446
aI370
aI610
aI21
aI191
aI399
aI282
aI473
aI110
aI386
aI648
aI291
aI239
aI405
aI479
aI592
aI112
aI560
aI189
aI632
aI482
aI468
aI166
aI267
aI383
aI58
aI645
aI265
aI236
aI637
aI445
aI288
aI114
aI562
aI6
aI63
aI541
aI563
aI591
aI292
aI602
aI72
aI49
aI573
aI337
aI102
aI219
aI412
aI498
aI460
aI20
aI439
aI580
aI156
aI607
aI506
aI628
aI387
aI340
aI246
aI487
aI272
aI175
aI396
aI618
aI509
aI441
aI120
aI594
aI18
aI317
aI449
aI250
aI148
aI298
aI456
aI209
aI516
aI651
aI559
aI111
aI92
aI435
aI163
aI216
aI505
aI15
aI149
aI542
aI196
aI51
aI119
aI356
aI152
aI394
aI89
aI212
aI392
aI550
aI474
aI352
aI248
aI64
aI415
aI411
aI467
aI511
aI496
aI194
aI402
aI133
aI131
aI328
aI478
aI254
aI135
aI361
aI270
aI413
aI653
aI132
aI38
aI16
aI406
aI253
aI195
aI539
aI325
aI401
aI256
aI36
aI371
aI242
aI388
aI24
aI228
aI589
aI619
aI535
aI615
aI302
aI186
aI260
aI647
aI585
aI364
aI264
aI258
aI444
aI374
aI171
aI187
aI118
aI368
aI101
aI277
aI485
aI45
aI513
aI313
aI367
aI173
aI455
aI586
aI97
aI360
aI334
aI310
aI490
aI8
aI309
aI25
aI491
aI566
aI471
aI410
aI39
aI74
aI320
aI623
aI183
aI105
aI403
aI128
aI584
aI167
aI395
aI169
aI211
aI37
aI121
aI129
aa(lp10
I440
aI154
aI132
aI44
aI113
aI32
aI360
aI562
aI427
aI61
aI599
aI30
aI423
aI54
aI448
aI58
aI383
aI116
aI641
aI211
aI600
aI155
aI297
aI252
aI516
aI304
aI233
aI57
aI3
aI469
aI640
aI556
aI376
aI131
aI295
aI324
aI239
aI494
aI447
aI384
aI95
aI463
aI565
aI310
aI236
aI349
aI461
aI0
aI353
aI83
aI37
aI187
aI429
aI522
aI534
aI139
aI331
aI311
aI626
aI453
aI381
aI325
aI296
aI367
aI486
aI190
aI41
aI548
aI585
aI412
aI259
aI332
aI248
aI576
aI454
aI147
aI151
aI65
aI68
aI563
aI645
aI179
aI222
aI502
aI52
aI415
aI94
aI5
aI80
aI350
aI170
aI66
aI512
aI410
aI181
aI559
aI356
aI140
aI182
aI260
aI591
aI518
aI343
aI504
aI355
aI55
aI317
aI557
aI435
aI172
aI26
aI540
aI525
aI10
aI242
aI554
aI300
aI457
aI567
aI24
aI400
aI631
aI582
aI538
aI451
aI298
aI219
aI520
aI257
aI198
aI462
aI251
aI476
aI246
aI96
aI491
aI590
aI497
aI418
aI158
aI539
aI264
aI124
aI97
aI414
aI287
aI555
aI648
aI397
aI338
aI601
aI390
aI289
aI51
aI636
aI217
aI573
aI188
aI398
aI78
aI348
aI223
aI35
aI50
aI279
aI581
aI336
aI552
aI466
aI637
aI346
aI417
aI307
aI111
aI14
aI76
aI218
aI282
aI241
aI313
aI265
aI135
aI138
aI27
aI186
aI484
aI74
aI529
aI610
aI371
aI334
aI249
aI67
aI148
aI416
aI624
aI306
aI93
aI470
aI357
aI358
aI608
aI195
aI531
aI521
aI422
aI607
aI29
aI220
aI141
aI587
aI115
aI606
aI200
aI377
aI523
aI551
aI17
aI542
aI134
aI168
aI382
aI499
aI63
aI619
aI316
aI178
aI386
aI9
aI227
aI301
aI584
aI174
aI7
aI444
aI329
aI98
aI354
aI439
aI549
aI475
aI366
aI89
aI609
aI323
aI205
aI362
aI12
aI180
aI616
aI489
aI33
aI456
aI437
aI43
aI20
aI613
aI173
aI109
aI604
aI161
aI305
aI164
aI104
aI594
aI45
aI137
aI401
aI266
aI117
aI101
aI255
aI244
aI302
aI49
aI501
aI232
aI284
aI391
aI532
aI100
aI79
aI589
aI77
aI431
aI271
aI142
aI53
aI455
aI165
aI634
aI373
aI566
aI403
aI102
aI524
aI442
aI90
aI340
aI633
aI320
aI575
aI130
aI152
aI578
aI374
aI285
aI230
aI226
aI254
aI212
aI528
aI267
aI243
aI75
aI550
aI464
aI321
aI436
aI328
aI46
aI421
aI507
aI337
aI146
aI199
aI92
aI108
aI8
aI70
aI408
aI156
aI91
aI327
aI185
aI492
aI207
aI452
aI614
aI1
aI553
aI593
aI240
aI419
aI449
aI537
aI216
aI643
aI286
aI352
aI294
aI632
aI345
aI547
aI274
aI171
aI71
aI288
aI443
aI183
aI107
aI445
aI150
aI69
aI428
aI446
aI315
aI592
aI580
aI16
aI511
aI622
aI597
aI84
aI488
aI169
aI472
aI23
aI250
aI318
aI290
aI105
aI342
aI22
aI473
aI545
aI572
aI510
aI106
aI364
aI420
aI365
aI114
aI59
aI309
aI208
aI620
aI163
aI34
aI197
aI258
aI201
aI21
aI629
aI498
aI31
aI64
aI268
aI654
aI485
aI598
aI441
aI638
aI527
aI99
aI129
aI143
aI479
aI62
aI361
aI184
aI224
aI652
aI605
aI509
aI399
aI283
aI136
aI175
aI628
aI474
aI19
aI406
aI153
aI460
aI176
aI602
aI119
aI530
aI344
aI569
aI411
aI299
aI247
aI28
aI127
aI196
aI280
aI48
aI144
aI513
aI395
aI644
aI235
aI570
aI543
aI192
aI351
aI341
aI544
aI465
aI653
aI167
aI432
aI623
aI478
aI611
aI225
aI392
aI160
aI261
aI319
aI467
aI15
aI293
aI588
aI438
aI42
aI13
aI359
aI517
aI621
aI213
aI194
aI500
aI278
aI88
aI625
aI459
aI221
aI603
aI378
aI245
aI133
aI2
aI519
aI229
aI515
aI262
aI402
aI60
aI407
aI11
aI368
aI85
aI430
aI159
aI228
aI433
aI149
aI276
aI86
aI308
aI483
aI103
aI612
aI393
aI18
aI480
aI651
aI404
aI110
aI203
aI642
aI370
aI363
aI514
aI526
aI314
aI234
aI558
aI405
aI25
aI206
aI291
aI145
aI388
aI506
aI394
aI166
aI162
aI646
aI270
aI635
aI326
aI380
aI128
aI39
aI568
aI335
aI112
aI505
aI47
aI508
aI123
aI215
aI617
aI191
aI458
aI281
aI385
aI561
aI193
aI4
aI409
aI425
aI253
aI56
aI579
aI618
aI595
aI379
aI237
aI372
aI273
aI126
aI586
aI40
aI490
aI82
aI210
aI546
aI496
aI387
aI396
aI577
aI649
aI347
aI482
aI389
aI81
aI536
aI571
aI204
aI209
aI87
aI292
aI495
aI157
aI73
aI630
aI413
aI627
aI493
aI202
aI231
aI477
aI647
aI535
aI339
aI312
aI122
aI615
aI468
aI120
aI121
aI269
aI541
aI177
aI503
aI118
aI533
aI238
aI322
aI450
aI639
aI214
aI263
aI487
aI434
aI560
aI471
aI583
aI481
aI36
aI277
aI375
aI333
aI650
aI125
aI38
aI426
aI564
aI303
aI369
aI424
aI72
aI574
aI330
aI596
aI6
aI275
aI189
aI256
aI272
aa(lp11
I329
aI348
aI456
aI465
aI165
aI412
aI364
aI237
aI0
aI561
aI211
aI24
aI354
aI554
aI94
aI511
aI497
aI115
aI273
aI517
aI502
aI191
aI452
aI352
aI638
aI553
aI633
aI473
aI392
aI567
aI646
aI120
aI287
aI360
aI79
aI154
aI611
aI605
aI324
aI398
aI597
aI383
aI253
aI602
aI620
aI535
aI17
aI267
aI264
aI461
aI423
aI151
aI495
aI494
aI140
aI498
aI523
aI241
aI309
aI489
aI196
aI645
aI259
aI474
aI18
aI265
aI59
aI293
aI531
aI148
aI446
aI555
aI23
aI314
aI558
aI521
aI93
aI251
aI347
aI444
aI439
aI365
aI29
aI229
aI386
aI92
aI641
aI9
aI427
aI119
aI106
aI617
aI221
aI161
aI625
aI61
aI263
aI462
aI513
aI77
aI277
aI40
aI578
aI220
aI401
aI124
aI187
aI372
aI350
aI249
aI278
aI82
aI193
aI262
aI426
aI10
aI283
aI604
aI16
aI425
aI627
aI331
aI594
aI74
aI327
aI36
aI198
aI5
aI564
aI71
aI146
aI606
aI432
aI514
aI528
aI504
aI203
aI629
aI390
aI358
aI192
aI307
aI509
aI396
aI225
aI179
aI60
aI375
aI450
aI455
aI275
aI487
aI228
aI222
aI176
aI150
aI527
aI75
aI136
aI619
aI34
aI525
aI125
aI224
aI266
aI571
aI613
aI406
aI381
aI441
aI362
aI1
aI557
aI213
aI576
aI599
aI272
aI210
aI99
aI184
aI429
aI281
aI652
aI236
aI440
aI208
aI393
aI261
aI178
aI206
aI137
aI631
aI623
aI101
aI367
aI480
aI12
aI516
aI188
aI127
aI216
aI485
aI622
aI41
aI568
aI72
aI614
aI519
aI340
aI200
aI145
aI156
aI290
aI85
aI418
aI414
aI129
aI481
aI647
aI189
aI607
aI479
aI333
aI639
aI478
aI139
aI96
aI588
aI443
aI91
aI142
aI33
aI419
aI64
aI212
aI78
aI589
aI384
aI3
aI204
aI50
aI294
aI68
aI27
aI248
aI15
aI38
aI303
aI610
aI522
aI635
aI42
aI370
aI575
aI243
aI344
aI242
aI52
aI459
aI268
aI526
aI195
aI603
aI269
aI339
aI600
aI369
aI477
aI421
aI291
aI382
aI180
aI328
aI232
aI438
aI500
aI411
aI407
aI215
aI518
aI235
aI373
aI158
aI270
aI503
aI28
aI565
aI37
aI435
aI116
aI400
aI491
aI163
aI286
aI570
aI19
aI39
aI271
aI505
aI546
aI532
aI582
aI651
aI484
aI288
aI624
aI538
aI512
aI122
aI131
aI453
aI345
aI325
aI257
aI141
aI593
aI311
aI391
aI376
aI334
aI6
aI135
aI378
aI583
aI548
aI380
aI167
aI595
aI472
aI258
aI284
aI361
aI323
aI566
aI337
aI58
aI402
aI166
aI355
aI111
aI389
aI282
aI408
aI238
aI177
aI162
aI549
aI256
aI13
aI80
aI351
aI95
aI458
aI388
aI25
aI304
aI492
aI31
aI560
aI598
aI457
aI621
aI612
aI252
aI447
aI51
aI395
aI246
aI69
aI55
aI648
aI66
aI562
aI2
aI164
aI530
aI11
aI47
aI250
aI346
aI103
aI98
aI608
aI628
aI313
aI171
aI356
aI499
aI542
aI579
aI30
aI563
aI87
aI464
aI138
aI295
aI591
aI219
aI201
aI149
aI26
aI437
aI601
aI100
aI574
aI157
aI4
aI540
aI217
aI128
aI510
aI239
aI20
aI573
aI475
aI417
aI436
aI233
aI394
aI254
aI559
aI642
aI49
aI434
aI493
aI584
aI332
aI245
aI218
aI320
aI209
aI152
aI349
aI550
aI448
aI551
aI121
aI155
aI644
aI544
aI377
aI640
aI587
aI319
aI534
aI533
aI183
aI296
aI422
aI130
aI470
aI431
aI45
aI62
aI65
aI97
aI467
aI280
aI543
aI86
aI654
aI240
aI301
aI466
aI205
aI507
aI317
aI343
aI508
aI306
aI416
aI643
aI413
aI387
aI35
aI308
aI132
aI403
aI428
aI63
aI214
aI385
aI112
aI44
aI107
aI147
aI596
aI445
aI117
aI451
aI297
aI547
aI223
aI626
aI168
aI285
aI650
aI580
aI321
aI302
aI581
aI586
aI404
aI482
aI126
aI289
aI496
aI234
aI260
aI460
aI341
aI226
aI88
aI653
aI585
aI56
aI292
aI374
aI109
aI442
aI490
aI244
aI299
aI316
aI134
aI108
aI143
aI430
aI67
aI449
aI89
aI476
aI616
aI410
aI84
aI368
aI81
aI274
aI632
aI506
aI185
aI207
aI315
aI118
aI471
aI310
aI486
aI399
aI326
aI53
aI169
aI420
aI363
aI569
aI255
aI536
aI231
aI46
aI336
aI469
aI174
aI577
aI318
aI22
aI227
aI190
aI194
aI552
aI649
aI247
aI298
aI636
aI433
aI634
aI159
aI21
aI330
aI73
aI279
aI592
aI409
aI637
aI186
aI405
aI537
aI529
aI454
aI609
aI83
aI366
aI76
aI14
aI70
aI545
aI541
aI48
aI90
aI322
aI501
aI618
aI202
aI54
aI110
aI57
aI133
aI615
aI357
aI524
aI468
aI32
aI556
aI105
aI371
aI305
aI153
aI104
aI8
aI300
aI539
aI181
aI630
aI173
aI43
aI488
aI230
aI397
aI160
aI335
aI102
aI199
aI342
aI170
aI359
aI515
aI483
aI123
aI415
aI197
aI113
aI520
aI172
aI379
aI114
aI572
aI182
aI338
aI144
aI590
aI312
aI276
aI424
aI7
aI463
aI175
aI353
aa(lp12
I395
aI45
aI39
aI142
aI407
aI471
aI585
aI441
aI107
aI86
aI614
aI205
aI525
aI155
aI455
aI600
aI475
aI446
aI36
aI435
aI463
aI588
aI75
aI576
aI126
aI350
aI228
aI411
aI266
aI291
aI193
aI301
aI429
aI415
aI501
aI569
aI177
aI326
aI644
aI401
aI440
aI473
aI58
aI443
aI586
aI516
aI63
aI282
aI449
aI259
aI300
aI349
aI48
aI583
aI406
aI386
aI76
aI342
aI215
aI589
aI162
aI398
aI532
aI450
aI472
aI199
aI276
aI293
aI582
aI222
aI417
aI49
aI374
aI539
aI221
aI519
aI111
aI619
aI233
aI241
aI581
aI305
aI613
aI167
aI382
aI626
aI275
aI94
aI83
aI554
aI164
aI334
aI518
aI452
aI71
aI485
aI191
aI635
aI14
aI226
aI637
aI42
aI179
aI453
aI67
aI409
aI653
aI127
aI391
aI258
aI623
aI95
aI544
aI116
aI295
aI545
aI524
aI13
aI466
aI456
aI248
aI54
aI507
aI3
aI256
aI294
aI490
aI93
aI505
aI648
aI527
aI174
aI311
aI278
aI557
aI50
aI27
aI161
aI254
aI264
aI543
aI561
aI121
aI379
aI202
aI17
aI542
aI225
aI4
aI565
aI414
aI255
aI90
aI64
aI643
aI502
aI285
aI427
aI484
aI458
aI523
aI261
aI528
aI218
aI434
aI371
aI102
aI59
aI79
aI537
aI469
aI139
aI425
aI399
aI636
aI251
aI580
aI510
aI129
aI341
aI214
aI247
aI324
aI495
aI381
aI634
aI37
aI365
aI108
aI550
aI140
aI356
aI621
aI461
aI592
aI118
aI89
aI520
aI148
aI385
aI563
aI522
aI57
aI153
aI491
aI229
aI631
aI618
aI383
aI390
aI348
aI81
aI98
aI594
aI12
aI33
aI113
aI124
aI617
aI109
aI380
aI296
aI100
aI159
aI447
aI574
aI11
aI358
aI534
aI343
aI423
aI194
aI451
aI137
aI337
aI361
aI243
aI480
aI572
aI610
aI638
aI408
aI438
aI99
aI439
aI376
aI68
aI18
aI52
aI375
aI418
aI578
aI396
aI237
aI289
aI185
aI514
aI298
aI372
aI604
aI481
aI630
aI112
aI219
aI346
aI217
aI88
aI319
aI331
aI21
aI513
aI579
aI297
aI134
aI336
aI213
aI538
aI328
aI82
aI622
aI575
aI351
aI104
aI234
aI210
aI200
aI38
aI584
aI332
aI310
aI184
aI541
aI314
aI287
aI566
aI6
aI186
aI330
aI253
aI355
aI526
aI277
aI363
aI230
aI649
aI474
aI144
aI596
aI44
aI66
aI133
aI506
aI269
aI97
aI238
aI410
aI467
aI432
aI65
aI650
aI598
aI101
aI53
aI515
aI421
aI366
aI19
aI340
aI151
aI603
aI508
aI553
aI388
aI397
aI280
aI273
aI492
aI412
aI378
aI498
aI22
aI327
aI488
aI477
aI400
aI120
aI20
aI160
aI420
aI321
aI354
aI478
aI564
aI547
aI158
aI302
aI431
aI316
aI433
aI208
aI616
aI78
aI181
aI602
aI608
aI182
aI106
aI123
aI548
aI288
aI570
aI436
aI55
aI387
aI404
aI549
aI152
aI279
aI236
aI91
aI163
aI402
aI322
aI335
aI43
aI246
aI609
aI512
aI606
aI483
aI642
aI426
aI303
aI242
aI359
aI183
aI620
aI640
aI224
aI625
aI393
aI624
aI504
aI306
aI345
aI252
aI462
aI74
aI35
aI315
aI147
aI567
aI299
aI533
aI476
aI377
aI517
aI369
aI150
aI487
aI87
aI445
aI267
aI448
aI206
aI530
aI591
aI593
aI360
aI220
aI347
aI32
aI651
aI503
aI499
aI362
aI590
aI370
aI227
aI2
aI646
aI72
aI599
aI652
aI146
aI309
aI262
aI339
aI7
aI558
aI497
aI283
aI536
aI24
aI1
aI114
aI117
aI424
aI605
aI654
aI416
aI272
aI632
aI442
aI138
aI70
aI323
aI313
aI135
aI403
aI601
aI281
aI195
aI25
aI274
aI555
aI46
aI249
aI77
aI231
aI30
aI51
aI318
aI353
aI198
aI157
aI15
aI173
aI61
aI568
aI482
aI307
aI187
aI470
aI41
aI465
aI645
aI211
aI223
aI595
aI413
aI535
aI26
aI562
aI290
aI23
aI260
aI639
aI464
aI647
aI168
aI172
aI428
aI357
aI176
aI364
aI136
aI31
aI338
aI209
aI552
aI245
aI110
aI325
aI119
aI5
aI489
aI367
aI486
aI9
aI263
aI180
aI201
aI96
aI479
aI115
aI531
aI352
aI627
aI587
aI292
aI333
aI392
aI641
aI105
aI125
aI615
aI308
aI368
aI265
aI551
aI196
aI454
aI312
aI204
aI29
aI8
aI28
aI546
aI69
aI85
aI500
aI577
aI373
aI131
aI80
aI317
aI203
aI250
aI529
aI344
aI169
aI143
aI212
aI271
aI197
aI34
aI207
aI633
aI62
aI496
aI389
aI149
aI459
aI573
aI494
aI10
aI493
aI257
aI84
aI175
aI437
aI560
aI612
aI270
aI130
aI166
aI540
aI460
aI511
aI320
aI268
aI240
aI304
aI192
aI559
aI571
aI122
aI394
aI171
aI188
aI384
aI235
aI141
aI607
aI189
aI156
aI556
aI216
aI92
aI132
aI405
aI154
aI611
aI239
aI103
aI47
aI457
aI430
aI170
aI597
aI190
aI40
aI629
aI244
aI521
aI444
aI73
aI128
aI422
aI284
aI329
aI0
aI468
aI145
aI16
aI286
aI628
aI56
aI232
aI509
aI165
aI419
aI178
aI60
aa(lp13
I182
aI148
aI224
aI332
aI499
aI229
aI485
aI591
aI186
aI83
aI66
aI143
aI193
aI365
aI440
aI516
aI39
aI594
aI390
aI406
aI459
aI322
aI455
aI580
aI537
aI354
aI131
aI541
aI361
aI566
aI226
aI55
aI157
aI271
aI476
aI276
aI346
aI593
aI225
aI317
aI472
aI262
aI581
aI423
aI369
aI343
aI533
aI256
aI388
aI334
aI150
aI493
aI608
aI318
aI513
aI367
aI487
aI496
aI239
aI445
aI105
aI277
aI169
aI650
aI621
aI447
aI421
aI90
aI50
aI385
aI154
aI375
aI432
aI565
aI528
aI114
aI319
aI328
aI635
aI363
aI404
aI417
aI376
aI300
aI430
aI466
aI359
aI524
aI177
aI509
aI403
aI307
aI126
aI570
aI135
aI149
aI282
aI525
aI490
aI437
aI125
aI630
aI287
aI504
aI132
aI358
aI624
aI139
aI397
aI88
aI492
aI257
aI201
aI106
aI416
aI517
aI52
aI190
aI478
aI109
aI456
aI207
aI80
aI138
aI10
aI246
aI505
aI167
aI574
aI101
aI372
aI341
aI63
aI530
aI402
aI60
aI426
aI242
aI72
aI212
aI373
aI4
aI556
aI335
aI185
aI196
aI458
aI314
aI285
aI156
aI638
aI448
aI293
aI515
aI394
aI181
aI625
aI198
aI441
aI110
aI531
aI234
aI232
aI474
aI153
aI235
aI214
aI395
aI465
aI424
aI457
aI28
aI595
aI64
aI230
aI360
aI213
aI428
aI215
aI255
aI543
aI382
aI392
aI578
aI309
aI644
aI144
aI588
aI81
aI643
aI68
aI74
aI326
aI54
aI243
aI590
aI9
aI16
aI168
aI104
aI170
aI604
aI554
aI434
aI297
aI442
aI612
aI62
aI228
aI489
aI500
aI129
aI266
aI32
aI411
aI331
aI179
aI71
aI435
aI400
aI407
aI368
aI11
aI200
aI419
aI22
aI439
aI176
aI610
aI356
aI573
aI345
aI251
aI48
aI414
aI223
aI613
aI611
aI103
aI415
aI623
aI433
aI652
aI281
aI546
aI112
aI91
aI38
aI586
aI512
aI576
aI632
aI238
aI494
aI562
aI13
aI302
aI391
aI76
aI146
aI283
aI84
aI108
aI73
aI102
aI192
aI189
aI622
aI195
aI502
aI34
aI640
aI584
aI248
aI337
aI231
aI14
aI529
aI349
aI210
aI298
aI310
aI526
aI85
aI147
aI23
aI519
aI506
aI24
aI3
aI507
aI631
aI587
aI33
aI619
aI498
aI477
aI29
aI342
aI384
aI121
aI324
aI20
aI136
aI245
aI82
aI40
aI124
aI569
aI548
aI209
aI449
aI583
aI633
aI6
aI592
aI564
aI128
aI579
aI218
aI353
aI544
aI294
aI118
aI95
aI116
aI561
aI620
aI295
aI267
aI188
aI615
aI312
aI140
aI202
aI237
aI497
aI252
aI89
aI380
aI180
aI352
aI263
aI172
aI473
aI21
aI535
aI111
aI315
aI46
aI26
aI320
aI648
aI596
aI155
aI236
aI53
aI187
aI160
aI523
aI577
aI25
aI249
aI113
aI227
aI5
aI627
aI653
aI259
aI291
aI49
aI431
aI145
aI163
aI488
aI292
aI330
aI296
aI399
aI30
aI436
aI151
aI452
aI31
aI206
aI280
aI344
aI443
aI100
aI555
aI211
aI327
aI378
aI275
aI338
aI381
aI463
aI253
aI217
aI308
aI347
aI446
aI379
aI96
aI142
aI636
aI654
aI542
aI70
aI240
aI508
aI329
aI306
aI383
aI641
aI371
aI260
aI351
aI511
aI651
aI557
aI99
aI278
aI299
aI274
aI250
aI61
aI87
aI323
aI575
aI628
aI290
aI481
aI44
aI204
aI438
aI495
aI41
aI258
aI166
aI614
aI161
aI491
aI65
aI642
aI134
aI219
aI387
aI58
aI79
aI19
aI233
aI284
aI547
aI469
aI216
aI480
aI401
aI340
aI17
aI425
aI321
aI589
aI453
aI92
aI137
aI279
aI313
aI444
aI269
aI470
aI545
aI122
aI311
aI339
aI534
aI303
aI191
aI107
aI305
aI467
aI616
aI158
aI597
aI254
aI462
aI364
aI362
aI56
aI222
aI35
aI7
aI120
aI18
aI304
aI389
aI288
aI27
aI273
aI599
aI42
aI203
aI649
aI57
aI47
aI603
aI247
aI1
aI559
aI75
aI162
aI471
aI77
aI468
aI78
aI647
aI98
aI357
aI606
aI268
aI479
aI408
aI464
aI451
aI301
aI270
aI514
aI607
aI503
aI482
aI197
aI450
aI549
aI51
aI460
aI130
aI522
aI645
aI484
aI427
aI646
aI45
aI420
aI540
aI618
aI413
aI609
aI264
aI316
aI572
aI600
aI634
aI2
aI571
aI12
aI119
aI475
aI568
aI265
aI97
aI0
aI412
aI617
aI36
aI429
aI220
aI171
aI94
aI518
aI333
aI141
aI241
aI15
aI350
aI483
aI159
aI629
aI585
aI184
aI221
aI461
aI601
aI527
aI174
aI261
aI409
aI560
aI272
aI93
aI370
aI605
aI563
aI558
aI538
aI67
aI398
aI69
aI8
aI175
aI520
aI336
aI418
aI348
aI43
aI626
aI602
aI377
aI205
aI510
aI567
aI393
aI244
aI386
aI37
aI422
aI454
aI164
aI553
aI152
aI521
aI501
aI59
aI194
aI366
aI396
aI552
aI86
aI127
aI289
aI178
aI199
aI286
aI486
aI536
aI639
aI551
aI355
aI117
aI550
aI165
aI123
aI637
aI183
aI405
aI410
aI325
aI582
aI598
aI539
aI532
aI173
aI133
aI208
aI115
aI374
aa(lp14
I193
aI353
aI563
aI174
aI625
aI295
aI47
aI333
aI627
aI222
aI53
aI70
aI52
aI189
aI427
aI219
aI77
aI418
aI410
aI80
aI580
aI401
aI392
aI50
aI59
aI276
aI62
aI588
aI184
aI357
aI634
aI229
aI484
aI55
aI195
aI107
aI274
aI377
aI366
aI624
aI372
aI172
aI379
aI165
aI474
aI429
aI573
aI408
aI191
aI595
aI6
aI527
aI81
aI132
aI334
aI166
aI192
aI13
aI25
aI542
aI398
aI336
aI483
aI404
aI594
aI516
aI622
aI173
aI24
aI598
aI626
aI540
aI329
aI253
aI495
aI92
aI513
aI320
aI579
aI476
aI109
aI618
aI504
aI97
aI266
aI48
aI19
aI240
aI139
aI56
aI196
aI423
aI283
aI417
aI544
aI558
aI34
aI470
aI309
aI169
aI61
aI39
aI214
aI459
aI630
aI646
aI614
aI509
aI128
aI575
aI138
aI456
aI200
aI632
aI41
aI36
aI290
aI623
aI1
aI649
aI606
aI63
aI556
aI457
aI248
aI615
aI399
aI491
aI608
aI402
aI424
aI175
aI84
aI477
aI43
aI510
aI376
aI75
aI413
aI202
aI226
aI322
aI54
aI535
aI574
aI258
aI349
aI547
aI14
aI611
aI407
aI566
aI640
aI108
aI176
aI597
aI345
aI318
aI526
aI293
aI241
aI339
aI178
aI7
aI325
aI337
aI451
aI27
aI358
aI652
aI489
aI633
aI323
aI185
aI440
aI361
aI350
aI310
aI277
aI432
aI568
aI150
aI203
aI239
aI619
aI482
aI528
aI101
aI201
aI422
aI168
aI374
aI473
aI131
aI156
aI397
aI428
aI8
aI464
aI152
aI299
aI215
aI269
aI538
aI335
aI584
aI420
aI18
aI502
aI643
aI255
aI148
aI550
aI66
aI82
aI89
aI232
aI364
aI438
aI3
aI71
aI351
aI638
aI180
aI628
aI437
aI481
aI388
aI170
aI183
aI567
aI106
aI307
aI314
aI99
aI478
aI419
aI543
aI327
aI391
aI644
aI570
aI576
aI204
aI186
aI642
aI198
aI529
aI617
aI64
aI586
aI76
aI5
aI616
aI362
aI578
aI158
aI187
aI238
aI341
aI346
aI562
aI648
aI251
aI635
aI449
aI125
aI604
aI26
aI9
aI577
aI208
aI355
aI58
aI581
aI11
aI641
aI46
aI141
aI386
aI514
aI498
aI20
aI394
aI462
aI461
aI301
aI647
aI537
aI373
aI585
aI4
aI37
aI211
aI260
aI16
aI69
aI216
aI439
aI497
aI32
aI488
aI425
aI164
aI426
aI645
aI494
aI503
aI288
aI256
aI254
aI105
aI629
aI368
aI90
aI471
aI448
aI296
aI541
aI119
aI227
aI79
aI545
aI257
aI352
aI114
aI35
aI564
aI369
aI479
aI199
aI452
aI348
aI124
aI135
aI434
aI572
aI354
aI406
aI605
aI431
aI393
aI285
aI565
aI317
aI287
aI500
aI145
aI116
aI113
aI523
aI400
aI188
aI411
aI247
aI130
aI507
aI602
aI224
aI485
aI93
aI378
aI73
aI29
aI117
aI313
aI221
aI620
aI31
aI311
aI209
aI182
aI127
aI610
aI267
aI596
aI10
aI654
aI521
aI60
aI140
aI533
aI467
aI561
aI96
aI384
aI359
aI442
aI262
aI460
aI631
aI95
aI601
aI83
aI279
aI458
aI87
aI383
aI272
aI98
aI613
aI312
aI607
aI122
aI447
aI205
aI365
aI522
aI171
aI28
aI499
aI220
aI155
aI246
aI234
aI436
aI546
aI233
aI250
aI136
aI390
aI160
aI475
aI280
aI593
aI324
aI520
aI571
aI332
aI360
aI443
aI389
aI134
aI181
aI197
aI78
aI263
aI86
aI415
aI206
aI298
aI120
aI23
aI599
aI506
aI381
aI154
aI294
aI45
aI245
aI375
aI100
aI609
aI637
aI103
aI560
aI42
aI551
aI104
aI284
aI591
aI51
aI308
aI515
aI517
aI553
aI235
aI430
aI555
aI163
aI508
aI167
aI603
aI271
aI651
aI505
aI270
aI487
aI297
aI65
aI326
aI536
aI583
aI548
aI286
aI273
aI395
aI22
aI147
aI300
aI129
aI343
aI416
aI454
aI587
aI315
aI281
aI342
aI275
aI490
aI468
aI331
aI319
aI531
aI292
aI126
aI446
aI589
aI218
aI282
aI621
aI102
aI380
aI91
aI143
aI305
aI68
aI472
aI144
aI303
aI421
aI559
aI212
aI57
aI403
aI0
aI455
aI493
aI557
aI177
aI244
aI237
aI123
aI463
aI385
aI453
aI225
aI382
aI118
aI94
aI151
aI149
aI569
aI387
aI600
aI2
aI328
aI243
aI207
aI435
aI289
aI291
aI534
aI444
aI480
aI157
aI15
aI512
aI115
aI179
aI532
aI223
aI268
aI636
aI85
aI612
aI242
aI405
aI525
aI190
aI653
aI217
aI582
aI450
aI639
aI121
aI590
aI371
aI549
aI74
aI88
aI441
aI592
aI466
aI330
aI261
aI264
aI33
aI519
aI524
aI153
aI161
aI344
aI159
aI501
aI111
aI12
aI259
aI21
aI412
aI338
aI306
aI67
aI38
aI304
aI552
aI137
aI356
aI316
aI496
aI340
aI396
aI486
aI650
aI249
aI469
aI236
aI554
aI265
aI231
aI162
aI347
aI367
aI518
aI213
aI40
aI142
aI433
aI112
aI228
aI465
aI230
aI210
aI278
aI445
aI72
aI30
aI492
aI194
aI370
aI146
aI414
aI17
aI133
aI511
aI49
aI252
aI539
aI409
aI321
aI110
aI363
aI302
aI530
aI44
aa(lp15
I500
aI287
aI432
aI311
aI408
aI175
aI316
aI251
aI255
aI438
aI512
aI351
aI104
aI124
aI117
aI465
aI176
aI320
aI562
aI466
aI52
aI116
aI590
aI581
aI29
aI173
aI495
aI389
aI625
aI322
aI134
aI533
aI528
aI493
aI604
aI628
aI549
aI349
aI350
aI78
aI451
aI532
aI429
aI324
aI398
aI20
aI522
aI21
aI159
aI224
aI323
aI343
aI369
aI501
aI113
aI282
aI143
aI367
aI80
aI112
aI304
aI167
aI187
aI55
aI132
aI334
aI191
aI242
aI288
aI360
aI461
aI599
aI138
aI130
aI35
aI233
aI442
aI614
aI559
aI377
aI502
aI359
aI387
aI332
aI485
aI348
aI375
aI49
aI339
aI630
aI83
aI313
aI341
aI318
aI641
aI401
aI37
aI48
aI275
aI583
aI361
aI371
aI164
aI517
aI82
aI235
aI573
aI182
aI435
aI477
aI77
aI256
aI10
aI156
aI243
aI547
aI554
aI79
aI32
aI119
aI135
aI624
aI418
aI165
aI492
aI172
aI12
aI619
aI290
aI121
aI216
aI642
aI392
aI9
aI281
aI373
aI100
aI463
aI504
aI476
aI531
aI523
aI582
aI505
aI576
aI289
aI212
aI395
aI327
aI186
aI382
aI592
aI184
aI623
aI637
aI403
aI245
aI208
aI139
aI185
aI491
aI19
aI478
aI206
aI521
aI253
aI229
aI74
aI123
aI620
aI86
aI221
aI8
aI231
aI264
aI564
aI162
aI413
aI3
aI449
aI356
aI174
aI479
aI577
aI483
aI399
aI455
aI310
aI595
aI441
aI269
aI404
aI223
aI633
aI534
aI228
aI425
aI396
aI503
aI197
aI141
aI263
aI338
aI654
aI394
aI126
aI539
aI537
aI276
aI558
aI118
aI279
aI372
aI198
aI629
aI436
aI7
aI347
aI530
aI608
aI142
aI146
aI136
aI107
aI274
aI365
aI241
aI585
aI0
aI653
aI326
aI397
aI524
aI462
aI28
aI446
aI292
aI76
aI293
aI239
aI535
aI509
aI17
aI39
aI440
aI514
aI543
aI47
aI53
aI563
aI566
aI601
aI65
aI602
aI166
aI88
aI220
aI2
aI610
aI183
aI309
aI295
aI62
aI612
aI81
aI45
aI646
aI643
aI234
aI647
aI115
aI330
aI345
aI519
aI421
aI529
aI202
aI447
aI210
aI43
aI246
aI518
aI424
aI578
aI171
aI626
aI128
aI179
aI450
aI420
aI552
aI409
aI64
aI484
aI278
aI374
aI11
aI305
aI480
aI145
aI211
aI129
aI102
aI200
aI469
aI569
aI434
aI496
aI497
aI237
aI557
aI218
aI627
aI22
aI588
aI298
aI240
aI472
aI31
aI155
aI272
aI415
aI456
aI140
aI249
aI362
aI419
aI414
aI571
aI640
aI215
aI225
aI433
aI464
aI364
aI301
aI75
aI570
aI603
aI315
aI286
aI90
aI25
aI285
aI594
aI337
aI94
aI448
aI66
aI444
aI91
aI93
aI335
aI248
aI106
aI307
aI385
aI553
aI120
aI384
aI321
aI331
aI357
aI615
aI217
aI342
aI587
aI445
aI262
aI205
aI591
aI453
aI344
aI600
aI133
aI230
aI56
aI516
aI67
aI103
aI426
aI177
aI613
aI363
aI584
aI443
aI381
aI306
aI336
aI510
aI161
aI238
aI499
aI291
aI580
aI105
aI266
aI618
aI6
aI473
aI567
aI34
aI407
aI277
aI261
aI427
aI423
aI468
aI265
aI232
aI13
aI54
aI283
aI481
aI148
aI69
aI606
aI498
aI73
aI632
aI333
aI540
aI72
aI114
aI280
aI644
aI598
aI506
aI33
aI586
aI42
aI193
aI358
aI24
aI648
aI85
aI386
aI158
aI312
aI70
aI189
aI568
aI98
aI147
aI544
aI259
aI589
aI410
aI538
aI36
aI638
aI84
aI63
aI59
aI199
aI127
aI474
aI297
aI635
aI108
aI4
aI284
aI572
aI296
aI110
aI51
aI508
aI23
aI170
aI152
aI460
aI482
aI204
aI319
aI46
aI406
aI470
aI68
aI244
aI416
aI137
aI15
aI163
aI97
aI593
aI92
aI636
aI299
aI649
aI383
aI196
aI178
aI370
aI122
aI328
aI489
aI650
aI99
aI329
aI555
aI402
aI194
aI639
aI271
aI44
aI226
aI380
aI192
aI294
aI430
aI267
aI181
aI355
aI607
aI270
aI58
aI651
aI417
aI201
aI353
aI379
aI556
aI302
aI457
aI257
aI57
aI548
aI144
aI254
aI16
aI41
aI575
aI545
aI550
aI354
aI190
aI89
aI536
aI526
aI27
aI222
aI400
aI30
aI574
aI38
aI422
aI513
aI393
aI60
aI621
aI149
aI169
aI125
aI247
aI207
aI597
aI454
aI18
aI611
aI151
aI87
aI366
aI153
aI154
aI579
aI250
aI437
aI490
aI213
aI546
aI260
aI631
aI219
aI131
aI303
aI340
aI652
aI268
aI452
aI511
aI71
aI61
aI236
aI391
aI317
aI542
aI160
aI494
aI1
aI50
aI368
aI459
aI486
aI109
aI475
aI325
aI203
aI617
aI346
aI605
aI258
aI561
aI645
aI26
aI388
aI157
aI527
aI352
aI96
aI467
aI439
aI622
aI405
aI111
aI314
aI227
aI390
aI515
aI596
aI209
aI487
aI609
aI412
aI565
aI376
aI507
aI95
aI5
aI378
aI40
aI431
aI634
aI541
aI273
aI560
aI180
aI520
aI150
aI214
aI616
aI195
aI168
aI300
aI308
aI14
aI551
aI428
aI188
aI411
aI101
aI525
aI252
aI471
aI488
aI458
aa(lp16
I474
aI199
aI2
aI517
aI426
aI251
aI147
aI528
aI59
aI133
aI375
aI206
aI613
aI449
aI484
aI436
aI637
aI49
aI631
aI346
aI154
aI431
aI471
aI278
aI606
aI359
aI166
aI134
aI304
aI115
aI76
aI174
aI244
aI256
aI151
aI102
aI644
aI418
aI213
aI514
aI592
aI336
aI370
aI205
aI22
aI275
aI223
aI427
aI573
aI155
aI612
aI52
aI598
aI599
aI472
aI156
aI289
aI554
aI266
aI541
aI305
aI15
aI365
aI367
aI143
aI54
aI400
aI32
aI294
aI600
aI63
aI211
aI641
aI208
aI47
aI86
aI253
aI384
aI438
aI389
aI507
aI141
aI229
aI465
aI138
aI94
aI413
aI44
aI643
aI260
aI480
aI119
aI395
aI479
aI521
aI625
aI182
aI422
aI617
aI610
aI311
aI203
aI329
aI276
aI523
aI14
aI434
aI635
aI394
aI139
aI629
aI495
aI639
aI364
aI249
aI121
aI535
aI419
aI459
aI425
aI653
aI580
aI3
aI6
aI565
aI247
aI648
aI566
aI374
aI410
aI145
aI552
aI544
aI5
aI216
aI406
aI265
aI36
aI568
aI343
aI176
aI267
aI246
aI109
aI593
aI90
aI10
aI159
aI582
aI33
aI53
aI212
aI361
aI355
aI461
aI98
aI439
aI46
aI444
aI628
aI16
aI525
aI545
aI1
aI318
aI50
aI167
aI113
aI344
aI537
aI51
aI543
aI650
aI493
aI353
aI75
aI468
aI362
aI295
aI64
aI232
aI623
aI191
aI66
aI108
aI330
aI555
aI589
aI570
aI402
aI88
aI35
aI129
aI104
aI316
aI286
aI283
aI89
aI187
aI30
aI433
aI500
aI123
aI252
aI274
aI150
aI358
aI28
aI309
aI634
aI538
aI99
aI351
aI447
aI303
aI158
aI186
aI81
aI489
aI526
aI13
aI392
aI301
aI240
aI73
aI45
aI428
aI181
aI396
aI193
aI298
aI386
aI327
aI227
aI335
aI279
aI475
aI455
aI194
aI586
aI619
aI122
aI412
aI322
aI259
aI296
aI72
aI563
aI314
aI614
aI315
aI608
aI624
aI116
aI636
aI605
aI546
aI333
aI68
aI642
aI78
aI581
aI130
aI486
aI214
aI163
aI559
aI381
aI352
aI408
aI611
aI331
aI136
aI414
aI519
aI92
aI424
aI254
aI372
aI334
aI510
aI350
aI111
aI576
aI477
aI403
aI180
aI237
aI250
aI255
aI127
aI345
aI29
aI356
aI140
aI195
aI532
aI587
aI567
aI126
aI124
aI452
aI377
aI572
aI430
aI387
aI363
aI373
aI621
aI160
aI74
aI383
aI562
aI437
aI550
aI209
aI491
aI97
aI131
aI647
aI404
aI499
aI148
aI442
aI574
aI651
aI107
aI77
aI646
aI338
aI476
aI407
aI210
aI239
aI585
aI445
aI399
aI188
aI80
aI11
aI192
aI503
aI597
aI198
aI553
aI575
aI379
aI185
aI173
aI70
aI197
aI469
aI82
aI382
aI602
aI357
aI101
aI509
aI411
aI231
aI583
aI594
aI458
aI633
aI149
aI560
aI368
aI531
aI340
aI4
aI416
aI226
aI558
aI164
aI326
aI588
aI321
aI215
aI539
aI446
aI118
aI177
aI20
aI596
aI571
aI84
aI371
aI551
aI228
aI533
aI435
aI441
aI285
aI62
aI292
aI470
aI291
aI415
aI457
aI37
aI112
aI201
aI420
aI202
aI325
aI654
aI542
aI310
aI524
aI56
aI114
aI95
aI142
aI609
aI225
aI342
aI67
aI319
aI630
aI450
aI39
aI376
aI128
aI626
aI409
aI366
aI530
aI548
aI393
aI505
aI497
aI162
aI584
aI518
aI9
aI125
aI241
aI398
aI153
aI65
aI320
aI38
aI220
aI258
aI616
aI245
aI494
aI536
aI502
aI277
aI146
aI60
aI69
aI463
aI152
aI324
aI456
aI462
aI440
aI348
aI385
aI284
aI105
aI61
aI448
aI604
aI26
aI217
aI490
aI238
aI0
aI57
aI281
aI280
aI349
aI622
aI578
aI288
aI504
aI230
aI207
aI264
aI204
aI287
aI87
aI645
aI233
aI218
aI443
aI31
aI306
aI178
aI313
aI501
aI34
aI323
aI58
aI168
aI620
aI481
aI513
aI561
aI577
aI328
aI556
aI103
aI221
aI547
aI527
aI21
aI297
aI337
aI341
aI421
aI42
aI549
aI564
aI312
aI17
aI557
aI71
aI117
aI137
aI540
aI96
aI272
aI190
aI467
aI607
aI23
aI175
aI429
aI48
aI332
aI482
aI299
aI27
aI270
aI354
aI515
aI516
aI464
aI219
aI100
aI347
aI106
aI615
aI498
aI282
aI401
aI508
aI222
aI485
aI55
aI483
aI339
aI234
aI172
aI492
aI640
aI120
aI235
aI473
aI93
aI184
aI522
aI18
aI24
aI652
aI317
aI632
aI380
aI512
aI242
aI189
aI171
aI388
aI638
aI40
aI601
aI590
aI165
aI569
aI423
aI460
aI170
aI302
aI506
aI269
aI390
aI591
aI649
aI85
aI293
aI271
aI300
aI157
aI579
aI487
aI511
aI520
aI454
aI144
aI360
aI290
aI183
aI43
aI25
aI224
aI618
aI110
aI243
aI308
aI41
aI432
aI391
aI529
aI200
aI488
aI534
aI627
aI236
aI405
aI453
aI196
aI262
aI417
aI8
aI451
aI169
aI397
aI19
aI132
aI7
aI378
aI135
aI257
aI307
aI248
aI91
aI369
aI261
aI478
aI603
aI179
aI12
aI496
aI79
aI273
aI263
aI595
aI268
aI466
aI83
aI161
aa(lp17
I338
aI537
aI635
aI516
aI525
aI244
aI560
aI226
aI291
aI96
aI425
aI313
aI320
aI407
aI241
aI562
aI80
aI164
aI148
aI206
aI84
aI607
aI285
aI478
aI298
aI165
aI125
aI185
aI289
aI161
aI428
aI623
aI594
aI367
aI368
aI413
aI100
aI214
aI477
aI339
aI373
aI254
aI87
aI469
aI342
aI288
aI133
aI627
aI207
aI484
aI333
aI644
aI652
aI74
aI177
aI493
aI491
aI576
aI446
aI138
aI582
aI216
aI610
aI540
aI120
aI497
aI600
aI13
aI534
aI601
aI192
aI587
aI403
aI464
aI305
aI463
aI50
aI170
aI523
aI208
aI437
aI487
aI231
aI105
aI401
aI303
aI390
aI315
aI20
aI64
aI197
aI412
aI372
aI628
aI532
aI455
aI351
aI126
aI490
aI536
aI345
aI52
aI98
aI266
aI109
aI228
aI238
aI212
aI432
aI423
aI237
aI495
aI24
aI504
aI255
aI397
aI426
aI466
aI308
aI12
aI252
aI22
aI512
aI439
aI31
aI453
aI263
aI505
aI460
aI347
aI159
aI189
aI365
aI323
aI556
aI356
aI235
aI239
aI93
aI530
aI324
aI329
aI420
aI492
aI234
aI227
aI474
aI636
aI452
aI180
aI311
aI552
aI35
aI442
aI37
aI8
aI513
aI106
aI415
aI468
aI267
aI57
aI278
aI387
aI28
aI182
aI515
aI558
aI297
aI563
aI612
aI615
aI322
aI19
aI82
aI137
aI233
aI10
aI542
aI272
aI462
aI383
aI304
aI569
aI616
aI357
aI124
aI85
aI352
aI604
aI518
aI648
aI211
aI457
aI152
aI250
aI242
aI331
aI1
aI220
aI354
aI458
aI405
aI122
aI130
aI645
aI380
aI456
aI143
aI11
aI25
aI475
aI632
aI391
aI217
aI59
aI394
aI438
aI236
aI360
aI480
aI561
aI200
aI449
aI40
aI283
aI489
aI108
aI526
aI287
aI290
aI424
aI577
aI314
aI535
aI517
aI341
aI514
aI603
aI259
aI541
aI393
aI465
aI578
aI318
aI115
aI295
aI386
aI245
aI16
aI421
aI257
aI589
aI203
aI575
aI543
aI388
aI511
aI181
aI45
aI510
aI335
aI34
aI132
aI408
aI229
aI548
aI498
aI29
aI294
aI49
aI485
aI602
aI396
aI221
aI14
aI127
aI121
aI566
aI114
aI606
aI619
aI583
aI129
aI157
aI184
aI545
aI205
aI637
aI422
aI499
aI179
aI625
aI5
aI18
aI204
aI369
aI246
aI116
aI186
aI240
aI32
aI631
aI430
aI467
aI325
aI183
aI642
aI69
aI316
aI222
aI276
aI521
aI618
aI546
aI284
aI275
aI15
aI0
aI167
aI520
aI111
aI81
aI199
aI79
aI4
aI482
aI538
aI187
aI472
aI334
aI280
aI622
aI104
aI54
aI435
aI142
aI107
aI158
aI431
aI551
aI33
aI366
aI404
aI411
aI350
aI306
aI166
aI247
aI48
aI400
aI340
aI348
aI38
aI209
aI409
aI406
aI389
aI65
aI392
aI243
aI95
aI123
aI638
aI282
aI144
aI358
aI218
aI63
aI649
aI2
aI476
aI573
aI46
aI378
aI198
aI643
aI639
aI154
aI293
aI571
aI547
aI580
aI585
aI149
aI43
aI279
aI230
aI309
aI418
aI559
aI588
aI68
aI448
aI155
aI173
aI321
aI553
aI310
aI75
aI141
aI72
aI21
aI361
aI544
aI251
aI101
aI496
aI202
aI191
aI402
aI567
aI473
aI621
aI17
aI317
aI382
aI328
aI377
aI215
aI581
aI614
aI312
aI488
aI264
aI362
aI355
aI269
aI626
aI225
aI554
aI36
aI94
aI172
aI605
aI139
aI385
aI258
aI433
aI178
aI444
aI83
aI118
aI374
aI364
aI219
aI232
aI76
aI506
aI195
aI44
aI145
aI654
aI529
aI479
aI508
aI265
aI630
aI641
aI599
aI156
aI62
aI3
aI41
aI481
aI555
aI445
aI260
aI595
aI78
aI440
aI501
aI71
aI527
aI395
aI557
aI30
aI502
aI584
aI300
aI483
aI344
aI140
aI528
aI375
aI429
aI647
aI268
aI66
aI249
aI163
aI296
aI169
aI27
aI384
aI519
aI9
aI193
aI223
aI103
aI570
aI336
aI117
aI613
aI486
aI568
aI135
aI441
aI509
aI337
aI419
aI131
aI42
aI134
aI434
aI102
aI359
aI564
aI417
aI503
aI53
aI500
aI651
aI363
aI522
aI190
aI640
aI292
aI447
aI650
aI88
aI371
aI281
aI73
aI598
aI224
aI319
aI97
aI624
aI646
aI168
aI565
aI410
aI399
aI381
aI592
aI162
aI633
aI113
aI398
aI256
aI524
aI39
aI494
aI92
aI261
aI61
aI471
aI160
aI151
aI188
aI271
aI343
aI590
aI299
aI629
aI454
aI346
aI531
aI596
aI273
aI6
aI253
aI90
aI349
aI427
aI443
aI136
aI248
aI153
aI550
aI262
aI414
aI194
aI459
aI196
aI572
aI609
aI55
aI174
aI60
aI593
aI634
aI533
aI608
aI86
aI277
aI379
aI574
aI146
aI539
aI370
aI617
aI301
aI119
aI579
aI461
aI327
aI147
aI210
aI286
aI586
aI58
aI51
aI26
aI89
aI56
aI620
aI67
aI353
aI47
aI70
aI549
aI274
aI330
aI201
aI171
aI591
aI23
aI450
aI326
aI507
aI91
aI128
aI470
aI597
aI7
aI110
aI653
aI176
aI213
aI451
aI611
aI332
aI416
aI436
aI77
aI307
aI99
aI376
aI112
aI150
aI175
aI302
aI270
aa(lp18
I45
aI295
aI620
aI222
aI289
aI454
aI142
aI203
aI99
aI524
aI365
aI61
aI58
aI453
aI583
aI205
aI112
aI247
aI146
aI649
aI193
aI389
aI303
aI433
aI191
aI278
aI579
aI236
aI371
aI7
aI632
aI592
aI316
aI207
aI29
aI311
aI400
aI270
aI515
aI176
aI107
aI258
aI15
aI246
aI373
aI216
aI194
aI351
aI617
aI428
aI19
aI503
aI464
aI474
aI186
aI181
aI177
aI625
aI588
aI183
aI85
aI297
aI43
aI21
aI590
aI563
aI72
aI502
aI55
aI339
aI553
aI614
aI290
aI356
aI121
aI624
aI256
aI13
aI460
aI190
aI257
aI232
aI643
aI162
aI403
aI239
aI254
aI122
aI437
aI77
aI309
aI580
aI401
aI220
aI506
aI574
aI469
aI610
aI348
aI451
aI548
aI558
aI352
aI609
aI131
aI245
aI483
aI593
aI430
aI573
aI458
aI429
aI263
aI143
aI543
aI59
aI227
aI560
aI197
aI622
aI189
aI537
aI252
aI192
aI380
aI355
aI426
aI315
aI274
aI173
aI47
aI95
aI284
aI253
aI384
aI273
aI118
aI320
aI633
aI603
aI337
aI34
aI559
aI567
aI492
aI425
aI224
aI461
aI25
aI615
aI53
aI327
aI641
aI228
aI138
aI111
aI125
aI144
aI230
aI282
aI496
aI322
aI2
aI482
aI343
aI101
aI345
aI286
aI132
aI456
aI17
aI472
aI618
aI114
aI342
aI73
aI600
aI44
aI314
aI187
aI164
aI82
aI88
aI413
aI494
aI67
aI374
aI584
aI605
aI226
aI28
aI359
aI416
aI527
aI126
aI294
aI611
aI158
aI39
aI398
aI182
aI292
aI569
aI204
aI512
aI60
aI330
aI394
aI92
aI30
aI57
aI50
aI54
aI56
aI436
aI299
aI4
aI565
aI167
aI235
aI209
aI362
aI375
aI195
aI233
aI421
aI395
aI367
aI76
aI215
aI14
aI638
aI110
aI363
aI11
aI463
aI74
aI238
aI5
aI328
aI455
aI33
aI113
aI200
aI102
aI301
aI161
aI409
aI219
aI448
aI251
aI383
aI536
aI358
aI422
aI298
aI241
aI547
aI267
aI427
aI535
aI175
aI379
aI571
aI386
aI441
aI178
aI589
aI48
aI595
aI411
aI556
aI370
aI616
aI509
aI261
aI493
aI332
aI141
aI124
aI168
aI170
aI575
aI585
aI552
aI79
aI476
aI152
aI242
aI16
aI148
aI650
aI272
aI268
aI271
aI449
aI636
aI507
aI568
aI447
aI518
aI166
aI179
aI31
aI402
aI545
aI424
aI262
aI587
aI534
aI642
aI323
aI432
aI635
aI572
aI621
aI269
aI500
aI255
aI6
aI184
aI366
aI623
aI32
aI133
aI123
aI217
aI81
aI89
aI555
aI387
aI276
aI237
aI349
aI87
aI240
aI218
aI265
aI602
aI100
aI120
aI137
aI198
aI117
aI604
aI466
aI317
aI486
aI201
aI404
aI231
aI279
aI163
aI38
aI581
aI598
aI49
aI90
aI385
aI329
aI648
aI280
aI199
aI52
aI174
aI439
aI305
aI361
aI285
aI244
aI596
aI12
aI65
aI357
aI628
aI520
aI302
aI9
aI391
aI465
aI308
aI467
aI64
aI27
aI582
aI608
aI531
aI23
aI293
aI159
aI84
aI528
aI594
aI35
aI115
aI489
aI109
aI360
aI505
aI130
aI544
aI136
aI275
aI634
aI452
aI397
aI129
aI513
aI381
aI10
aI221
aI70
aI319
aI499
aI196
aI346
aI18
aI399
aI419
aI171
aI40
aI80
aI334
aI119
aI501
aI283
aI260
aI325
aI140
aI243
aI442
aI406
aI626
aI484
aI491
aI376
aI211
aI418
aI46
aI210
aI532
aI225
aI652
aI156
aI414
aI202
aI415
aI313
aI288
aI147
aI8
aI517
aI71
aI91
aI134
aI108
aI103
aI651
aI431
aI481
aI335
aI423
aI368
aI98
aI304
aI165
aI105
aI653
aI586
aI26
aI326
aI41
aI554
aI169
aI561
aI408
aI213
aI214
aI354
aI644
aI479
aI324
aI287
aI538
aI523
aI410
aI321
aI281
aI377
aI3
aI94
aI645
aI150
aI248
aI607
aI637
aI445
aI318
aI20
aI459
aI510
aI457
aI495
aI333
aI160
aI438
aI480
aI627
aI62
aI372
aI417
aI407
aI336
aI613
aI69
aI578
aI154
aI446
aI306
aI473
aI551
aI487
aI331
aI647
aI185
aI208
aI522
aI369
aI42
aI557
aI78
aI549
aI477
aI566
aI223
aI490
aI564
aI37
aI468
aI340
aI570
aI529
aI525
aI471
aI266
aI392
aI116
aI521
aI353
aI631
aI435
aI151
aI51
aI149
aI629
aI533
aI135
aI104
aI172
aI63
aI511
aI393
aI75
aI0
aI485
aI300
aI382
aI601
aI307
aI347
aI157
aI350
aI562
aI1
aI264
aI639
aI229
aI396
aI619
aI364
aI106
aI212
aI277
aI338
aI96
aI127
aI390
aI388
aI475
aI630
aI341
aI68
aI234
aI153
aI646
aI470
aI378
aI296
aI259
aI444
aI22
aI514
aI550
aI541
aI599
aI462
aI83
aI128
aI86
aI434
aI508
aI139
aI640
aI478
aI206
aI612
aI412
aI249
aI312
aI310
aI606
aI450
aI497
aI93
aI145
aI546
aI542
aI519
aI250
aI654
aI97
aI443
aI36
aI530
aI488
aI155
aI440
aI498
aI180
aI66
aI526
aI591
aI576
aI344
aI24
aI539
aI597
aI516
aI405
aI540
aI291
aI188
aI504
aI577
aI420
aa(lp19
I178
aI157
aI575
aI233
aI405
aI47
aI246
aI187
aI10
aI449
aI542
aI535
aI387
aI286
aI231
aI256
aI587
aI452
aI214
aI228
aI402
aI61
aI597
aI120
aI335
aI194
aI38
aI537
aI258
aI200
aI604
aI133
aI620
aI454
aI355
aI327
aI475
aI70
aI114
aI98
aI608
aI565
aI25
aI446
aI416
aI204
aI588
aI570
aI33
aI354
aI385
aI126
aI170
aI562
aI547
aI640
aI344
aI66
aI586
aI208
aI447
aI119
aI349
aI85
aI362
aI124
aI420
aI235
aI199
aI519
aI11
aI15
aI488
aI76
aI102
aI122
aI330
aI307
aI166
aI384
aI306
aI595
aI345
aI403
aI635
aI472
aI55
aI72
aI376
aI261
aI117
aI529
aI639
aI41
aI499
aI521
aI143
aI63
aI73
aI556
aI129
aI506
aI132
aI312
aI142
aI113
aI625
aI303
aI234
aI145
aI536
aI302
aI504
aI115
aI605
aI78
aI257
aI628
aI520
aI439
aI369
aI437
aI485
aI642
aI29
aI435
aI577
aI285
aI422
aI615
aI503
aI514
aI130
aI50
aI347
aI218
aI271
aI440
aI109
aI186
aI173
aI237
aI160
aI649
aI498
aI251
aI201
aI222
aI112
aI144
aI394
aI108
aI315
aI457
aI56
aI52
aI448
aI652
aI590
aI221
aI373
aI275
aI320
aI121
aI389
aI641
aI74
aI288
aI230
aI501
aI645
aI317
aI297
aI318
aI148
aI240
aI54
aI225
aI510
aI40
aI153
aI462
aI34
aI255
aI88
aI292
aI53
aI13
aI617
aI493
aI637
aI18
aI161
aI395
aI57
aI140
aI328
aI650
aI473
aI290
aI154
aI550
aI401
aI131
aI118
aI509
aI483
aI206
aI413
aI557
aI26
aI379
aI103
aI150
aI247
aI430
aI62
aI321
aI601
aI149
aI51
aI32
aI179
aI19
aI365
aI522
aI134
aI541
aI418
aI326
aI249
aI269
aI278
aI60
aI267
aI636
aI81
aI505
aI139
aI512
aI333
aI451
aI332
aI45
aI589
aI36
aI479
aI167
aI96
aI491
aI175
aI248
aI210
aI331
aI181
aI314
aI626
aI598
aI528
aI568
aI163
aI609
aI338
aI525
aI391
aI612
aI356
aI116
aI264
aI284
aI101
aI128
aI421
aI599
aI2
aI361
aI22
aI105
aI281
aI90
aI168
aI289
aI87
aI352
aI191
aI431
aI631
aI141
aI299
aI30
aI644
aI146
aI392
aI616
aI339
aI59
aI470
aI174
aI8
aI325
aI442
aI458
aI207
aI576
aI106
aI272
aI551
aI252
aI407
aI630
aI188
aI460
aI125
aI265
aI37
aI390
aI500
aI569
aI158
aI428
aI274
aI553
aI409
aI291
aI511
aI559
aI382
aI400
aI189
aI619
aI607
aI377
aI489
aI466
aI647
aI27
aI629
aI213
aI648
aI574
aI9
aI613
aI381
aI372
aI497
aI532
aI241
aI104
aI502
aI94
aI350
aI20
aI100
aI46
aI427
aI217
aI623
aI4
aI43
aI268
aI632
aI35
aI600
aI602
aI245
aI533
aI654
aI177
aI432
aI6
aI476
aI461
aI196
aI316
aI184
aI524
aI298
aI558
aI523
aI224
aI244
aI287
aI638
aI453
aI329
aI301
aI424
aI538
aI17
aI64
aI195
aI622
aI28
aI313
aI239
aI436
aI273
aI280
aI296
aI386
aI596
aI71
aI438
aI205
aI21
aI526
aI353
aI324
aI366
aI643
aI259
aI545
aI343
aI155
aI516
aI304
aI42
aI540
aI12
aI539
aI564
aI243
aI578
aI283
aI0
aI406
aI7
aI544
aI486
aI455
aI342
aI93
aI270
aI165
aI136
aI566
aI351
aI563
aI621
aI68
aI396
aI549
aI358
aI433
aI300
aI311
aI3
aI31
aI425
aI322
aI282
aI495
aI445
aI83
aI477
aI417
aI24
aI295
aI561
aI378
aI490
aI337
aI197
aI111
aI531
aI279
aI276
aI39
aI380
aI84
aI308
aI293
aI183
aI135
aI459
aI624
aI75
aI1
aI226
aI474
aI223
aI651
aI444
aI242
aI357
aI364
aI464
aI263
aI14
aI147
aI614
aI220
aI398
aI340
aI215
aI67
aI594
aI77
aI216
aI260
aI408
aI560
aI585
aI441
aI513
aI492
aI182
aI471
aI456
aI23
aI152
aI227
aI138
aI359
aI348
aI336
aI494
aI65
aI546
aI573
aI82
aI236
aI172
aI419
aI164
aI192
aI374
aI319
aI552
aI159
aI579
aI611
aI399
aI404
aI414
aI554
aI482
aI468
aI151
aI123
aI517
aI363
aI92
aI193
aI367
aI203
aI443
aI388
aI411
aI592
aI429
aI543
aI110
aI584
aI581
aI79
aI591
aI508
aI49
aI309
aI198
aI334
aI410
aI487
aI341
aI606
aI5
aI86
aI478
aI250
aI171
aI253
aI633
aI463
aI467
aI370
aI593
aI211
aI97
aI254
aI169
aI426
aI555
aI534
aI480
aI646
aI397
aI107
aI44
aI465
aI91
aI515
aI137
aI310
aI305
aI634
aI95
aI580
aI360
aI346
aI518
aI69
aI185
aI383
aI48
aI80
aI567
aI162
aI294
aI127
aI571
aI423
aI219
aI481
aI583
aI156
aI469
aI375
aI209
aI412
aI618
aI232
aI415
aI450
aI266
aI393
aI653
aI229
aI627
aI238
aI368
aI530
aI212
aI582
aI190
aI180
aI262
aI202
aI16
aI507
aI610
aI277
aI484
aI434
aI548
aI89
aI496
aI572
aI176
aI527
aI603
aI58
aI323
aI371
aI99
aa(lp20
I57
aI496
aI541
aI38
aI90
aI530
aI534
aI542
aI424
aI300
aI283
aI567
aI181
aI256
aI117
aI641
aI155
aI105
aI299
aI78
aI506
aI211
aI318
aI434
aI458
aI413
aI450
aI165
aI286
aI17
aI176
aI83
aI442
aI631
aI238
aI380
aI73
aI421
aI48
aI28
aI143
aI123
aI200
aI484
aI303
aI372
aI282
aI532
aI88
aI615
aI390
aI250
aI317
aI456
aI1
aI63
aI365
aI539
aI271
aI100
aI374
aI311
aI31
aI111
aI376
aI249
aI329
aI295
aI439
aI127
aI396
aI561
aI535
aI432
aI202
aI236
aI229
aI224
aI383
aI267
aI175
aI96
aI99
aI645
aI394
aI498
aI189
aI507
aI560
aI198
aI580
aI551
aI371
aI43
aI158
aI324
aI400
aI605
aI141
aI633
aI71
aI254
aI335
aI74
aI149
aI120
aI292
aI630
aI260
aI244
aI409
aI310
aI148
aI239
aI284
aI180
aI167
aI91
aI563
aI503
aI255
aI610
aI291
aI10
aI640
aI574
aI436
aI293
aI635
aI19
aI150
aI253
aI7
aI402
aI54
aI128
aI475
aI620
aI65
aI280
aI499
aI104
aI646
aI382
aI314
aI430
aI408
aI164
aI529
aI465
aI125
aI277
aI518
aI624
aI3
aI637
aI463
aI508
aI103
aI644
aI84
aI298
aI440
aI262
aI12
aI179
aI582
aI131
aI653
aI89
aI136
aI186
aI391
aI647
aI337
aI112
aI288
aI552
aI234
aI24
aI406
aI443
aI601
aI313
aI273
aI27
aI287
aI9
aI326
aI405
aI346
aI172
aI648
aI349
aI407
aI568
aI504
aI538
aI94
aI587
aI321
aI393
aI119
aI274
aI153
aI414
aI401
aI232
aI190
aI583
aI595
aI521
aI301
aI512
aI469
aI223
aI269
aI142
aI305
aI441
aI501
aI134
aI322
aI121
aI86
aI145
aI572
aI183
aI184
aI366
aI500
aI36
aI207
aI558
aI39
aI497
aI435
aI617
aI15
aI540
aI533
aI483
aI618
aI30
aI581
aI525
aI192
aI316
aI60
aI154
aI375
aI226
aI264
aI79
aI373
aI387
aI426
aI522
aI163
aI173
aI323
aI517
aI607
aI575
aI64
aI473
aI609
aI62
aI333
aI330
aI482
aI285
aI258
aI297
aI45
aI182
aI5
aI110
aI428
aI357
aI4
aI196
aI494
aI378
aI379
aI139
aI263
aI642
aI509
aI471
aI248
aI201
aI643
aI614
aI70
aI513
aI628
aI213
aI593
aI2
aI210
aI18
aI553
aI594
aI415
aI480
aI369
aI416
aI457
aI235
aI41
aI219
aI336
aI162
aI66
aI570
aI651
aI589
aI412
aI25
aI398
aI389
aI152
aI268
aI634
aI550
aI564
aI124
aI20
aI571
aI237
aI410
aI332
aI491
aI227
aI166
aI98
aI358
aI320
aI352
aI621
aI129
aI613
aI606
aI425
aI423
aI397
aI519
aI109
aI76
aI559
aI275
aI348
aI461
aI654
aI359
aI585
aI203
aI388
aI308
aI278
aI132
aI592
aI578
aI122
aI599
aI59
aI562
aI431
aI537
aI603
aI355
aI622
aI597
aI296
aI429
aI546
aI50
aI325
aI194
aI636
aI448
aI623
aI191
aI11
aI479
aI515
aI204
aI276
aI611
aI29
aI116
aI222
aI137
aI485
aI516
aI356
aI444
aI468
aI384
aI247
aI472
aI528
aI281
aI55
aI22
aI261
aI118
aI21
aI51
aI464
aI319
aI531
aI459
aI77
aI289
aI177
aI638
aI345
aI26
aI466
aI495
aI195
aI399
aI338
aI193
aI161
aI486
aI107
aI527
aI214
aI135
aI536
aI312
aI344
aI108
aI33
aI199
aI133
aI381
aI97
aI549
aI341
aI632
aI437
aI138
aI68
aI370
aI174
aI58
aI266
aI290
aI524
aI218
aI590
aI208
aI240
aI241
aI422
aI626
aI328
aI228
aI449
aI417
aI178
aI113
aI395
aI353
aI171
aI49
aI591
aI455
aI272
aI511
aI488
aI205
aI351
aI23
aI251
aI309
aI327
aI392
aI493
aI35
aI81
aI168
aI114
aI220
aI555
aI520
aI82
aI354
aI545
aI206
aI478
aI367
aI579
aI140
aI438
aI221
aI588
aI185
aI69
aI490
aI576
aI67
aI279
aI130
aI215
aI451
aI243
aI385
aI573
aI217
aI446
aI554
aI53
aI246
aI404
aI216
aI474
aI639
aI101
aI470
aI649
aI510
aI0
aI577
aI543
aI343
aI257
aI454
aI477
aI502
aI514
aI492
aI602
aI13
aI157
aI252
aI625
aI462
aI32
aI363
aI146
aI447
aI565
aI331
aI169
aI95
aI209
aI16
aI556
aI115
aI44
aI242
aI334
aI627
aI52
aI233
aI265
aI245
aI47
aI87
aI342
aI230
aI418
aI315
aI523
aI411
aI294
aI569
aI126
aI270
aI46
aI433
aI307
aI302
aI159
aI187
aI476
aI460
aI598
aI304
aI102
aI629
aI453
aI40
aI600
aI34
aI197
aI619
aI586
aI350
aI42
aI8
aI361
aI526
aI72
aI362
aI160
aI652
aI489
aI188
aI467
aI445
aI650
aI144
aI93
aI420
aI151
aI85
aI612
aI339
aI427
aI170
aI419
aI386
aI6
aI37
aI548
aI584
aI596
aI403
aI364
aI557
aI156
aI14
aI604
aI481
aI259
aI92
aI147
aI306
aI106
aI377
aI616
aI547
aI608
aI231
aI452
aI368
aI225
aI75
aI61
aI347
aI487
aI544
aI340
aI56
aI505
aI566
aI80
aI212
aI360
aa.