(lp0
(lp1
I271
aI102
aI336
aI3
aI51
aI161
aI125
aI132
aI362
aI219
aI380
aI385
aI306
aI66
aI256
aI381
aI82
aI315
aI229
aI349
aI118
aI174
aI323
aI275
aI131
aI158
aI337
aI247
aI141
aI311
aI324
aI24
aI243
aI162
aI60
aI421
aI169
aI140
aI419
aI78
aI326
aI249
aI414
aI413
aI17
aI298
aI116
aI115
aI252
aI35
aI331
aI358
aI213
aI19
aI151
aI54
aI218
aI278
aI196
aI5
aI282
aI364
aI91
aI176
aI223
aI160
aI157
aI412
aI44
aI99
aI212
aI384
aI137
aI238
aI393
aI401
aI32
aI348
aI47
aI292
aI134
aI33
aI291
aI253
aI235
aI359
aI316
aI351
aI224
aI22
aI346
aI250
aI341
aI133
aI303
aI49
aI67
aI396
aI172
aI27
aI13
aI198
aI370
aI355
aI386
aI194
aI184
aI389
aI302
aI289
aI123
aI366
aI310
aI167
aI403
aI387
aI217
aI261
aI231
aI146
aI4
aI45
aI92
aI239
aI193
aI178
aI199
aI182
aI30
aI86
aI245
aI371
aI154
aI382
aI283
aI314
aI59
aI113
aI262
aI203
aI70
aI61
aI50
aI248
aI105
aI71
aI96
aI415
aI321
aI85
aI149
aI305
aI230
aI395
aI52
aI258
aI68
aI63
aI166
aI263
aI407
aI272
aI100
aI273
aI399
aI377
aI233
aI373
aI274
aI152
aI241
aI225
aI108
aI378
aI191
aI143
aI23
aI81
aI29
aI164
aI392
aI307
aI408
aI111
aI296
aI120
aI204
aI6
aI280
aI197
aI276
aI402
aI138
aI114
aI227
aI221
aI109
aI365
aI334
aI352
aI268
aI201
aI69
aI354
aI211
aI220
aI327
aI55
aI189
aI309
aI318
aI98
aI183
aI330
aI175
aI297
aI244
aI209
aI335
aI328
aI360
aI40
aI168
aI317
aI369
aI130
aI16
aI375
aI186
aI361
aI75
aI368
aI251
aI124
aI187
aI34
aI156
aI101
aI266
aI325
aI144
aI46
aI126
aI286
aI340
aI397
aI15
aI265
aI57
aI73
aI136
aI308
aI155
aI104
aI322
aI290
aI313
aI148
aI418
aI300
aI93
aI422
aI145
aI210
aI232
aI127
aI9
aI42
aI173
aI287
aI180
aI338
aI301
aI391
aI56
aI246
aI269
aI279
aI90
aI128
aI284
aI177
aI206
aI107
aI21
aI39
aI214
aI48
aI367
aI357
aI12
aI77
aI254
aI293
aI205
aI74
aI222
aI110
aI25
aI41
aI356
aI411
aI208
aI88
aI139
aI58
aI363
aI31
aI14
aI264
aI236
aI228
aI117
aI242
aI394
aI53
aI121
aI87
aI179
aI64
aI76
aI192
aI43
aI36
aI376
aI202
aI165
aI320
aI112
aI406
aI1
aI285
aI398
aI207
aI390
aI89
aI94
aI0
aI28
aI257
aI288
aI171
aI10
aI294
aI190
aI83
aI103
aI416
aI342
aI122
aI410
aI188
aI84
aI299
aI106
aI80
aI347
aI332
aI267
aI185
aI343
aI95
aI79
aI181
aI345
aI344
aI295
aI150
aI142
aI277
aI226
aI97
aI374
aI170
aI153
aI200
aI65
aI388
aI163
aI20
aI237
aI379
aI8
aI135
aI72
aI260
aI333
aI240
aI38
aI350
aI372
aI404
aI62
aI18
aI11
aI270
aI281
aI7
aI319
aI329
aI215
aI255
aI383
aI259
aI405
aI409
aI339
aI304
aI400
aI234
aI37
aI26
aI119
aI312
aI129
aI420
aI417
aI353
aI147
aI159
aI195
aI2
aI216
aa(lp2
I336
aI11
aI59
aI30
aI216
aI223
aI324
aI32
aI54
aI306
aI21
aI179
aI106
aI408
aI299
aI87
aI200
aI375
aI201
aI114
aI5
aI34
aI191
aI314
aI297
aI9
aI73
aI397
aI284
aI175
aI310
aI400
aI248
aI334
aI280
aI227
aI27
aI230
aI240
aI333
aI50
aI17
aI254
aI156
aI251
aI97
aI55
aI68
aI24
aI198
aI268
aI146
aI124
aI205
aI211
aI113
aI65
aI346
aI224
aI356
aI20
aI217
aI219
aI181
aI149
aI148
aI85
aI261
aI335
aI190
aI235
aI298
aI277
aI380
aI103
aI117
aI169
aI162
aI194
aI308
aI394
aI19
aI393
aI214
aI301
aI412
aI421
aI403
aI259
aI75
aI127
aI290
aI15
aI138
aI136
aI109
aI212
aI104
aI78
aI178
aI147
aI221
aI29
aI292
aI368
aI269
aI231
aI206
aI39
aI361
aI222
aI295
aI232
aI256
aI145
aI150
aI134
aI56
aI52
aI388
aI72
aI203
aI160
aI270
aI407
aI304
aI116
aI22
aI218
aI184
aI107
aI155
aI153
aI45
aI99
aI204
aI64
aI272
aI247
aI420
aI303
aI377
aI115
aI273
aI286
aI89
aI300
aI151
aI255
aI36
aI313
aI360
aI10
aI25
aI338
aI379
aI57
aI287
aI327
aI176
aI410
aI352
aI347
aI343
aI411
aI418
aI209
aI172
aI282
aI229
aI142
aI199
aI60
aI364
aI53
aI321
aI108
aI140
aI43
aI323
aI47
aI369
aI49
aI159
aI312
aI31
aI122
aI208
aI63
aI406
aI404
aI363
aI362
aI241
aI193
aI353
aI86
aI100
aI187
aI246
aI402
aI383
aI92
aI173
aI139
aI62
aI137
aI46
aI101
aI401
aI257
aI289
aI197
aI283
aI6
aI196
aI294
aI366
aI69
aI253
aI183
aI35
aI329
aI330
aI37
aI82
aI234
aI94
aI213
aI354
aI84
aI405
aI102
aI96
aI14
aI121
aI202
aI33
aI112
aI166
aI174
aI305
aI285
aI243
aI413
aI167
aI128
aI378
aI7
aI74
aI210
aI398
aI91
aI249
aI367
aI250
aI1
aI152
aI320
aI133
aI215
aI186
aI332
aI135
aI331
aI220
aI168
aI93
aI281
aI279
aI325
aI260
aI358
aI180
aI8
aI185
aI48
aI316
aI326
aI131
aI390
aI182
aI302
aI344
aI238
aI357
aI171
aI70
aI123
aI38
aI258
aI51
aI77
aI83
aI233
aI130
aI307
aI396
aI264
aI226
aI88
aI252
aI132
aI267
aI339
aI66
aI291
aI384
aI244
aI16
aI177
aI26
aI144
aI58
aI322
aI95
aI163
aI40
aI274
aI42
aI141
aI12
aI288
aI422
aI409
aI392
aI28
aI317
aI164
aI365
aI319
aI348
aI81
aI315
aI417
aI245
aI276
aI416
aI110
aI389
aI341
aI328
aI318
aI126
aI265
aI374
aI242
aI158
aI189
aI3
aI293
aI118
aI342
aI170
aI371
aI120
aI399
aI4
aI376
aI0
aI387
aI419
aI239
aI76
aI262
aI263
aI23
aI370
aI266
aI71
aI228
aI237
aI98
aI395
aI105
aI61
aI275
aI79
aI309
aI125
aI129
aI278
aI373
aI161
aI154
aI386
aI350
aI415
aI337
aI157
aI165
aI311
aI236
aI225
aI340
aI192
aI414
aI391
aI67
aI111
aI143
aI188
aI271
aI372
aI359
aI119
aI41
aI2
aI90
aI13
aI355
aI296
aI207
aI195
aI18
aI349
aI351
aI44
aI80
aI345
aI385
aI381
aI382
aa(lp3
I172
aI256
aI415
aI400
aI234
aI87
aI62
aI327
aI413
aI323
aI337
aI9
aI32
aI395
aI223
aI316
aI186
aI379
aI170
aI147
aI30
aI80
aI140
aI43
aI4
aI346
aI195
aI196
aI388
aI171
aI210
aI178
aI403
aI67
aI330
aI410
aI292
aI408
aI59
aI233
aI122
aI21
aI93
aI302
aI16
aI91
aI153
aI159
aI24
aI279
aI60
aI303
aI349
aI5
aI42
aI407
aI348
aI274
aI409
aI383
aI116
aI272
aI124
aI377
aI206
aI135
aI401
aI402
aI310
aI76
aI81
aI121
aI201
aI295
aI258
aI347
aI385
aI396
aI331
aI72
aI250
aI386
aI200
aI120
aI128
aI29
aI1
aI34
aI280
aI227
aI271
aI222
aI366
aI405
aI202
aI412
aI75
aI232
aI194
aI392
aI308
aI112
aI164
aI173
aI38
aI324
aI41
aI70
aI289
aI281
aI115
aI353
aI275
aI296
aI141
aI110
aI157
aI119
aI361
aI28
aI198
aI314
aI190
aI230
aI389
aI19
aI165
aI180
aI84
aI387
aI132
aI209
aI55
aI375
aI351
aI85
aI261
aI249
aI96
aI368
aI235
aI419
aI8
aI336
aI254
aI311
aI286
aI199
aI54
aI224
aI66
aI101
aI106
aI332
aI278
aI10
aI267
aI77
aI68
aI33
aI277
aI288
aI266
aI192
aI363
aI139
aI411
aI365
aI333
aI27
aI231
aI13
aI326
aI339
aI83
aI129
aI370
aI174
aI31
aI166
aI236
aI73
aI376
aI300
aI355
aI398
aI53
aI40
aI246
aI418
aI342
aI245
aI264
aI47
aI11
aI315
aI185
aI46
aI371
aI0
aI320
aI12
aI220
aI253
aI306
aI284
aI287
aI131
aI191
aI240
aI104
aI397
aI158
aI3
aI97
aI378
aI393
aI313
aI138
aI94
aI117
aI350
aI35
aI105
aI242
aI243
aI182
aI134
aI52
aI183
aI406
aI373
aI291
aI56
aI219
aI137
aI298
aI184
aI259
aI169
aI145
aI269
aI338
aI193
aI374
aI175
aI345
aI417
aI98
aI167
aI45
aI144
aI160
aI358
aI113
aI360
aI381
aI69
aI100
aI404
aI273
aI88
aI44
aI317
aI64
aI364
aI118
aI399
aI321
aI95
aI357
aI312
aI123
aI49
aI225
aI146
aI150
aI136
aI151
aI334
aI181
aI78
aI79
aI177
aI197
aI362
aI203
aI309
aI14
aI257
aI154
aI335
aI103
aI6
aI25
aI380
aI204
aI218
aI244
aI213
aI168
aI282
aI74
aI126
aI207
aI65
aI58
aI37
aI352
aI51
aI251
aI344
aI155
aI248
aI297
aI319
aI341
aI372
aI325
aI212
aI89
aI23
aI99
aI239
aI283
aI221
aI294
aI304
aI163
aI211
aI187
aI92
aI414
aI39
aI205
aI161
aI17
aI36
aI2
aI394
aI82
aI228
aI238
aI247
aI216
aI189
aI252
aI208
aI382
aI329
aI369
aI305
aI57
aI107
aI285
aI50
aI48
aI390
aI15
aI22
aI176
aI63
aI328
aI340
aI20
aI290
aI152
aI90
aI265
aI130
aI215
aI422
aI148
aI367
aI420
aI255
aI276
aI108
aI237
aI18
aI307
aI26
aI263
aI156
aI299
aI354
aI293
aI322
aI149
aI268
aI102
aI241
aI179
aI127
aI260
aI71
aI86
aI359
aI125
aI188
aI391
aI421
aI384
aI111
aI318
aI226
aI270
aI109
aI142
aI61
aI229
aI416
aI162
aI214
aI262
aI301
aI114
aI343
aI7
aI143
aI133
aI356
aI217
aa(lp4
I41
aI186
aI25
aI138
aI231
aI374
aI197
aI109
aI101
aI162
aI416
aI330
aI372
aI133
aI227
aI234
aI9
aI170
aI114
aI332
aI188
aI89
aI85
aI211
aI362
aI164
aI268
aI373
aI7
aI290
aI337
aI327
aI267
aI70
aI16
aI403
aI365
aI69
aI269
aI80
aI165
aI142
aI272
aI97
aI107
aI147
aI98
aI150
aI249
aI421
aI358
aI93
aI303
aI31
aI112
aI242
aI222
aI206
aI261
aI282
aI115
aI136
aI127
aI172
aI135
aI349
aI74
aI214
aI102
aI117
aI181
aI42
aI367
aI39
aI292
aI226
aI420
aI280
aI223
aI75
aI200
aI44
aI255
aI348
aI124
aI15
aI262
aI60
aI350
aI383
aI314
aI297
aI398
aI413
aI194
aI275
aI277
aI198
aI422
aI62
aI57
aI338
aI20
aI355
aI6
aI325
aI87
aI382
aI201
aI304
aI310
aI254
aI177
aI13
aI128
aI175
aI396
aI278
aI190
aI54
aI152
aI59
aI384
aI8
aI27
aI408
aI84
aI90
aI167
aI237
aI417
aI298
aI393
aI36
aI157
aI230
aI2
aI169
aI270
aI63
aI404
aI183
aI284
aI113
aI0
aI286
aI294
aI158
aI361
aI353
aI285
aI260
aI19
aI72
aI288
aI96
aI116
aI68
aI369
aI192
aI266
aI65
aI215
aI311
aI4
aI229
aI345
aI156
aI46
aI37
aI391
aI381
aI293
aI415
aI12
aI5
aI14
aI151
aI38
aI52
aI29
aI103
aI40
aI418
aI56
aI224
aI155
aI179
aI305
aI119
aI307
aI335
aI340
aI47
aI21
aI341
aI360
aI347
aI213
aI43
aI287
aI3
aI377
aI121
aI342
aI225
aI357
aI187
aI61
aI79
aI35
aI344
aI143
aI371
aI378
aI130
aI216
aI299
aI244
aI321
aI94
aI108
aI196
aI407
aI308
aI276
aI67
aI185
aI271
aI82
aI301
aI405
aI191
aI359
aI302
aI110
aI26
aI258
aI273
aI140
aI250
aI388
aI73
aI354
aI218
aI92
aI34
aI33
aI252
aI387
aI77
aI134
aI83
aI168
aI236
aI380
aI126
aI309
aI316
aI91
aI233
aI123
aI389
aI317
aI28
aI319
aI149
aI300
aI257
aI320
aI240
aI219
aI412
aI264
aI106
aI86
aI171
aI204
aI189
aI122
aI331
aI71
aI356
aI289
aI409
aI76
aI146
aI95
aI18
aI1
aI329
aI402
aI346
aI323
aI207
aI17
aI364
aI397
aI379
aI139
aI336
aI202
aI212
aI410
aI228
aI184
aI351
aI334
aI55
aI45
aI283
aI235
aI10
aI279
aI339
aI375
aI366
aI232
aI132
aI178
aI203
aI385
aI259
aI174
aI315
aI368
aI173
aI131
aI247
aI245
aI32
aI243
aI209
aI111
aI256
aI251
aI263
aI153
aI406
aI306
aI125
aI414
aI221
aI241
aI326
aI253
aI370
aI394
aI312
aI129
aI265
aI248
aI333
aI176
aI100
aI120
aI205
aI78
aI180
aI328
aI23
aI220
aI49
aI246
aI274
aI137
aI295
aI386
aI58
aI400
aI53
aI161
aI141
aI99
aI395
aI24
aI48
aI159
aI208
aI163
aI66
aI22
aI217
aI399
aI210
aI144
aI148
aI239
aI160
aI411
aI50
aI193
aI352
aI182
aI105
aI238
aI195
aI145
aI296
aI199
aI118
aI419
aI166
aI322
aI324
aI392
aI88
aI281
aI313
aI11
aI51
aI30
aI104
aI291
aI401
aI154
aI64
aI81
aI343
aI318
aI390
aI363
aI376
aa(lp5
I254
aI322
aI82
aI250
aI91
aI414
aI399
aI5
aI326
aI278
aI346
aI165
aI39
aI243
aI265
aI352
aI360
aI111
aI135
aI306
aI106
aI210
aI403
aI126
aI208
aI304
aI269
aI404
aI32
aI55
aI81
aI159
aI324
aI193
aI152
aI15
aI139
aI168
aI142
aI353
aI101
aI416
aI149
aI396
aI305
aI378
aI312
aI237
aI226
aI158
aI228
aI264
aI366
aI339
aI146
aI310
aI124
aI377
aI262
aI25
aI77
aI287
aI375
aI313
aI294
aI239
aI365
aI321
aI88
aI334
aI261
aI315
aI380
aI258
aI186
aI190
aI71
aI297
aI80
aI67
aI318
aI205
aI12
aI299
aI392
aI76
aI419
aI83
aI54
aI10
aI253
aI179
aI331
aI371
aI302
aI376
aI43
aI349
aI323
aI204
aI181
aI422
aI20
aI270
aI420
aI103
aI93
aI240
aI84
aI303
aI64
aI96
aI347
aI2
aI136
aI134
aI308
aI212
aI325
aI87
aI33
aI214
aI144
aI140
aI191
aI206
aI229
aI401
aI195
aI231
aI17
aI92
aI200
aI97
aI187
aI234
aI164
aI330
aI21
aI224
aI130
aI27
aI379
aI40
aI123
aI391
aI296
aI16
aI74
aI108
aI156
aI314
aI213
aI52
aI402
aI415
aI293
aI348
aI280
aI183
aI128
aI150
aI364
aI127
aI372
aI61
aI203
aI155
aI45
aI409
aI354
aI344
aI143
aI170
aI288
aI335
aI357
aI257
aI120
aI275
aI201
aI333
aI7
aI107
aI309
aI197
aI358
aI383
aI160
aI36
aI274
aI277
aI307
aI26
aI361
aI22
aI249
aI282
aI374
aI263
aI102
aI141
aI114
aI273
aI100
aI395
aI38
aI86
aI341
aI175
aI60
aI246
aI387
aI66
aI291
aI29
aI338
aI350
aI412
aI393
aI8
aI13
aI44
aI332
aI199
aI178
aI154
aI238
aI121
aI6
aI167
aI209
aI69
aI230
aI129
aI19
aI385
aI285
aI182
aI110
aI336
aI173
aI125
aI370
aI28
aI252
aI408
aI202
aI73
aI194
aI23
aI271
aI116
aI245
aI256
aI89
aI105
aI418
aI109
aI320
aI166
aI227
aI267
aI188
aI90
aI359
aI235
aI266
aI298
aI68
aI98
aI259
aI386
aI406
aI115
aI327
aI373
aI232
aI145
aI192
aI292
aI56
aI198
aI65
aI4
aI355
aI148
aI42
aI132
aI99
aI384
aI342
aI174
aI389
aI24
aI316
aI151
aI381
aI211
aI247
aI53
aI112
aI343
aI284
aI220
aI244
aI283
aI113
aI3
aI180
aI260
aI48
aI417
aI207
aI317
aI369
aI196
aI222
aI328
aI0
aI268
aI30
aI1
aI281
aI279
aI57
aI390
aI49
aI117
aI163
aI47
aI394
aI133
aI215
aI272
aI311
aI70
aI189
aI362
aI104
aI184
aI405
aI289
aI137
aI421
aI411
aI382
aI95
aI413
aI11
aI85
aI397
aI131
aI75
aI51
aI367
aI34
aI351
aI286
aI162
aI398
aI251
aI172
aI41
aI248
aI72
aI363
aI340
aI31
aI18
aI368
aI118
aI219
aI388
aI50
aI216
aI276
aI157
aI356
aI225
aI185
aI138
aI295
aI290
aI58
aI301
aI217
aI223
aI410
aI300
aI407
aI177
aI153
aI337
aI94
aI221
aI9
aI241
aI345
aI46
aI400
aI62
aI233
aI242
aI329
aI171
aI147
aI63
aI59
aI319
aI79
aI35
aI119
aI37
aI236
aI78
aI169
aI176
aI218
aI122
aI255
aI14
aI161
aa(lp6
I363
aI410
aI262
aI402
aI143
aI17
aI248
aI408
aI204
aI77
aI12
aI137
aI58
aI41
aI89
aI300
aI416
aI8
aI189
aI358
aI217
aI287
aI387
aI391
aI52
aI422
aI321
aI339
aI190
aI207
aI142
aI223
aI229
aI165
aI277
aI175
aI208
aI182
aI380
aI110
aI168
aI279
aI289
aI23
aI163
aI347
aI315
aI113
aI117
aI373
aI403
aI378
aI298
aI261
aI76
aI160
aI276
aI337
aI11
aI343
aI49
aI92
aI291
aI81
aI154
aI67
aI369
aI259
aI406
aI267
aI333
aI322
aI191
aI326
aI155
aI135
aI5
aI319
aI297
aI174
aI317
aI374
aI288
aI214
aI186
aI284
aI103
aI365
aI383
aI93
aI313
aI201
aI159
aI293
aI257
aI111
aI47
aI352
aI146
aI141
aI80
aI251
aI224
aI327
aI202
aI260
aI384
aI415
aI242
aI220
aI131
aI178
aI230
aI75
aI61
aI366
aI250
aI367
aI404
aI170
aI151
aI350
aI48
aI272
aI14
aI173
aI9
aI382
aI226
aI418
aI145
aI206
aI285
aI68
aI45
aI212
aI46
aI392
aI195
aI138
aI57
aI228
aI109
aI16
aI127
aI240
aI157
aI112
aI340
aI82
aI233
aI239
aI238
aI194
aI312
aI397
aI4
aI368
aI136
aI150
aI100
aI334
aI231
aI324
aI65
aI299
aI90
aI86
aI25
aI332
aI50
aI412
aI292
aI221
aI72
aI98
aI71
aI268
aI130
aI203
aI179
aI338
aI316
aI166
aI345
aI63
aI209
aI308
aI121
aI119
aI225
aI1
aI210
aI307
aI256
aI177
aI2
aI370
aI349
aI359
aI64
aI371
aI66
aI96
aI43
aI394
aI255
aI40
aI132
aI294
aI37
aI401
aI60
aI129
aI362
aI97
aI133
aI344
aI264
aI351
aI355
aI33
aI19
aI270
aI126
aI320
aI35
aI254
aI414
aI169
aI108
aI304
aI161
aI83
aI69
aI395
aI56
aI249
aI13
aI153
aI106
aI306
aI164
aI375
aI183
aI15
aI330
aI323
aI95
aI59
aI148
aI219
aI128
aI200
aI24
aI311
aI356
aI393
aI381
aI84
aI18
aI31
aI22
aI139
aI140
aI198
aI102
aI364
aI252
aI227
aI85
aI32
aI310
aI302
aI280
aI274
aI180
aI122
aI303
aI271
aI245
aI301
aI222
aI409
aI144
aI232
aI273
aI405
aI74
aI258
aI7
aI372
aI99
aI400
aI39
aI377
aI10
aI91
aI325
aI235
aI243
aI134
aI53
aI107
aI62
aI105
aI167
aI275
aI78
aI28
aI211
aI396
aI34
aI6
aI237
aI125
aI193
aI379
aI152
aI118
aI282
aI171
aI335
aI411
aI216
aI421
aI199
aI205
aI305
aI0
aI360
aI336
aI348
aI390
aI124
aI30
aI265
aI314
aI417
aI329
aI181
aI215
aI389
aI38
aI236
aI386
aI87
aI388
aI263
aI29
aI398
aI162
aI88
aI115
aI290
aI420
aI247
aI413
aI172
aI385
aI101
aI158
aI361
aI26
aI241
aI218
aI188
aI120
aI184
aI407
aI266
aI353
aI346
aI296
aI234
aI419
aI357
aI328
aI185
aI278
aI79
aI196
aI318
aI123
aI246
aI70
aI104
aI295
aI42
aI342
aI244
aI51
aI55
aI94
aI156
aI149
aI399
aI44
aI283
aI253
aI3
aI27
aI116
aI269
aI54
aI147
aI187
aI331
aI213
aI286
aI21
aI197
aI20
aI309
aI114
aI341
aI176
aI281
aI376
aI354
aI192
aI73
aI36
aa(lp7
I142
aI263
aI8
aI351
aI95
aI71
aI80
aI396
aI29
aI244
aI32
aI386
aI13
aI26
aI141
aI266
aI328
aI203
aI181
aI46
aI342
aI378
aI210
aI67
aI85
aI404
aI99
aI348
aI357
aI411
aI268
aI171
aI409
aI262
aI51
aI243
aI5
aI248
aI303
aI407
aI324
aI78
aI25
aI296
aI344
aI420
aI350
aI207
aI315
aI168
aI301
aI6
aI177
aI74
aI305
aI140
aI265
aI139
aI65
aI37
aI30
aI397
aI341
aI18
aI178
aI389
aI62
aI184
aI192
aI377
aI86
aI200
aI22
aI362
aI363
aI319
aI173
aI114
aI52
aI153
aI206
aI169
aI308
aI216
aI246
aI197
aI281
aI390
aI336
aI68
aI406
aI149
aI383
aI325
aI276
aI327
aI128
aI17
aI240
aI360
aI330
aI398
aI136
aI259
aI334
aI343
aI93
aI129
aI422
aI374
aI335
aI313
aI64
aI293
aI87
aI284
aI277
aI159
aI187
aI254
aI36
aI211
aI27
aI100
aI252
aI332
aI255
aI287
aI233
aI111
aI340
aI131
aI45
aI137
aI2
aI213
aI339
aI70
aI127
aI79
aI274
aI103
aI260
aI61
aI241
aI261
aI230
aI72
aI395
aI146
aI193
aI69
aI392
aI91
aI321
aI10
aI106
aI234
aI97
aI98
aI329
aI108
aI117
aI9
aI326
aI387
aI361
aI11
aI24
aI372
aI347
aI157
aI346
aI166
aI218
aI191
aI333
aI175
aI288
aI185
aI138
aI34
aI292
aI132
aI253
aI359
aI84
aI14
aI279
aI21
aI89
aI7
aI245
aI413
aI381
aI369
aI291
aI414
aI3
aI286
aI304
aI312
aI223
aI165
aI96
aI310
aI58
aI300
aI368
aI421
aI400
aI104
aI205
aI320
aI272
aI366
aI145
aI23
aI217
aI371
aI50
aI161
aI405
aI179
aI116
aI1
aI235
aI222
aI180
aI232
aI282
aI155
aI183
aI49
aI412
aI170
aI208
aI365
aI226
aI190
aI212
aI264
aI4
aI147
aI247
aI126
aI48
aI73
aI227
aI194
aI376
aI283
aI16
aI113
aI373
aI15
aI41
aI94
aI123
aI105
aI242
aI122
aI167
aI189
aI299
aI295
aI121
aI399
aI229
aI156
aI267
aI110
aI356
aI285
aI35
aI273
aI0
aI314
aI258
aI60
aI77
aI239
aI402
aI355
aI323
aI358
aI28
aI379
aI186
aI130
aI384
aI214
aI53
aI39
aI317
aI331
aI201
aI393
aI107
aI75
aI172
aI415
aI352
aI237
aI56
aI224
aI236
aI42
aI124
aI403
aI318
aI31
aI209
aI188
aI90
aI322
aI20
aI44
aI418
aI82
aI152
aI76
aI338
aI66
aI92
aI337
aI391
aI410
aI353
aI148
aI63
aI311
aI119
aI134
aI150
aI228
aI196
aI19
aI202
aI385
aI416
aI143
aI302
aI151
aI102
aI101
aI270
aI115
aI394
aI309
aI251
aI306
aI125
aI271
aI250
aI382
aI297
aI249
aI294
aI135
aI158
aI225
aI289
aI257
aI57
aI176
aI417
aI275
aI280
aI316
aI154
aI370
aI231
aI40
aI256
aI162
aI349
aI367
aI221
aI199
aI419
aI164
aI12
aI47
aI182
aI43
aI163
aI54
aI220
aI401
aI33
aI118
aI88
aI380
aI59
aI83
aI388
aI144
aI364
aI278
aI198
aI112
aI269
aI307
aI38
aI133
aI55
aI120
aI238
aI174
aI219
aI109
aI375
aI408
aI81
aI354
aI195
aI290
aI298
aI215
aI345
aI160
aI204
aa(lp8
I273
aI374
aI181
aI281
aI47
aI129
aI169
aI200
aI52
aI407
aI244
aI121
aI330
aI308
aI144
aI110
aI171
aI190
aI410
aI96
aI176
aI267
aI322
aI238
aI344
aI225
aI218
aI274
aI86
aI5
aI166
aI315
aI90
aI367
aI293
aI165
aI404
aI379
aI353
aI270
aI13
aI349
aI269
aI195
aI381
aI201
aI275
aI61
aI264
aI161
aI408
aI162
aI354
aI260
aI229
aI368
aI203
aI17
aI338
aI230
aI231
aI168
aI282
aI22
aI302
aI175
aI179
aI339
aI365
aI309
aI106
aI120
aI140
aI376
aI19
aI199
aI158
aI188
aI251
aI38
aI221
aI34
aI152
aI32
aI91
aI261
aI67
aI422
aI385
aI185
aI357
aI377
aI68
aI253
aI109
aI399
aI252
aI202
aI81
aI297
aI417
aI402
aI136
aI301
aI213
aI150
aI51
aI214
aI299
aI142
aI115
aI183
aI351
aI163
aI222
aI360
aI256
aI382
aI343
aI327
aI283
aI63
aI139
aI223
aI197
aI358
aI3
aI397
aI57
aI55
aI72
aI409
aI331
aI62
aI247
aI400
aI60
aI395
aI1
aI268
aI245
aI135
aI394
aI141
aI416
aI414
aI128
aI352
aI318
aI277
aI332
aI78
aI278
aI306
aI258
aI127
aI49
aI187
aI386
aI356
aI8
aI112
aI314
aI147
aI336
aI328
aI74
aI193
aI224
aI118
aI210
aI271
aI70
aI387
aI421
aI155
aI236
aI173
aI101
aI265
aI25
aI304
aI211
aI323
aI42
aI64
aI284
aI237
aI160
aI346
aI239
aI26
aI198
aI313
aI45
aI255
aI156
aI363
aI43
aI419
aI337
aI396
aI411
aI355
aI71
aI259
aI30
aI164
aI285
aI178
aI215
aI326
aI310
aI48
aI103
aI7
aI31
aI246
aI194
aI41
aI320
aI350
aI292
aI383
aI50
aI196
aI146
aI111
aI205
aI234
aI329
aI14
aI324
aI232
aI4
aI132
aI262
aI248
aI305
aI36
aI77
aI10
aI28
aI138
aI420
aI93
aI75
aI243
aI378
aI272
aI170
aI312
aI98
aI85
aI384
aI113
aI342
aI316
aI348
aI99
aI151
aI300
aI2
aI401
aI117
aI347
aI220
aI177
aI389
aI66
aI73
aI76
aI207
aI263
aI134
aI311
aI228
aI79
aI100
aI340
aI189
aI23
aI294
aI180
aI0
aI250
aI373
aI130
aI102
aI242
aI406
aI227
aI105
aI192
aI88
aI390
aI307
aI174
aI108
aI341
aI11
aI39
aI362
aI54
aI131
aI114
aI27
aI21
aI296
aI123
aI18
aI209
aI403
aI148
aI291
aI84
aI82
aI24
aI254
aI405
aI35
aI233
aI97
aI266
aI392
aI204
aI333
aI366
aI286
aI372
aI325
aI290
aI418
aI6
aI37
aI206
aI287
aI280
aI29
aI89
aI369
aI257
aI317
aI413
aI167
aI69
aI83
aI415
aI393
aI124
aI33
aI217
aI119
aI388
aI154
aI125
aI149
aI345
aI191
aI159
aI208
aI249
aI235
aI361
aI53
aI375
aI370
aI107
aI58
aI40
aI116
aI56
aI122
aI16
aI289
aI59
aI398
aI371
aI288
aI276
aI319
aI184
aI20
aI303
aI241
aI321
aI412
aI87
aI364
aI380
aI212
aI186
aI334
aI219
aI9
aI12
aI216
aI104
aI335
aI145
aI295
aI44
aI172
aI279
aI65
aI226
aI126
aI157
aI94
aI133
aI182
aI15
aI240
aI137
aI143
aI298
aI359
aI46
aI153
aI80
aI95
aI92
aI391
aa(lp9
I402
aI255
aI238
aI21
aI410
aI15
aI163
aI189
aI20
aI370
aI408
aI208
aI148
aI168
aI38
aI351
aI128
aI217
aI307
aI338
aI35
aI180
aI359
aI153
aI404
aI333
aI2
aI161
aI308
aI386
aI65
aI298
aI312
aI263
aI376
aI39
aI40
aI405
aI301
aI0
aI262
aI304
aI107
aI378
aI331
aI187
aI316
aI223
aI348
aI13
aI152
aI37
aI85
aI246
aI329
aI327
aI91
aI203
aI219
aI256
aI47
aI10
aI198
aI33
aI177
aI121
aI290
aI69
aI34
aI360
aI279
aI237
aI415
aI280
aI384
aI282
aI202
aI89
aI300
aI224
aI347
aI29
aI131
aI372
aI122
aI48
aI395
aI332
aI46
aI56
aI292
aI51
aI259
aI318
aI225
aI137
aI272
aI210
aI156
aI123
aI126
aI16
aI385
aI422
aI138
aI407
aI296
aI248
aI382
aI293
aI100
aI334
aI371
aI42
aI185
aI95
aI362
aI83
aI309
aI354
aI112
aI209
aI365
aI399
aI160
aI247
aI1
aI285
aI367
aI349
aI240
aI43
aI50
aI383
aI231
aI14
aI146
aI299
aI418
aI28
aI145
aI409
aI22
aI113
aI191
aI4
aI103
aI144
aI114
aI135
aI273
aI188
aI416
aI87
aI226
aI369
aI60
aI325
aI368
aI79
aI270
aI63
aI174
aI317
aI212
aI275
aI421
aI323
aI36
aI213
aI82
aI109
aI242
aI167
aI269
aI74
aI71
aI321
aI72
aI398
aI207
aI18
aI111
aI88
aI164
aI250
aI165
aI96
aI75
aI239
aI387
aI62
aI244
aI101
aI116
aI311
aI406
aI192
aI130
aI320
aI391
aI41
aI54
aI147
aI324
aI57
aI143
aI61
aI117
aI236
aI346
aI142
aI136
aI199
aI70
aI264
aI115
aI253
aI52
aI129
aI229
aI393
aI175
aI11
aI118
aI98
aI183
aI286
aI157
aI127
aI134
aI155
aI119
aI305
aI274
aI139
aI392
aI120
aI186
aI7
aI227
aI241
aI172
aI106
aI53
aI67
aI243
aI258
aI125
aI245
aI265
aI197
aI81
aI353
aI104
aI58
aI306
aI73
aI25
aI356
aI214
aI266
aI184
aI27
aI358
aI228
aI364
aI12
aI171
aI336
aI110
aI77
aI166
aI190
aI49
aI5
aI345
aI24
aI235
aI373
aI78
aI281
aI6
aI218
aI396
aI182
aI357
aI287
aI374
aI260
aI322
aI267
aI8
aI291
aI170
aI80
aI162
aI230
aI363
aI400
aI205
aI268
aI193
aI30
aI64
aI411
aI215
aI19
aI283
aI261
aI158
aI375
aI94
aI32
aI276
aI97
aI343
aI284
aI344
aI377
aI314
aI68
aI26
aI133
aI23
aI233
aI294
aI176
aI420
aI178
aI108
aI181
aI310
aI302
aI412
aI277
aI159
aI326
aI222
aI9
aI150
aI216
aI140
aI55
aI44
aI295
aI3
aI361
aI335
aI195
aI388
aI403
aI196
aI394
aI86
aI303
aI330
aI271
aI350
aI390
aI352
aI149
aI288
aI257
aI315
aI206
aI232
aI66
aI355
aI90
aI252
aI105
aI249
aI141
aI328
aI234
aI221
aI204
aI340
aI31
aI389
aI17
aI313
aI339
aI92
aI366
aI379
aI254
aI76
aI414
aI251
aI173
aI341
aI211
aI220
aI151
aI194
aI342
aI200
aI417
aI45
aI154
aI413
aI278
aI380
aI124
aI337
aI99
aI93
aI84
aI297
aI179
aI419
aI401
aI397
aI169
aI319
aI201
aI59
aI102
aI289
aI381
aI132
aa(lp10
I44
aI403
aI249
aI199
aI99
aI186
aI409
aI289
aI370
aI185
aI253
aI381
aI350
aI321
aI362
aI255
aI178
aI180
aI290
aI301
aI276
aI257
aI173
aI182
aI357
aI378
aI40
aI19
aI166
aI236
aI34
aI311
aI325
aI141
aI233
aI270
aI35
aI66
aI346
aI32
aI4
aI243
aI59
aI231
aI194
aI338
aI28
aI411
aI361
aI380
aI161
aI291
aI81
aI134
aI158
aI152
aI368
aI389
aI25
aI284
aI21
aI234
aI1
aI33
aI136
aI373
aI47
aI393
aI56
aI6
aI14
aI2
aI337
aI215
aI69
aI143
aI216
aI408
aI195
aI334
aI248
aI214
aI206
aI202
aI414
aI288
aI314
aI252
aI197
aI208
aI140
aI121
aI177
aI145
aI269
aI367
aI251
aI210
aI273
aI404
aI229
aI365
aI26
aI18
aI358
aI179
aI246
aI228
aI219
aI190
aI189
aI128
aI124
aI58
aI313
aI261
aI421
aI310
aI86
aI369
aI83
aI279
aI281
aI165
aI227
aI192
aI156
aI422
aI309
aI183
aI224
aI349
aI242
aI15
aI150
aI77
aI347
aI402
aI96
aI293
aI196
aI343
aI238
aI398
aI412
aI220
aI70
aI104
aI328
aI391
aI205
aI418
aI148
aI263
aI302
aI62
aI171
aI24
aI127
aI170
aI385
aI79
aI317
aI65
aI254
aI323
aI57
aI76
aI132
aI275
aI316
aI401
aI73
aI102
aI297
aI123
aI416
aI384
aI106
aI359
aI299
aI46
aI147
aI107
aI72
aI80
aI164
aI360
aI5
aI201
aI264
aI258
aI92
aI50
aI16
aI232
aI341
aI340
aI395
aI262
aI268
aI100
aI7
aI271
aI218
aI394
aI149
aI175
aI351
aI377
aI87
aI159
aI84
aI38
aI151
aI213
aI230
aI78
aI305
aI41
aI135
aI97
aI112
aI116
aI286
aI85
aI111
aI319
aI407
aI17
aI71
aI405
aI187
aI115
aI108
aI244
aI154
aI118
aI400
aI144
aI184
aI203
aI306
aI48
aI392
aI61
aI332
aI162
aI142
aI260
aI267
aI110
aI331
aI355
aI53
aI155
aI285
aI296
aI415
aI137
aI31
aI379
aI191
aI277
aI42
aI333
aI217
aI174
aI88
aI315
aI344
aI64
aI303
aI11
aI250
aI193
aI413
aI91
aI120
aI278
aI388
aI95
aI39
aI280
aI93
aI406
aI241
aI322
aI89
aI336
aI13
aI211
aI51
aI22
aI55
aI318
aI167
aI387
aI129
aI20
aI256
aI176
aI294
aI298
aI130
aI9
aI353
aI348
aI60
aI198
aI342
aI295
aI282
aI420
aI419
aI138
aI375
aI283
aI153
aI383
aI266
aI300
aI247
aI207
aI382
aI223
aI146
aI29
aI139
aI329
aI376
aI133
aI160
aI237
aI37
aI113
aI94
aI67
aI12
aI8
aI308
aI169
aI339
aI265
aI272
aI356
aI371
aI245
aI372
aI312
aI27
aI354
aI235
aI225
aI168
aI75
aI54
aI327
aI352
aI226
aI10
aI122
aI36
aI30
aI114
aI0
aI307
aI364
aI221
aI105
aI126
aI386
aI43
aI103
aI74
aI330
aI49
aI374
aI109
aI259
aI101
aI239
aI131
aI396
aI157
aI209
aI292
aI52
aI366
aI181
aI222
aI172
aI326
aI188
aI119
aI287
aI68
aI417
aI200
aI399
aI324
aI163
aI212
aI125
aI410
aI45
aI320
aI23
aI304
aI240
aI63
aI204
aI345
aI90
aI335
aI274
aI82
aI397
aI117
aI390
aI3
aI98
aI363
aa(lp11
I413
aI277
aI25
aI115
aI108
aI83
aI420
aI252
aI187
aI16
aI415
aI333
aI6
aI230
aI210
aI126
aI14
aI74
aI167
aI109
aI238
aI0
aI217
aI358
aI266
aI402
aI59
aI166
aI9
aI112
aI173
aI297
aI309
aI375
aI258
aI279
aI73
aI308
aI177
aI244
aI368
aI385
aI232
aI46
aI195
aI346
aI214
aI86
aI300
aI124
aI219
aI75
aI286
aI352
aI237
aI325
aI64
aI357
aI280
aI310
aI36
aI192
aI146
aI274
aI414
aI189
aI170
aI85
aI250
aI111
aI174
aI34
aI35
aI20
aI45
aI276
aI22
aI90
aI319
aI117
aI4
aI334
aI149
aI2
aI231
aI243
aI193
aI269
aI155
aI367
aI168
aI154
aI209
aI89
aI157
aI371
aI382
aI335
aI150
aI21
aI180
aI129
aI248
aI220
aI322
aI390
aI11
aI377
aI304
aI224
aI331
aI366
aI307
aI399
aI54
aI12
aI211
aI387
aI105
aI419
aI29
aI175
aI340
aI133
aI98
aI328
aI71
aI245
aI409
aI156
aI58
aI123
aI361
aI246
aI101
aI161
aI42
aI407
aI215
aI18
aI329
aI240
aI66
aI264
aI132
aI284
aI312
aI107
aI147
aI369
aI30
aI392
aI291
aI13
aI316
aI321
aI204
aI254
aI23
aI5
aI24
aI172
aI28
aI255
aI125
aI318
aI163
aI82
aI97
aI95
aI388
aI239
aI397
aI17
aI198
aI347
aI51
aI400
aI116
aI379
aI288
aI303
aI152
aI130
aI372
aI48
aI380
aI94
aI33
aI199
aI136
aI401
aI186
aI384
aI110
aI381
aI65
aI359
aI225
aI185
aI301
aI92
aI410
aI113
aI411
aI47
aI137
aI183
aI275
aI78
aI179
aI412
aI216
aI408
aI69
aI153
aI370
aI171
aI350
aI241
aI417
aI191
aI306
aI233
aI339
aI296
aI324
aI257
aI63
aI43
aI118
aI103
aI37
aI99
aI320
aI383
aI141
aI389
aI139
aI143
aI200
aI102
aI144
aI27
aI292
aI342
aI364
aI251
aI348
aI87
aI57
aI38
aI67
aI247
aI188
aI60
aI263
aI338
aI345
aI79
aI91
aI8
aI15
aI76
aI272
aI270
aI262
aI363
aI354
aI236
aI169
aI160
aI10
aI134
aI182
aI273
aI267
aI376
aI330
aI360
aI326
aI287
aI212
aI416
aI356
aI44
aI32
aI343
aI202
aI422
aI100
aI253
aI311
aI49
aI260
aI406
aI378
aI281
aI80
aI362
aI285
aI391
aI96
aI50
aI194
aI344
aI283
aI327
aI181
aI68
aI398
aI138
aI332
aI337
aI81
aI302
aI203
aI351
aI19
aI394
aI131
aI106
aI265
aI3
aI201
aI178
aI53
aI122
aI93
aI393
aI40
aI256
aI88
aI313
aI353
aI298
aI77
aI282
aI56
aI341
aI70
aI373
aI159
aI365
aI158
aI404
aI197
aI41
aI293
aI242
aI7
aI405
aI148
aI104
aI61
aI418
aI55
aI355
aI207
aI127
aI229
aI72
aI128
aI1
aI290
aI176
aI218
aI184
aI403
aI295
aI336
aI205
aI196
aI421
aI165
aI314
aI145
aI278
aI323
aI140
aI235
aI396
aI119
aI52
aI386
aI26
aI222
aI208
aI39
aI294
aI221
aI84
aI315
aI259
aI120
aI151
aI227
aI114
aI213
aI317
aI190
aI249
aI135
aI374
aI121
aI299
aI349
aI31
aI164
aI62
aI206
aI305
aI228
aI234
aI223
aI271
aI268
aI261
aI226
aI162
aI142
aI395
aI289
aa(lp12
I141
aI327
aI61
aI95
aI369
aI120
aI323
aI417
aI255
aI149
aI175
aI70
aI258
aI377
aI305
aI32
aI416
aI114
aI251
aI108
aI88
aI403
aI375
aI64
aI91
aI318
aI217
aI93
aI292
aI228
aI121
aI133
aI328
aI311
aI353
aI370
aI138
aI113
aI246
aI362
aI224
aI368
aI198
aI189
aI41
aI269
aI281
aI322
aI209
aI206
aI238
aI336
aI191
aI376
aI296
aI156
aI260
aI349
aI250
aI119
aI17
aI49
aI21
aI50
aI122
aI6
aI170
aI2
aI137
aI54
aI151
aI229
aI154
aI356
aI1
aI276
aI351
aI242
aI300
aI395
aI179
aI225
aI404
aI302
aI72
aI381
aI385
aI419
aI116
aI132
aI203
aI15
aI398
aI74
aI4
aI410
aI208
aI38
aI412
aI11
aI16
aI76
aI165
aI100
aI143
aI106
aI213
aI299
aI104
aI402
aI338
aI162
aI358
aI212
aI33
aI187
aI169
aI25
aI214
aI357
aI308
aI401
aI363
aI297
aI147
aI319
aI282
aI360
aI406
aI286
aI63
aI350
aI0
aI202
aI266
aI285
aI197
aI89
aI304
aI340
aI421
aI85
aI185
aI291
aI77
aI386
aI23
aI69
aI71
aI28
aI130
aI331
aI30
aI35
aI303
aI383
aI334
aI355
aI142
aI391
aI19
aI422
aI194
aI60
aI313
aI270
aI167
aI230
aI243
aI347
aI352
aI273
aI382
aI134
aI205
aI333
aI240
aI280
aI52
aI12
aI237
aI220
aI45
aI66
aI261
aI396
aI46
aI127
aI40
aI326
aI366
aI188
aI216
aI199
aI289
aI56
aI248
aI388
aI380
aI387
aI146
aI341
aI166
aI101
aI62
aI262
aI320
aI115
aI346
aI184
aI105
aI117
aI9
aI384
aI290
aI392
aI343
aI373
aI83
aI259
aI29
aI47
aI379
aI235
aI42
aI418
aI411
aI293
aI177
aI284
aI231
aI271
aI174
aI253
aI164
aI390
aI397
aI200
aI236
aI227
aI374
aI182
aI317
aI53
aI233
aI110
aI264
aI287
aI109
aI112
aI90
aI324
aI268
aI201
aI190
aI223
aI279
aI277
aI172
aI126
aI365
aI265
aI371
aI5
aI306
aI339
aI79
aI48
aI195
aI257
aI92
aI80
aI252
aI145
aI407
aI181
aI10
aI128
aI415
aI94
aI321
aI26
aI288
aI43
aI159
aI123
aI256
aI107
aI361
aI111
aI408
aI393
aI335
aI178
aI171
aI136
aI196
aI413
aI78
aI244
aI150
aI186
aI139
aI215
aI103
aI44
aI168
aI219
aI263
aI310
aI218
aI314
aI345
aI394
aI84
aI348
aI124
aI22
aI96
aI39
aI278
aI274
aI82
aI36
aI75
aI344
aI129
aI183
aI210
aI37
aI414
aI239
aI367
aI389
aI294
aI309
aI378
aI247
aI298
aI400
aI245
aI283
aI148
aI176
aI315
aI59
aI254
aI51
aI118
aI354
aI20
aI65
aI267
aI18
aI58
aI307
aI312
aI420
aI125
aI192
aI55
aI372
aI173
aI97
aI337
aI234
aI7
aI152
aI140
aI241
aI180
aI3
aI67
aI193
aI295
aI86
aI232
aI329
aI68
aI144
aI160
aI221
aI364
aI272
aI211
aI222
aI332
aI226
aI316
aI57
aI24
aI157
aI249
aI158
aI342
aI31
aI163
aI27
aI131
aI135
aI81
aI409
aI301
aI98
aI13
aI73
aI405
aI399
aI153
aI359
aI155
aI204
aI161
aI8
aI14
aI207
aI325
aI330
aI87
aI275
aI99
aI102
aI34
aa(lp13
I270
aI47
aI90
aI278
aI232
aI199
aI382
aI301
aI392
aI422
aI18
aI268
aI171
aI135
aI222
aI124
aI55
aI157
aI94
aI351
aI41
aI210
aI118
aI282
aI405
aI102
aI276
aI328
aI302
aI137
aI112
aI180
aI370
aI23
aI168
aI33
aI293
aI103
aI256
aI295
aI336
aI196
aI249
aI11
aI316
aI14
aI344
aI173
aI345
aI19
aI230
aI44
aI311
aI214
aI385
aI251
aI242
aI198
aI367
aI162
aI414
aI116
aI97
aI217
aI29
aI299
aI155
aI404
aI192
aI80
aI119
aI95
aI39
aI169
aI50
aI343
aI178
aI332
aI10
aI221
aI261
aI238
aI358
aI247
aI202
aI62
aI3
aI136
aI285
aI177
aI379
aI315
aI318
aI86
aI109
aI288
aI87
aI216
aI313
aI407
aI245
aI338
aI359
aI374
aI201
aI289
aI346
aI204
aI81
aI305
aI104
aI166
aI67
aI394
aI266
aI397
aI25
aI83
aI298
aI360
aI362
aI319
aI176
aI240
aI197
aI191
aI38
aI185
aI125
aI194
aI277
aI259
aI373
aI330
aI13
aI409
aI384
aI68
aI260
aI371
aI413
aI420
aI144
aI130
aI30
aI147
aI213
aI35
aI357
aI36
aI46
aI189
aI184
aI350
aI280
aI58
aI193
aI159
aI377
aI34
aI228
aI372
aI248
aI28
aI16
aI5
aI220
aI108
aI172
aI283
aI113
aI274
aI32
aI138
aI56
aI234
aI149
aI255
aI92
aI107
aI402
aI312
aI27
aI403
aI236
aI148
aI354
aI163
aI164
aI139
aI406
aI417
aI71
aI341
aI415
aI167
aI246
aI49
aI85
aI70
aI273
aI267
aI241
aI203
aI294
aI380
aI388
aI54
aI275
aI22
aI93
aI279
aI411
aI419
aI106
aI72
aI66
aI151
aI64
aI342
aI229
aI401
aI209
aI223
aI188
aI314
aI120
aI349
aI390
aI1
aI20
aI364
aI59
aI161
aI74
aI48
aI375
aI100
aI334
aI227
aI99
aI325
aI324
aI421
aI154
aI150
aI290
aI205
aI133
aI225
aI145
aI337
aI60
aI297
aI84
aI126
aI76
aI45
aI96
aI271
aI211
aI356
aI307
aI381
aI339
aI79
aI233
aI207
aI186
aI215
aI258
aI416
aI369
aI243
aI132
aI365
aI170
aI65
aI2
aI156
aI42
aI387
aI143
aI386
aI320
aI190
aI88
aI175
aI141
aI257
aI250
aI219
aI418
aI347
aI134
aI200
aI78
aI8
aI165
aI127
aI129
aI393
aI383
aI187
aI110
aI21
aI286
aI323
aI73
aI63
aI348
aI152
aI226
aI101
aI281
aI306
aI389
aI378
aI117
aI75
aI395
aI398
aI353
aI208
aI111
aI237
aI340
aI391
aI224
aI321
aI6
aI77
aI322
aI287
aI235
aI363
aI69
aI158
aI244
aI15
aI331
aI31
aI252
aI9
aI195
aI212
aI121
aI310
aI399
aI91
aI17
aI269
aI396
aI355
aI263
aI12
aI218
aI7
aI303
aI368
aI181
aI140
aI329
aI304
aI153
aI254
aI43
aI366
aI123
aI400
aI82
aI53
aI105
aI410
aI115
aI0
aI52
aI265
aI335
aI24
aI89
aI292
aI206
aI326
aI408
aI231
aI361
aI37
aI128
aI262
aI239
aI308
aI51
aI146
aI174
aI160
aI179
aI142
aI131
aI376
aI4
aI253
aI61
aI264
aI317
aI412
aI296
aI122
aI272
aI40
aI352
aI291
aI26
aI98
aI57
aI300
aI333
aI327
aI182
aI309
aI284
aI183
aI114
aa(lp14
I177
aI362
aI337
aI126
aI171
aI351
aI383
aI307
aI77
aI391
aI325
aI254
aI300
aI102
aI298
aI103
aI228
aI117
aI263
aI44
aI53
aI75
aI363
aI18
aI20
aI330
aI166
aI387
aI168
aI148
aI113
aI347
aI70
aI276
aI200
aI80
aI402
aI333
aI48
aI87
aI202
aI92
aI241
aI213
aI109
aI101
aI297
aI165
aI419
aI129
aI230
aI57
aI64
aI159
aI293
aI360
aI94
aI371
aI128
aI164
aI250
aI409
aI372
aI343
aI275
aI108
aI116
aI422
aI411
aI68
aI24
aI1
aI274
aI121
aI120
aI192
aI6
aI416
aI69
aI2
aI319
aI304
aI408
aI33
aI147
aI139
aI270
aI199
aI350
aI320
aI358
aI251
aI60
aI182
aI242
aI162
aI231
aI353
aI315
aI396
aI207
aI359
aI36
aI11
aI312
aI413
aI16
aI361
aI224
aI311
aI299
aI238
aI187
aI420
aI28
aI268
aI76
aI366
aI172
aI346
aI302
aI208
aI105
aI227
aI374
aI369
aI406
aI225
aI370
aI217
aI205
aI50
aI201
aI221
aI247
aI42
aI91
aI4
aI86
aI160
aI283
aI260
aI157
aI204
aI89
aI378
aI191
aI134
aI112
aI248
aI236
aI85
aI181
aI328
aI15
aI21
aI145
aI107
aI38
aI115
aI111
aI17
aI256
aI52
aI41
aI414
aI385
aI122
aI399
aI185
aI178
aI30
aI284
aI215
aI249
aI169
aI0
aI132
aI98
aI158
aI179
aI174
aI8
aI348
aI395
aI282
aI332
aI339
aI63
aI400
aI278
aI61
aI294
aI100
aI141
aI375
aI140
aI39
aI47
aI291
aI377
aI188
aI118
aI71
aI266
aI324
aI82
aI386
aI354
aI261
aI13
aI31
aI27
aI394
aI271
aI180
aI175
aI245
aI296
aI405
aI163
aI212
aI219
aI144
aI309
aI32
aI142
aI62
aI364
aI131
aI418
aI367
aI99
aI310
aI214
aI403
aI380
aI286
aI239
aI398
aI273
aI49
aI72
aI335
aI345
aI196
aI235
aI149
aI285
aI83
aI12
aI189
aI401
aI323
aI206
aI46
aI267
aI190
aI193
aI22
aI258
aI19
aI389
aI313
aI262
aI388
aI216
aI136
aI210
aI393
aI334
aI55
aI195
aI58
aI35
aI93
aI135
aI106
aI138
aI14
aI264
aI368
aI203
aI321
aI110
aI327
aI7
aI303
aI65
aI218
aI173
aI255
aI74
aI150
aI272
aI151
aI342
aI81
aI407
aI90
aI415
aI209
aI341
aI356
aI29
aI223
aI170
aI349
aI78
aI233
aI232
aI340
aI197
aI295
aI198
aI305
aI281
aI344
aI156
aI73
aI257
aI404
aI51
aI279
aI124
aI226
aI373
aI130
aI292
aI290
aI10
aI133
aI336
aI265
aI143
aI26
aI211
aI365
aI412
aI183
aI3
aI97
aI153
aI308
aI246
aI9
aI123
aI379
aI59
aI37
aI252
aI317
aI410
aI357
aI314
aI289
aI355
aI259
aI184
aI390
aI240
aI306
aI376
aI234
aI114
aI152
aI25
aI167
aI382
aI384
aI56
aI316
aI331
aI23
aI417
aI84
aI96
aI220
aI40
aI329
aI392
aI287
aI243
aI155
aI277
aI5
aI125
aI244
aI95
aI301
aI237
aI45
aI253
aI43
aI288
aI54
aI318
aI338
aI79
aI88
aI194
aI352
aI154
aI326
aI186
aI229
aI176
aI381
aI66
aI322
aI421
aI222
aI161
aI104
aI67
aI34
aI397
aI137
aI269
aI146
aI280
aI127
aI119
aa(lp15
I187
aI367
aI259
aI110
aI125
aI179
aI419
aI137
aI252
aI147
aI246
aI289
aI245
aI10
aI275
aI358
aI316
aI199
aI153
aI106
aI403
aI381
aI54
aI314
aI221
aI117
aI260
aI167
aI1
aI49
aI177
aI415
aI298
aI74
aI287
aI416
aI184
aI242
aI69
aI338
aI238
aI132
aI240
aI304
aI26
aI266
aI87
aI310
aI114
aI285
aI14
aI151
aI237
aI219
aI208
aI342
aI8
aI36
aI249
aI24
aI31
aI235
aI269
aI66
aI13
aI405
aI302
aI365
aI370
aI224
aI107
aI183
aI37
aI357
aI102
aI29
aI203
aI90
aI336
aI330
aI191
aI261
aI223
aI319
aI327
aI228
aI373
aI94
aI169
aI20
aI61
aI62
aI309
aI35
aI23
aI188
aI356
aI369
aI80
aI168
aI143
aI131
aI318
aI359
aI91
aI109
aI406
aI343
aI140
aI413
aI139
aI347
aI257
aI146
aI282
aI11
aI382
aI176
aI83
aI400
aI12
aI236
aI313
aI256
aI329
aI297
aI402
aI47
aI48
aI104
aI307
aI421
aI396
aI193
aI339
aI7
aI148
aI227
aI368
aI126
aI197
aI222
aI351
aI34
aI241
aI152
aI264
aI334
aI116
aI233
aI64
aI194
aI395
aI230
aI363
aI67
aI84
aI332
aI278
aI301
aI255
aI56
aI101
aI404
aI145
aI407
aI286
aI210
aI220
aI321
aI340
aI397
aI350
aI217
aI248
aI171
aI128
aI182
aI420
aI391
aI25
aI149
aI374
aI100
aI60
aI272
aI192
aI360
aI283
aI38
aI377
aI73
aI180
aI72
aI118
aI138
aI344
aI213
aI160
aI113
aI136
aI55
aI175
aI422
aI393
aI306
aI394
aI130
aI157
aI77
aI111
aI164
aI271
aI231
aI376
aI103
aI141
aI204
aI265
aI290
aI181
aI372
aI371
aI251
aI170
aI320
aI95
aI71
aI58
aI0
aI2
aI214
aI206
aI79
aI218
aI98
aI366
aI115
aI239
aI250
aI78
aI46
aI135
aI92
aI96
aI273
aI163
aI354
aI3
aI291
aI200
aI27
aI63
aI124
aI122
aI57
aI324
aI5
aI154
aI21
aI40
aI341
aI390
aI39
aI45
aI212
aI216
aI277
aI411
aI362
aI120
aI408
aI53
aI234
aI333
aI418
aI268
aI296
aI93
aI134
aI288
aI76
aI6
aI325
aI196
aI127
aI215
aI294
aI323
aI353
aI337
aI198
aI119
aI68
aI385
aI44
aI326
aI399
aI82
aI9
aI85
aI331
aI361
aI185
aI414
aI172
aI81
aI97
aI254
aI142
aI355
aI380
aI379
aI295
aI410
aI155
aI201
aI4
aI311
aI52
aI89
aI345
aI190
aI51
aI211
aI392
aI41
aI108
aI303
aI281
aI202
aI348
aI401
aI383
aI293
aI43
aI364
aI279
aI189
aI207
aI158
aI388
aI28
aI70
aI42
aI274
aI417
aI18
aI162
aI308
aI300
aI386
aI129
aI270
aI173
aI378
aI59
aI105
aI22
aI86
aI243
aI209
aI284
aI258
aI375
aI267
aI205
aI315
aI389
aI398
aI387
aI299
aI226
aI166
aI276
aI225
aI161
aI150
aI312
aI165
aI32
aI195
aI253
aI280
aI121
aI328
aI17
aI322
aI65
aI346
aI75
aI247
aI335
aI30
aI384
aI112
aI349
aI229
aI317
aI232
aI412
aI244
aI174
aI409
aI159
aI144
aI99
aI50
aI305
aI123
aI352
aI292
aI262
aI178
aI88
aI156
aI15
aI33
aI263
aI133
aI19
aI16
aI186
aa(lp16
I417
aI297
aI355
aI1
aI204
aI54
aI79
aI260
aI367
aI245
aI110
aI62
aI80
aI324
aI130
aI145
aI85
aI407
aI388
aI19
aI25
aI210
aI196
aI209
aI47
aI42
aI201
aI316
aI349
aI224
aI270
aI90
aI303
aI351
aI8
aI41
aI319
aI135
aI49
aI269
aI103
aI125
aI285
aI284
aI397
aI347
aI27
aI86
aI106
aI404
aI22
aI272
aI290
aI166
aI12
aI73
aI126
aI377
aI411
aI382
aI343
aI348
aI401
aI35
aI281
aI214
aI419
aI283
aI295
aI317
aI387
aI329
aI278
aI268
aI292
aI321
aI186
aI96
aI318
aI29
aI171
aI122
aI247
aI187
aI114
aI82
aI306
aI182
aI66
aI379
aI372
aI57
aI123
aI68
aI92
aI176
aI403
aI153
aI162
aI144
aI325
aI179
aI108
aI395
aI32
aI65
aI311
aI336
aI374
aI134
aI36
aI177
aI307
aI363
aI200
aI101
aI345
aI5
aI31
aI158
aI208
aI154
aI248
aI418
aI15
aI380
aI298
aI420
aI235
aI360
aI258
aI241
aI33
aI20
aI253
aI17
aI405
aI327
aI121
aI93
aI181
aI354
aI406
aI81
aI190
aI378
aI304
aI220
aI232
aI157
aI262
aI212
aI152
aI109
aI164
aI112
aI72
aI94
aI107
aI300
aI14
aI221
aI206
aI357
aI353
aI229
aI87
aI174
aI255
aI198
aI365
aI244
aI227
aI289
aI256
aI102
aI280
aI169
aI207
aI226
aI243
aI366
aI332
aI326
aI391
aI215
aI146
aI127
aI384
aI312
aI148
aI263
aI50
aI131
aI129
aI390
aI23
aI238
aI188
aI338
aI230
aI120
aI376
aI375
aI98
aI151
aI396
aI45
aI223
aI53
aI173
aI371
aI250
aI67
aI60
aI84
aI251
aI52
aI118
aI361
aI143
aI43
aI237
aI228
aI331
aI352
aI334
aI288
aI410
aI115
aI259
aI337
aI117
aI161
aI160
aI362
aI340
aI172
aI231
aI364
aI287
aI219
aI192
aI412
aI225
aI341
aI111
aI398
aI88
aI293
aI89
aI74
aI422
aI286
aI167
aI267
aI139
aI314
aI44
aI381
aI46
aI199
aI3
aI344
aI95
aI64
aI30
aI97
aI383
aI104
aI7
aI193
aI76
aI40
aI271
aI63
aI309
aI415
aI323
aI78
aI51
aI276
aI128
aI413
aI266
aI184
aI252
aI305
aI328
aI124
aI408
aI197
aI399
aI246
aI402
aI222
aI205
aI385
aI393
aI315
aI195
aI99
aI37
aI77
aI261
aI299
aI2
aI386
aI59
aI159
aI265
aI234
aI242
aI140
aI175
aI302
aI359
aI16
aI370
aI239
aI308
aI264
aI257
aI39
aI156
aI168
aI368
aI233
aI18
aI218
aI282
aI202
aI28
aI313
aI339
aI409
aI335
aI274
aI178
aI21
aI71
aI138
aI69
aI249
aI141
aI180
aI55
aI38
aI240
aI394
aI421
aI163
aI150
aI100
aI170
aI165
aI213
aI279
aI119
aI191
aI310
aI342
aI105
aI333
aI9
aI301
aI116
aI91
aI24
aI70
aI83
aI275
aI273
aI194
aI155
aI26
aI211
aI414
aI216
aI48
aI136
aI416
aI330
aI291
aI373
aI58
aI185
aI132
aI236
aI142
aI10
aI34
aI369
aI203
aI113
aI350
aI294
aI75
aI346
aI254
aI400
aI147
aI358
aI13
aI149
aI277
aI217
aI389
aI133
aI320
aI356
aI322
aI189
aI56
aI392
aI0
aI4
aI11
aI296
aI137
aI6
aI61
aI183
aa(lp17
I26
aI35
aI193
aI78
aI255
aI401
aI38
aI362
aI360
aI55
aI344
aI409
aI208
aI81
aI178
aI290
aI190
aI153
aI410
aI392
aI186
aI203
aI129
aI240
aI85
aI356
aI47
aI83
aI116
aI346
aI399
aI232
aI99
aI198
aI69
aI262
aI230
aI189
aI169
aI27
aI0
aI358
aI246
aI378
aI144
aI234
aI126
aI244
aI225
aI205
aI375
aI249
aI369
aI308
aI304
aI373
aI34
aI206
aI19
aI395
aI367
aI100
aI343
aI237
aI289
aI283
aI336
aI405
aI263
aI396
aI334
aI142
aI394
aI332
aI341
aI374
aI383
aI258
aI337
aI72
aI29
aI271
aI416
aI161
aI250
aI11
aI213
aI86
aI302
aI60
aI123
aI183
aI275
aI387
aI209
aI71
aI196
aI94
aI286
aI104
aI248
aI10
aI243
aI53
aI303
aI280
aI25
aI77
aI239
aI242
aI37
aI187
aI110
aI420
aI407
aI164
aI135
aI252
aI44
aI32
aI419
aI404
aI18
aI143
aI46
aI166
aI389
aI322
aI287
aI272
aI82
aI84
aI15
aI393
aI256
aI127
aI175
aI400
aI259
aI254
aI365
aI122
aI370
aI417
aI136
aI88
aI231
aI261
aI157
aI195
aI299
aI155
aI398
aI200
aI245
aI131
aI408
aI298
aI31
aI282
aI22
aI172
aI73
aI132
aI363
aI227
aI168
aI335
aI33
aI347
aI2
aI152
aI321
aI12
aI133
aI217
aI98
aI228
aI359
aI137
aI16
aI97
aI87
aI57
aI61
aI301
aI56
aI43
aI257
aI351
aI146
aI74
aI247
aI114
aI354
aI59
aI364
aI294
aI327
aI30
aI328
aI312
aI270
aI403
aI49
aI3
aI241
aI204
aI413
aI118
aI211
aI264
aI105
aI376
aI58
aI101
aI107
aI324
aI93
aI422
aI260
aI121
aI311
aI92
aI52
aI214
aI342
aI388
aI125
aI292
aI236
aI173
aI17
aI50
aI253
aI274
aI197
aI41
aI119
aI414
aI170
aI156
aI273
aI140
aI338
aI320
aI163
aI4
aI124
aI102
aI8
aI13
aI120
aI265
aI141
aI333
aI310
aI171
aI297
aI109
aI66
aI390
aI115
aI348
aI220
aI148
aI111
aI291
aI379
aI353
aI64
aI281
aI36
aI315
aI145
aI361
aI6
aI96
aI415
aI421
aI134
aI48
aI117
aI235
aI5
aI154
aI371
aI402
aI293
aI219
aI277
aI202
aI179
aI276
aI108
aI199
aI269
aI279
aI382
aI340
aI223
aI377
aI339
aI345
aI306
aI233
aI159
aI90
aI325
aI184
aI28
aI192
aI330
aI397
aI352
aI181
aI1
aI14
aI182
aI7
aI24
aI150
aI366
aI385
aI368
aI158
aI357
aI174
aI139
aI65
aI210
aI113
aI68
aI229
aI300
aI309
aI384
aI412
aI314
aI39
aI380
aI316
aI70
aI267
aI112
aI207
aI221
aI21
aI319
aI188
aI222
aI180
aI418
aI318
aI329
aI80
aI224
aI238
aI305
aI313
aI138
aI226
aI177
aI89
aI62
aI40
aI295
aI296
aI67
aI103
aI411
aI317
aI386
aI162
aI215
aI212
aI91
aI42
aI288
aI149
aI268
aI9
aI191
aI185
aI51
aI167
aI285
aI349
aI355
aI372
aI75
aI106
aI160
aI151
aI284
aI251
aI201
aI307
aI406
aI20
aI381
aI350
aI323
aI63
aI331
aI130
aI391
aI194
aI326
aI266
aI128
aI165
aI278
aI216
aI79
aI95
aI76
aI23
aI45
aI176
aI54
aI147
aI218
aa(lp18
I92
aI52
aI244
aI377
aI35
aI246
aI268
aI411
aI318
aI83
aI260
aI137
aI22
aI45
aI276
aI91
aI73
aI72
aI85
aI403
aI156
aI189
aI361
aI228
aI218
aI24
aI132
aI355
aI386
aI234
aI56
aI50
aI67
aI382
aI226
aI76
aI15
aI102
aI139
aI320
aI225
aI2
aI334
aI207
aI251
aI201
aI62
aI295
aI18
aI38
aI126
aI165
aI235
aI87
aI71
aI58
aI26
aI373
aI192
aI175
aI54
aI29
aI301
aI284
aI32
aI233
aI371
aI27
aI279
aI396
aI338
aI401
aI298
aI412
aI5
aI131
aI399
aI326
aI366
aI223
aI179
aI96
aI204
aI222
aI231
aI302
aI272
aI61
aI3
aI31
aI57
aI168
aI149
aI42
aI262
aI339
aI400
aI256
aI363
aI414
aI163
aI8
aI178
aI200
aI309
aI252
aI388
aI376
aI407
aI185
aI216
aI49
aI125
aI245
aI36
aI86
aI266
aI177
aI238
aI28
aI378
aI74
aI230
aI369
aI195
aI198
aI124
aI315
aI362
aI312
aI158
aI145
aI63
aI93
aI161
aI70
aI359
aI88
aI20
aI11
aI98
aI365
aI304
aI144
aI317
aI160
aI417
aI275
aI394
aI379
aI340
aI257
aI418
aI162
aI370
aI208
aI1
aI115
aI75
aI59
aI25
aI220
aI33
aI188
aI278
aI273
aI47
aI221
aI182
aI336
aI280
aI0
aI397
aI306
aI329
aI330
aI269
aI308
aI157
aI152
aI100
aI316
aI421
aI263
aI408
aI248
aI287
aI331
aI364
aI211
aI254
aI347
aI78
aI255
aI213
aI12
aI354
aI171
aI151
aI174
aI293
aI184
aI290
aI66
aI232
aI111
aI81
aI118
aI166
aI405
aI153
aI323
aI53
aI135
aI16
aI101
aI328
aI68
aI353
aI348
aI253
aI310
aI193
aI180
aI261
aI69
aI341
aI313
aI381
aI55
aI299
aI129
aI289
aI343
aI159
aI349
aI247
aI43
aI212
aI196
aI321
aI282
aI116
aI210
aI17
aI240
aI372
aI44
aI264
aI142
aI374
aI40
aI134
aI34
aI108
aI173
aI10
aI227
aI60
aI351
aI14
aI119
aI422
aI65
aI106
aI128
aI358
aI415
aI387
aI114
aI120
aI241
aI77
aI346
aI209
aI191
aI9
aI214
aI194
aI277
aI113
aI122
aI368
aI375
aI203
aI187
aI360
aI89
aI239
aI170
aI154
aI13
aI155
aI327
aI305
aI357
aI274
aI46
aI148
aI181
aI94
aI79
aI143
aI395
aI314
aI337
aI99
aI224
aI297
aI356
aI95
aI105
aI398
aI121
aI7
aI141
aI296
aI138
aI6
aI237
aI265
aI23
aI406
aI172
aI352
aI322
aI270
aI300
aI147
aI344
aI350
aI150
aI202
aI285
aI319
aI324
aI130
aI259
aI167
aI345
aI169
aI391
aI136
aI80
aI30
aI37
aI404
aI205
aI288
aI90
aI416
aI39
aI82
aI342
aI97
aI112
aI229
aI48
aI215
aI127
aI380
aI335
aI249
aI146
aI242
aI332
aI258
aI420
aI392
aI4
aI283
aI410
aI186
aI390
aI419
aI21
aI64
aI281
aI271
aI292
aI291
aI109
aI243
aI294
aI206
aI190
aI19
aI164
aI384
aI303
aI267
aI307
aI250
aI311
aI103
aI133
aI385
aI140
aI389
aI219
aI199
aI367
aI84
aI409
aI51
aI123
aI402
aI41
aI236
aI107
aI383
aI413
aI183
aI393
aI325
aI333
aI176
aI217
aI104
aI110
aI117
aI286
aI197
aa(lp19
I24
aI10
aI290
aI142
aI172
aI269
aI116
aI26
aI380
aI360
aI178
aI131
aI214
aI34
aI232
aI370
aI334
aI213
aI163
aI135
aI373
aI358
aI118
aI391
aI97
aI304
aI124
aI44
aI333
aI340
aI3
aI95
aI157
aI99
aI307
aI223
aI68
aI194
aI383
aI126
aI297
aI88
aI412
aI264
aI302
aI332
aI356
aI83
aI1
aI291
aI173
aI395
aI134
aI56
aI357
aI320
aI394
aI177
aI270
aI328
aI348
aI191
aI242
aI71
aI390
aI147
aI230
aI57
aI281
aI329
aI81
aI260
aI42
aI125
aI139
aI161
aI378
aI197
aI409
aI37
aI4
aI308
aI287
aI301
aI299
aI219
aI85
aI121
aI181
aI208
aI7
aI45
aI77
aI336
aI129
aI229
aI240
aI150
aI32
aI235
aI273
aI322
aI220
aI137
aI419
aI179
aI101
aI392
aI393
aI33
aI292
aI187
aI47
aI375
aI17
aI402
aI252
aI312
aI86
aI266
aI376
aI167
aI195
aI16
aI283
aI367
aI317
aI210
aI216
aI421
aI221
aI162
aI243
aI239
aI40
aI238
aI76
aI166
aI70
aI156
aI222
aI205
aI52
aI262
aI404
aI289
aI65
aI13
aI401
aI275
aI46
aI193
aI255
aI35
aI113
aI190
aI361
aI115
aI168
aI96
aI396
aI403
aI278
aI188
aI272
aI339
aI60
aI237
aI388
aI49
aI389
aI331
aI141
aI103
aI27
aI285
aI153
aI345
aI186
aI293
aI405
aI259
aI244
aI225
aI38
aI323
aI233
aI267
aI369
aI98
aI54
aI151
aI350
aI91
aI203
aI313
aI94
aI61
aI398
aI371
aI29
aI303
aI326
aI236
aI382
aI23
aI384
aI138
aI355
aI341
aI385
aI180
aI100
aI251
aI55
aI102
aI234
aI226
aI342
aI171
aI48
aI53
aI117
aI59
aI280
aI209
aI352
aI50
aI122
aI11
aI174
aI9
aI69
aI363
aI377
aI324
aI286
aI263
aI152
aI58
aI265
aI14
aI80
aI41
aI169
aI110
aI346
aI8
aI145
aI196
aI192
aI159
aI217
aI407
aI337
aI207
aI397
aI353
aI62
aI170
aI72
aI271
aI43
aI123
aI284
aI359
aI28
aI327
aI206
aI39
aI22
aI245
aI120
aI12
aI416
aI306
aI253
aI335
aI204
aI343
aI130
aI296
aI165
aI67
aI200
aI73
aI247
aI318
aI105
aI354
aI294
aI185
aI84
aI410
aI344
aI30
aI119
aI365
aI422
aI366
aI109
aI413
aI15
aI228
aI21
aI227
aI2
aI261
aI132
aI256
aI212
aI420
aI107
aI184
aI112
aI133
aI182
aI64
aI211
aI349
aI268
aI417
aI362
aI279
aI176
aI386
aI399
aI51
aI254
aI381
aI144
aI347
aI315
aI202
aI372
aI274
aI146
aI189
aI248
aI305
aI140
aI36
aI136
aI158
aI148
aI79
aI74
aI414
aI224
aI201
aI249
aI215
aI75
aI183
aI93
aI218
aI63
aI406
aI66
aI408
aI6
aI309
aI311
aI314
aI111
aI400
aI379
aI411
aI143
aI351
aI368
aI276
aI154
aI78
aI149
aI257
aI19
aI321
aI250
aI319
aI128
aI364
aI198
aI298
aI199
aI288
aI82
aI25
aI90
aI18
aI155
aI92
aI104
aI310
aI316
aI418
aI300
aI415
aI31
aI89
aI87
aI338
aI175
aI374
aI108
aI164
aI282
aI258
aI241
aI231
aI387
aI277
aI114
aI5
aI106
aI330
aI127
aI325
aI295
aI246
aI0
aI160
aI20
aa(lp20
I3
aI39
aI153
aI130
aI354
aI189
aI68
aI183
aI44
aI392
aI419
aI216
aI85
aI20
aI8
aI70
aI366
aI251
aI340
aI99
aI302
aI117
aI48
aI394
aI364
aI46
aI28
aI192
aI148
aI116
aI78
aI75
aI344
aI210
aI31
aI281
aI152
aI166
aI191
aI376
aI257
aI338
aI73
aI252
aI323
aI37
aI262
aI88
aI164
aI420
aI381
aI284
aI219
aI6
aI134
aI283
aI288
aI309
aI111
aI196
aI390
aI388
aI410
aI30
aI119
aI414
aI348
aI114
aI184
aI146
aI415
aI396
aI350
aI107
aI76
aI398
aI402
aI240
aI98
aI294
aI349
aI279
aI385
aI198
aI324
aI254
aI140
aI29
aI212
aI182
aI22
aI408
aI365
aI194
aI226
aI174
aI395
aI295
aI51
aI202
aI91
aI12
aI287
aI138
aI327
aI43
aI17
aI305
aI261
aI204
aI244
aI40
aI321
aI234
aI372
aI232
aI36
aI159
aI382
aI303
aI179
aI223
aI378
aI407
aI255
aI101
aI45
aI326
aI187
aI291
aI227
aI353
aI289
aI298
aI163
aI172
aI42
aI406
aI86
aI71
aI133
aI221
aI282
aI238
aI25
aI342
aI201
aI380
aI297
aI346
aI69
aI418
aI151
aI11
aI9
aI363
aI63
aI145
aI55
aI83
aI66
aI141
aI112
aI361
aI56
aI121
aI122
aI77
aI64
aI369
aI271
aI203
aI205
aI190
aI175
aI421
aI15
aI412
aI375
aI102
aI277
aI393
aI373
aI258
aI173
aI161
aI317
aI120
aI285
aI270
aI401
aI5
aI84
aI125
aI379
aI241
aI250
aI126
aI370
aI57
aI132
aI355
aI74
aI124
aI208
aI405
aI292
aI2
aI158
aI118
aI171
aI113
aI347
aI304
aI92
aI235
aI178
aI115
aI325
aI1
aI312
aI222
aI268
aI59
aI181
aI131
aI356
aI26
aI27
aI18
aI90
aI228
aI242
aI322
aI267
aI301
aI160
aI269
aI391
aI319
aI290
aI417
aI336
aI233
aI16
aI193
aI300
aI33
aI62
aI23
aI214
aI167
aI357
aI53
aI135
aI367
aI165
aI199
aI96
aI229
aI4
aI345
aI386
aI149
aI94
aI60
aI186
aI403
aI211
aI58
aI220
aI311
aI50
aI339
aI177
aI331
aI154
aI207
aI274
aI306
aI296
aI328
aI224
aI330
aI245
aI299
aI263
aI293
aI129
aI397
aI206
aI176
aI79
aI248
aI95
aI67
aI343
aI231
aI275
aI384
aI316
aI389
aI260
aI156
aI308
aI278
aI147
aI10
aI157
aI168
aI318
aI422
aI155
aI246
aI106
aI54
aI139
aI332
aI19
aI333
aI280
aI52
aI239
aI352
aI105
aI359
aI368
aI195
aI35
aI266
aI273
aI49
aI387
aI358
aI215
aI276
aI103
aI47
aI272
aI108
aI337
aI200
aI249
aI104
aI315
aI209
aI413
aI307
aI335
aI180
aI409
aI89
aI265
aI100
aI362
aI341
aI371
aI188
aI14
aI213
aI0
aI137
aI72
aI97
aI360
aI237
aI169
aI377
aI38
aI217
aI136
aI65
aI109
aI81
aI416
aI314
aI320
aI170
aI61
aI310
aI230
aI128
aI123
aI225
aI80
aI150
aI32
aI253
aI13
aI259
aI351
aI197
aI411
aI264
aI87
aI142
aI24
aI400
aI21
aI313
aI383
aI82
aI247
aI185
aI218
aI236
aI329
aI286
aI127
aI34
aI162
aI256
aI243
aI144
aI334
aI404
aI110
aI374
aI7
aI93
aI399
aI143
aI41
aa.