(lp0
(lp1
I8
aI18
aI15
aI6
aI17
aI1
aI21
aI26
aI19
aI22
aI14
aI25
aI20
aI0
aI4
aI11
aI24
aI16
aI12
aI23
aI7
aI2
aI5
aI3
aI10
aI13
aI9
aa(lp2
I24
aI6
aI8
aI22
aI23
aI16
aI19
aI0
aI10
aI4
aI15
aI17
aI12
aI2
aI18
aI11
aI13
aI9
aI25
aI21
aI3
aI20
aI7
aI14
aI5
aI1
aI26
aa(lp3
I25
aI3
aI18
aI2
aI23
aI11
aI17
aI20
aI12
aI9
aI15
aI24
aI7
aI8
aI4
aI5
aI13
aI19
aI21
aI22
aI0
aI6
aI16
aI14
aI1
aI10
aI26
aa(lp4
I1
aI24
aI23
aI16
aI11
aI22
aI13
aI8
aI18
aI5
aI9
aI4
aI10
aI17
aI21
aI12
aI19
aI14
aI15
aI20
aI6
aI3
aI7
aI2
aI0
aI25
aI26
aa(lp5
I3
aI20
aI12
aI6
aI13
aI9
aI16
aI0
aI7
aI10
aI5
aI24
aI21
aI2
aI17
aI11
aI1
aI23
aI15
aI4
aI19
aI22
aI18
aI26
aI8
aI25
aI14
aa(lp6
I25
aI15
aI9
aI1
aI8
aI26
aI24
aI18
aI16
aI17
aI12
aI13
aI7
aI21
aI0
aI20
aI23
aI22
aI6
aI19
aI5
aI10
aI3
aI14
aI4
aI11
aI2
aa(lp7
I12
aI18
aI16
aI9
aI25
aI11
aI14
aI21
aI22
aI19
aI23
aI6
aI5
aI10
aI15
aI20
aI7
aI0
aI17
aI24
aI3
aI13
aI1
aI8
aI2
aI4
aI26
aa(lp8
I4
aI25
aI14
aI10
aI18
aI22
aI13
aI21
aI1
aI17
aI12
aI6
aI3
aI11
aI26
aI23
aI20
aI2
aI8
aI5
aI16
aI7
aI19
aI0
aI15
aI24
aI9
aa(lp9
I10
aI8
aI1
aI21
aI7
aI6
aI24
aI5
aI12
aI19
aI20
aI2
aI26
aI3
aI9
aI16
aI17
aI4
aI25
aI0
aI15
aI14
aI22
aI18
aI11
aI23
aI13
aa(lp10
I1
aI10
aI3
aI11
aI15
aI4
aI19
aI6
aI20
aI9
aI13
aI16
aI0
aI2
aI22
aI5
aI25
aI21
aI24
aI8
aI18
aI12
aI26
aI17
aI14
aI23
aI7
aa(lp11
I14
aI16
aI2
aI23
aI3
aI7
aI8
aI9
aI18
aI24
aI19
aI20
aI21
aI6
aI4
aI13
aI10
aI12
aI15
aI1
aI17
aI26
aI11
aI25
aI0
aI22
aI5
aa(lp12
I5
aI9
aI21
aI22
aI23
aI4
aI17
aI24
aI25
aI20
aI7
aI19
aI2
aI1
aI16
aI13
aI11
aI0
aI3
aI6
aI10
aI26
aI15
aI14
aI12
aI8
aI18
aa(lp13
I12
aI8
aI5
aI2
aI4
aI25
aI22
aI14
aI7
aI24
aI19
aI17
aI20
aI1
aI13
aI6
aI0
aI26
aI9
aI11
aI16
aI23
aI21
aI3
aI18
aI15
aI10
aa(lp14
I4
aI10
aI1
aI13
aI18
aI12
aI11
aI26
aI9
aI22
aI20
aI23
aI16
aI2
aI8
aI17
aI0
aI7
aI15
aI21
aI14
aI5
aI19
aI3
aI6
aI24
aI25
aa(lp15
I22
aI13
aI2
aI5
aI3
aI21
aI15
aI0
aI14
aI10
aI7
aI18
aI4
aI8
aI20
aI19
aI11
aI6
aI1
aI25
aI24
aI16
aI12
aI9
aI23
aI17
aI26
aa(lp16
I22
aI18
aI25
aI0
aI19
aI11
aI23
aI7
aI3
aI16
aI4
aI13
aI2
aI20
aI21
aI14
aI12
aI6
aI15
aI26
aI1
aI10
aI17
aI5
aI8
aI9
aI24
aa(lp17
I22
aI2
aI23
aI16
aI14
aI11
aI18
aI8
aI21
aI5
aI3
aI19
aI10
aI25
aI20
aI17
aI26
aI1
aI4
aI7
aI9
aI15
aI12
aI6
aI24
aI13
aI0
aa(lp18
I13
aI9
aI21
aI7
aI22
aI26
aI2
aI11
aI23
aI0
aI18
aI12
aI4
aI25
aI6
aI5
aI8
aI10
aI17
aI20
aI1
aI19
aI14
aI24
aI16
aI3
aI15
aa(lp19
I19
aI22
aI6
aI12
aI16
aI5
aI3
aI20
aI24
aI9
aI17
aI2
aI10
aI7
aI1
aI26
aI11
aI4
aI21
aI8
aI23
aI13
aI25
aI15
aI14
aI18
aI0
aa(lp20
I15
aI24
aI12
aI4
aI10
aI14
aI9
aI6
aI13
aI7
aI19
aI25
aI20
aI11
aI5
aI17
aI26
aI16
aI2
aI0
aI1
aI21
aI3
aI18
aI8
aI23
aI22
aa.