(lp0
(lp1
I42
aI4
aI43
aI7
aI37
aI49
aI52
aI29
aI54
aI23
aI5
aI63
aI41
aI62
aI61
aI12
aI13
aI33
aI17
aI20
aI31
aI51
aI40
aI21
aI26
aI11
aI60
aI46
aI0
aI57
aI9
aI16
aI18
aI47
aI14
aI64
aI36
aI22
aI56
aI28
aI19
aI50
aI6
aI45
aI55
aI35
aI59
aI53
aI24
aI1
aI8
aI44
aI58
aI30
aI34
aI32
aI27
aI25
aI48
aI38
aI65
aI10
aI39
aI2
aI3
aI15
aa(lp2
I2
aI20
aI0
aI60
aI61
aI45
aI6
aI5
aI32
aI9
aI63
aI14
aI27
aI39
aI24
aI23
aI56
aI58
aI37
aI41
aI29
aI52
aI21
aI38
aI64
aI22
aI48
aI31
aI51
aI34
aI65
aI42
aI16
aI59
aI28
aI40
aI13
aI26
aI7
aI1
aI25
aI43
aI12
aI11
aI35
aI15
aI53
aI19
aI57
aI8
aI4
aI18
aI50
aI55
aI54
aI46
aI62
aI17
aI33
aI3
aI49
aI44
aI30
aI36
aI10
aI47
aa(lp3
I19
aI54
aI61
aI36
aI34
aI32
aI31
aI59
aI53
aI5
aI35
aI65
aI41
aI7
aI2
aI47
aI52
aI26
aI62
aI27
aI9
aI6
aI30
aI4
aI43
aI37
aI17
aI45
aI33
aI29
aI39
aI57
aI28
aI15
aI40
aI20
aI23
aI58
aI11
aI1
aI48
aI60
aI8
aI22
aI25
aI55
aI10
aI3
aI46
aI56
aI16
aI49
aI51
aI44
aI63
aI24
aI14
aI18
aI42
aI12
aI13
aI50
aI0
aI64
aI21
aI38
aa(lp4
I10
aI19
aI12
aI2
aI21
aI13
aI46
aI39
aI3
aI54
aI42
aI31
aI24
aI63
aI37
aI53
aI50
aI38
aI23
aI34
aI29
aI49
aI28
aI11
aI9
aI7
aI40
aI48
aI64
aI55
aI27
aI51
aI14
aI33
aI4
aI32
aI25
aI45
aI5
aI62
aI17
aI8
aI60
aI6
aI57
aI35
aI56
aI1
aI16
aI0
aI26
aI58
aI61
aI65
aI20
aI30
aI44
aI41
aI43
aI15
aI59
aI52
aI22
aI36
aI47
aI18
aa(lp5
I26
aI29
aI65
aI21
aI5
aI39
aI35
aI46
aI42
aI9
aI54
aI40
aI12
aI60
aI56
aI62
aI44
aI37
aI64
aI2
aI63
aI8
aI23
aI43
aI33
aI32
aI52
aI22
aI59
aI61
aI11
aI41
aI25
aI27
aI14
aI16
aI10
aI0
aI24
aI55
aI6
aI18
aI58
aI49
aI3
aI28
aI31
aI45
aI1
aI38
aI51
aI30
aI4
aI36
aI57
aI20
aI48
aI53
aI50
aI7
aI15
aI13
aI17
aI47
aI19
aI34
aa(lp6
I32
aI3
aI45
aI37
aI64
aI29
aI12
aI2
aI60
aI30
aI33
aI22
aI4
aI38
aI28
aI26
aI0
aI41
aI51
aI1
aI59
aI25
aI10
aI63
aI50
aI46
aI35
aI6
aI43
aI14
aI23
aI17
aI48
aI9
aI24
aI55
aI7
aI15
aI19
aI44
aI54
aI52
aI62
aI42
aI47
aI61
aI57
aI5
aI56
aI18
aI21
aI49
aI8
aI31
aI16
aI65
aI39
aI20
aI34
aI58
aI11
aI53
aI27
aI40
aI36
aI13
aa(lp7
I23
aI31
aI20
aI54
aI11
aI19
aI26
aI36
aI12
aI18
aI22
aI5
aI37
aI44
aI24
aI15
aI29
aI61
aI3
aI50
aI6
aI4
aI63
aI51
aI42
aI59
aI60
aI33
aI25
aI21
aI1
aI53
aI17
aI56
aI65
aI49
aI62
aI43
aI2
aI52
aI41
aI27
aI38
aI55
aI14
aI64
aI10
aI58
aI16
aI30
aI40
aI13
aI32
aI8
aI39
aI47
aI9
aI34
aI35
aI7
aI28
aI0
aI46
aI48
aI45
aI57
aa(lp8
I6
aI0
aI27
aI45
aI18
aI24
aI19
aI26
aI58
aI43
aI37
aI2
aI49
aI54
aI53
aI52
aI21
aI51
aI14
aI12
aI25
aI63
aI64
aI56
aI57
aI61
aI36
aI42
aI22
aI7
aI30
aI55
aI60
aI46
aI28
aI34
aI17
aI4
aI15
aI35
aI23
aI13
aI1
aI50
aI29
aI59
aI44
aI3
aI65
aI11
aI33
aI9
aI41
aI39
aI20
aI10
aI8
aI62
aI5
aI47
aI40
aI31
aI32
aI38
aI48
aI16
aa(lp9
I56
aI33
aI4
aI28
aI61
aI51
aI11
aI65
aI22
aI9
aI8
aI18
aI23
aI29
aI60
aI42
aI3
aI10
aI25
aI57
aI39
aI52
aI50
aI31
aI32
aI54
aI34
aI62
aI21
aI55
aI49
aI63
aI13
aI7
aI53
aI16
aI37
aI45
aI2
aI1
aI5
aI6
aI24
aI12
aI38
aI36
aI0
aI17
aI40
aI19
aI35
aI64
aI47
aI30
aI43
aI58
aI26
aI41
aI46
aI59
aI15
aI27
aI20
aI48
aI14
aI44
aa(lp10
I13
aI3
aI56
aI60
aI38
aI7
aI21
aI19
aI59
aI51
aI49
aI24
aI12
aI64
aI30
aI27
aI17
aI16
aI29
aI65
aI42
aI4
aI61
aI53
aI57
aI33
aI46
aI37
aI10
aI48
aI45
aI58
aI15
aI52
aI20
aI6
aI0
aI28
aI47
aI5
aI63
aI14
aI22
aI32
aI31
aI9
aI50
aI8
aI18
aI23
aI43
aI55
aI34
aI44
aI11
aI54
aI62
aI1
aI40
aI26
aI41
aI39
aI2
aI36
aI25
aI35
aa(lp11
I27
aI23
aI31
aI42
aI65
aI1
aI10
aI26
aI47
aI37
aI56
aI53
aI49
aI18
aI15
aI25
aI9
aI39
aI29
aI24
aI41
aI33
aI58
aI34
aI50
aI62
aI16
aI32
aI5
aI43
aI40
aI0
aI14
aI17
aI57
aI35
aI21
aI45
aI44
aI36
aI6
aI46
aI2
aI4
aI3
aI64
aI28
aI63
aI60
aI22
aI7
aI54
aI48
aI52
aI51
aI13
aI8
aI55
aI59
aI20
aI61
aI19
aI11
aI30
aI12
aI38
aa(lp12
I18
aI44
aI30
aI60
aI22
aI24
aI36
aI37
aI39
aI14
aI19
aI48
aI41
aI61
aI10
aI57
aI32
aI28
aI7
aI5
aI3
aI54
aI4
aI15
aI31
aI16
aI38
aI8
aI43
aI50
aI45
aI34
aI29
aI51
aI63
aI62
aI35
aI42
aI6
aI27
aI26
aI13
aI12
aI25
aI0
aI11
aI64
aI1
aI9
aI46
aI55
aI23
aI2
aI20
aI33
aI65
aI40
aI47
aI59
aI17
aI21
aI58
aI52
aI49
aI53
aI56
aa(lp13
I65
aI23
aI48
aI9
aI46
aI41
aI54
aI36
aI29
aI35
aI64
aI4
aI15
aI0
aI3
aI27
aI21
aI5
aI26
aI32
aI16
aI37
aI19
aI2
aI12
aI58
aI50
aI45
aI47
aI55
aI7
aI20
aI38
aI1
aI57
aI6
aI11
aI49
aI22
aI53
aI51
aI13
aI61
aI59
aI8
aI14
aI18
aI60
aI40
aI39
aI44
aI33
aI42
aI30
aI28
aI56
aI34
aI62
aI43
aI25
aI24
aI17
aI52
aI63
aI31
aI10
aa(lp14
I43
aI18
aI40
aI20
aI55
aI6
aI22
aI62
aI59
aI0
aI37
aI61
aI52
aI56
aI14
aI51
aI38
aI42
aI3
aI13
aI15
aI7
aI5
aI44
aI48
aI21
aI16
aI63
aI45
aI32
aI12
aI57
aI33
aI54
aI30
aI11
aI4
aI58
aI26
aI36
aI50
aI53
aI65
aI9
aI19
aI25
aI23
aI17
aI10
aI47
aI46
aI34
aI64
aI35
aI41
aI39
aI60
aI2
aI29
aI8
aI24
aI31
aI28
aI49
aI27
aI1
aa(lp15
I63
aI54
aI8
aI38
aI15
aI16
aI25
aI60
aI61
aI62
aI36
aI18
aI3
aI45
aI11
aI30
aI23
aI47
aI22
aI64
aI27
aI52
aI57
aI37
aI2
aI44
aI9
aI32
aI55
aI35
aI19
aI1
aI7
aI39
aI12
aI41
aI21
aI14
aI10
aI31
aI29
aI40
aI59
aI17
aI48
aI58
aI42
aI33
aI46
aI20
aI50
aI0
aI13
aI56
aI34
aI51
aI43
aI4
aI49
aI28
aI5
aI24
aI53
aI65
aI26
aI6
aa(lp16
I45
aI57
aI9
aI16
aI26
aI12
aI54
aI0
aI30
aI22
aI60
aI28
aI6
aI18
aI44
aI29
aI37
aI13
aI61
aI43
aI50
aI40
aI23
aI53
aI8
aI33
aI25
aI42
aI56
aI52
aI27
aI31
aI62
aI4
aI64
aI32
aI46
aI49
aI55
aI17
aI15
aI14
aI58
aI11
aI36
aI59
aI63
aI41
aI48
aI39
aI24
aI21
aI10
aI5
aI35
aI47
aI19
aI3
aI51
aI65
aI2
aI7
aI34
aI1
aI20
aI38
aa(lp17
I9
aI37
aI8
aI45
aI13
aI65
aI40
aI49
aI15
aI23
aI32
aI57
aI17
aI7
aI62
aI38
aI27
aI56
aI12
aI6
aI58
aI59
aI19
aI42
aI0
aI46
aI29
aI41
aI47
aI63
aI36
aI54
aI3
aI34
aI50
aI22
aI4
aI20
aI1
aI18
aI26
aI48
aI53
aI39
aI61
aI60
aI16
aI21
aI31
aI5
aI10
aI11
aI30
aI51
aI2
aI35
aI52
aI44
aI43
aI25
aI33
aI64
aI14
aI24
aI55
aI28
aa(lp18
I58
aI51
aI41
aI23
aI45
aI18
aI31
aI22
aI50
aI53
aI9
aI32
aI59
aI13
aI19
aI57
aI28
aI14
aI56
aI7
aI34
aI24
aI36
aI29
aI47
aI46
aI62
aI5
aI40
aI16
aI20
aI21
aI8
aI17
aI35
aI38
aI10
aI54
aI55
aI49
aI52
aI26
aI37
aI25
aI4
aI65
aI0
aI42
aI15
aI11
aI12
aI3
aI43
aI27
aI60
aI61
aI6
aI1
aI48
aI39
aI63
aI64
aI2
aI30
aI33
aI44
aa(lp19
I20
aI25
aI5
aI47
aI27
aI14
aI12
aI40
aI36
aI35
aI44
aI59
aI32
aI55
aI15
aI30
aI0
aI16
aI17
aI42
aI38
aI50
aI46
aI60
aI64
aI24
aI34
aI18
aI28
aI33
aI51
aI49
aI58
aI62
aI48
aI7
aI23
aI31
aI8
aI11
aI6
aI65
aI39
aI19
aI57
aI2
aI21
aI10
aI1
aI37
aI61
aI54
aI22
aI43
aI45
aI29
aI26
aI56
aI63
aI53
aI3
aI9
aI4
aI52
aI13
aI41
aa(lp20
I4
aI55
aI61
aI35
aI40
aI16
aI1
aI26
aI57
aI63
aI27
aI25
aI56
aI53
aI54
aI10
aI34
aI42
aI13
aI62
aI43
aI41
aI2
aI11
aI31
aI28
aI51
aI33
aI3
aI14
aI22
aI58
aI7
aI15
aI29
aI12
aI8
aI6
aI30
aI5
aI36
aI59
aI23
aI50
aI38
aI52
aI47
aI18
aI45
aI65
aI9
aI39
aI64
aI0
aI24
aI49
aI46
aI48
aI19
aI20
aI44
aI60
aI21
aI17
aI37
aI32
aa.