(lp0
(lp1
I2
aI4
aI9
aI18
aI23
aI27
aI15
aI26
aI14
aI7
aI22
aI6
aI11
aI19
aI25
aI3
aI5
aI10
aI1
aI13
aI8
aI21
aI17
aI24
aI20
aI0
aI16
aI12
aa(lp2
I3
aI0
aI7
aI9
aI27
aI19
aI11
aI12
aI21
aI15
aI26
aI17
aI4
aI1
aI8
aI10
aI18
aI14
aI23
aI6
aI24
aI20
aI22
aI16
aI13
aI2
aI25
aI5
aa(lp3
I0
aI23
aI5
aI18
aI7
aI27
aI14
aI9
aI2
aI26
aI20
aI11
aI1
aI24
aI16
aI21
aI15
aI8
aI6
aI25
aI10
aI3
aI13
aI19
aI4
aI22
aI12
aI17
aa(lp4
I7
aI4
aI0
aI9
aI8
aI1
aI20
aI10
aI13
aI22
aI18
aI15
aI23
aI11
aI16
aI24
aI2
aI17
aI5
aI6
aI26
aI14
aI27
aI19
aI21
aI12
aI3
aI25
aa(lp5
I9
aI6
aI20
aI8
aI5
aI10
aI22
aI17
aI16
aI18
aI11
aI7
aI12
aI15
aI1
aI4
aI3
aI0
aI13
aI25
aI24
aI14
aI23
aI19
aI26
aI27
aI21
aI2
aa(lp6
I3
aI8
aI11
aI6
aI20
aI4
aI16
aI21
aI25
aI19
aI9
aI17
aI23
aI26
aI13
aI15
aI2
aI27
aI18
aI0
aI1
aI12
aI7
aI10
aI22
aI5
aI14
aI24
aa(lp7
I12
aI7
aI24
aI3
aI18
aI21
aI15
aI23
aI5
aI17
aI13
aI26
aI10
aI16
aI22
aI1
aI14
aI0
aI9
aI25
aI19
aI4
aI11
aI2
aI6
aI27
aI20
aI8
aa(lp8
I25
aI9
aI2
aI27
aI20
aI16
aI7
aI17
aI11
aI10
aI1
aI3
aI23
aI18
aI14
aI19
aI0
aI12
aI5
aI13
aI26
aI6
aI24
aI22
aI21
aI15
aI4
aI8
aa(lp9
I24
aI11
aI17
aI23
aI7
aI5
aI21
aI2
aI20
aI27
aI12
aI15
aI8
aI14
aI10
aI6
aI16
aI18
aI9
aI4
aI19
aI3
aI26
aI0
aI22
aI13
aI25
aI1
aa(lp10
I2
aI6
aI15
aI11
aI7
aI18
aI17
aI16
aI13
aI27
aI14
aI12
aI21
aI19
aI3
aI4
aI10
aI1
aI20
aI8
aI25
aI0
aI9
aI24
aI26
aI23
aI22
aI5
aa(lp11
I11
aI17
aI1
aI14
aI4
aI5
aI18
aI16
aI22
aI9
aI25
aI2
aI12
aI26
aI7
aI20
aI27
aI8
aI23
aI0
aI3
aI24
aI21
aI13
aI15
aI6
aI19
aI10
aa(lp12
I26
aI2
aI5
aI3
aI19
aI21
aI20
aI22
aI17
aI12
aI8
aI23
aI14
aI11
aI0
aI25
aI24
aI6
aI9
aI4
aI10
aI1
aI7
aI18
aI16
aI27
aI13
aI15
aa(lp13
I2
aI21
aI27
aI23
aI12
aI19
aI4
aI5
aI0
aI1
aI3
aI8
aI16
aI9
aI26
aI25
aI15
aI17
aI20
aI6
aI14
aI22
aI11
aI24
aI7
aI10
aI18
aI13
aa(lp14
I1
aI20
aI11
aI0
aI12
aI18
aI21
aI6
aI17
aI22
aI10
aI9
aI13
aI26
aI5
aI15
aI24
aI7
aI3
aI14
aI19
aI4
aI8
aI2
aI16
aI25
aI27
aI23
aa(lp15
I7
aI5
aI25
aI27
aI12
aI13
aI8
aI26
aI1
aI10
aI21
aI17
aI16
aI18
aI23
aI19
aI24
aI9
aI14
aI0
aI3
aI15
aI4
aI2
aI20
aI6
aI11
aI22
aa(lp16
I25
aI14
aI3
aI9
aI15
aI19
aI26
aI13
aI6
aI12
aI23
aI24
aI17
aI5
aI10
aI27
aI22
aI4
aI0
aI7
aI20
aI18
aI11
aI8
aI1
aI21
aI16
aI2
aa(lp17
I16
aI23
aI14
aI10
aI20
aI3
aI8
aI25
aI27
aI1
aI15
aI4
aI12
aI22
aI13
aI7
aI26
aI5
aI11
aI9
aI2
aI0
aI17
aI6
aI21
aI18
aI19
aI24
aa(lp18
I10
aI18
aI11
aI13
aI16
aI7
aI19
aI12
aI17
aI15
aI20
aI2
aI25
aI14
aI21
aI24
aI1
aI6
aI0
aI27
aI26
aI3
aI5
aI8
aI9
aI22
aI23
aI4
aa(lp19
I0
aI3
aI17
aI2
aI5
aI20
aI18
aI1
aI14
aI16
aI27
aI21
aI7
aI6
aI23
aI25
aI15
aI10
aI4
aI8
aI22
aI19
aI13
aI11
aI26
aI9
aI12
aI24
aa(lp20
I5
aI13
aI4
aI17
aI6
aI11
aI19
aI14
aI3
aI12
aI22
aI16
aI26
aI18
aI20
aI15
aI1
aI25
aI23
aI9
aI27
aI2
aI21
aI10
aI24
aI7
aI0
aI8
aa.