(lp0
(lp1
I21
aI25
aI9
aI14
aI5
aI3
aI20
aI24
aI1
aI15
aI11
aI26
aI0
aI23
aI6
aI10
aI18
aI13
aI22
aI16
aI8
aI19
aI12
aI7
aI4
aI17
aI2
aI27
aa(lp2
I24
aI26
aI5
aI12
aI8
aI7
aI3
aI11
aI23
aI2
aI4
aI14
aI10
aI17
aI1
aI13
aI20
aI27
aI25
aI0
aI18
aI16
aI19
aI21
aI9
aI6
aI22
aI15
aa(lp3
I13
aI23
aI25
aI22
aI9
aI0
aI8
aI7
aI2
aI16
aI27
aI26
aI15
aI18
aI20
aI12
aI1
aI5
aI6
aI14
aI19
aI11
aI17
aI3
aI4
aI24
aI21
aI10
aa(lp4
I13
aI1
aI6
aI15
aI14
aI0
aI5
aI11
aI12
aI27
aI23
aI10
aI7
aI8
aI26
aI16
aI17
aI24
aI3
aI4
aI18
aI19
aI2
aI21
aI22
aI25
aI20
aI9
aa(lp5
I12
aI26
aI27
aI20
aI17
aI22
aI10
aI16
aI8
aI6
aI5
aI9
aI18
aI21
aI13
aI7
aI25
aI11
aI23
aI15
aI4
aI19
aI2
aI3
aI24
aI1
aI14
aI0
aa(lp6
I22
aI12
aI9
aI8
aI15
aI27
aI21
aI10
aI16
aI20
aI4
aI23
aI7
aI2
aI11
aI19
aI18
aI14
aI26
aI25
aI24
aI1
aI17
aI13
aI6
aI5
aI0
aI3
aa(lp7
I18
aI0
aI9
aI12
aI21
aI8
aI2
aI15
aI23
aI22
aI27
aI20
aI5
aI11
aI17
aI16
aI4
aI19
aI10
aI3
aI7
aI24
aI6
aI13
aI25
aI14
aI1
aI26
aa(lp8
I8
aI7
aI10
aI18
aI5
aI25
aI1
aI26
aI22
aI17
aI9
aI3
aI23
aI16
aI19
aI21
aI24
aI13
aI12
aI2
aI14
aI0
aI4
aI20
aI15
aI27
aI11
aI6
aa(lp9
I17
aI0
aI1
aI19
aI14
aI11
aI9
aI10
aI8
aI12
aI2
aI18
aI25
aI4
aI5
aI23
aI22
aI27
aI7
aI3
aI13
aI15
aI16
aI6
aI24
aI21
aI20
aI26
aa(lp10
I2
aI26
aI18
aI9
aI14
aI25
aI5
aI19
aI1
aI15
aI16
aI7
aI4
aI27
aI24
aI0
aI10
aI20
aI13
aI3
aI17
aI22
aI23
aI21
aI6
aI12
aI11
aI8
aa(lp11
I24
aI25
aI3
aI0
aI10
aI22
aI6
aI13
aI27
aI21
aI9
aI23
aI4
aI18
aI8
aI12
aI5
aI15
aI26
aI2
aI19
aI1
aI14
aI11
aI16
aI17
aI20
aI7
aa(lp12
I25
aI3
aI16
aI6
aI10
aI11
aI14
aI8
aI27
aI26
aI9
aI21
aI22
aI23
aI2
aI4
aI24
aI19
aI1
aI13
aI5
aI17
aI18
aI0
aI20
aI15
aI12
aI7
aa(lp13
I5
aI12
aI23
aI25
aI15
aI10
aI27
aI7
aI18
aI19
aI1
aI21
aI8
aI4
aI26
aI9
aI3
aI17
aI11
aI16
aI6
aI13
aI14
aI24
aI2
aI20
aI22
aI0
aa(lp14
I27
aI22
aI24
aI3
aI0
aI16
aI23
aI26
aI12
aI2
aI19
aI17
aI15
aI13
aI21
aI11
aI25
aI18
aI7
aI14
aI8
aI20
aI4
aI5
aI1
aI10
aI9
aI6
aa(lp15
I8
aI11
aI3
aI24
aI17
aI15
aI26
aI25
aI13
aI27
aI16
aI22
aI23
aI2
aI14
aI6
aI9
aI5
aI18
aI19
aI10
aI12
aI1
aI21
aI4
aI20
aI7
aI0
aa(lp16
I5
aI24
aI16
aI15
aI8
aI18
aI0
aI13
aI12
aI14
aI26
aI10
aI21
aI17
aI4
aI7
aI27
aI20
aI11
aI23
aI22
aI3
aI1
aI6
aI9
aI25
aI19
aI2
aa(lp17
I22
aI18
aI23
aI0
aI25
aI14
aI27
aI19
aI16
aI1
aI5
aI3
aI21
aI7
aI4
aI2
aI9
aI13
aI26
aI20
aI17
aI8
aI15
aI6
aI11
aI24
aI10
aI12
aa(lp18
I14
aI19
aI25
aI23
aI12
aI6
aI13
aI24
aI15
aI1
aI22
aI21
aI27
aI2
aI11
aI26
aI20
aI8
aI10
aI0
aI4
aI3
aI9
aI7
aI16
aI17
aI18
aI5
aa(lp19
I17
aI26
aI22
aI7
aI20
aI19
aI4
aI16
aI27
aI3
aI0
aI25
aI23
aI12
aI10
aI18
aI24
aI5
aI14
aI21
aI13
aI9
aI15
aI1
aI11
aI8
aI2
aI6
aa(lp20
I26
aI21
aI9
aI13
aI2
aI1
aI4
aI6
aI7
aI16
aI8
aI22
aI3
aI14
aI20
aI17
aI10
aI12
aI27
aI0
aI15
aI5
aI18
aI25
aI23
aI19
aI24
aI11
aa.